
obj/RPI_Hat_IR_Board.elf:     file format elf32-avr

Sections:
Idx Name          Size      VMA       LMA       File off  Algn
  0 .data         0000029a  00800100  00003318  000033ac  2**0
                  CONTENTS, ALLOC, LOAD, DATA
  1 .text         00003318  00000000  00000000  00000094  2**1
                  CONTENTS, ALLOC, LOAD, READONLY, CODE
  2 .bss          000004f5  0080039a  0080039a  00003646  2**0
                  ALLOC
  3 .comment      00000011  00000000  00000000  00003646  2**0
                  CONTENTS, READONLY
  4 .note.gnu.avr.deviceinfo 00000040  00000000  00000000  00003658  2**2
                  CONTENTS, READONLY
  5 .debug_info   00000792  00000000  00000000  00003698  2**0
                  CONTENTS, READONLY, DEBUGGING
  6 .debug_abbrev 00000729  00000000  00000000  00003e2a  2**0
                  CONTENTS, READONLY, DEBUGGING
  7 .debug_line   0000001a  00000000  00000000  00004553  2**0
                  CONTENTS, READONLY, DEBUGGING
  8 .debug_str    00000296  00000000  00000000  0000456d  2**0
                  CONTENTS, READONLY, DEBUGGING

Disassembly of section .text:

00000000 <__vectors>:
       0:	93 c0       	rjmp	.+294    	; 0x128 <__ctors_end>
       2:	00 00       	nop
       4:	af c0       	rjmp	.+350    	; 0x164 <__bad_interrupt>
       6:	00 00       	nop
       8:	ad c0       	rjmp	.+346    	; 0x164 <__bad_interrupt>
       a:	00 00       	nop
       c:	ab c0       	rjmp	.+342    	; 0x164 <__bad_interrupt>
       e:	00 00       	nop
      10:	a9 c0       	rjmp	.+338    	; 0x164 <__bad_interrupt>
      12:	00 00       	nop
      14:	a7 c0       	rjmp	.+334    	; 0x164 <__bad_interrupt>
      16:	00 00       	nop
      18:	a5 c0       	rjmp	.+330    	; 0x164 <__bad_interrupt>
      1a:	00 00       	nop
      1c:	a3 c0       	rjmp	.+326    	; 0x164 <__bad_interrupt>
      1e:	00 00       	nop
      20:	a1 c0       	rjmp	.+322    	; 0x164 <__bad_interrupt>
      22:	00 00       	nop
      24:	0c 94 54 11 	jmp	0x22a8	; 0x22a8 <__vector_9>
      28:	9d c0       	rjmp	.+314    	; 0x164 <__bad_interrupt>
      2a:	00 00       	nop
      2c:	9b c0       	rjmp	.+310    	; 0x164 <__bad_interrupt>
      2e:	00 00       	nop
      30:	99 c0       	rjmp	.+306    	; 0x164 <__bad_interrupt>
      32:	00 00       	nop
      34:	0c 94 83 18 	jmp	0x3106	; 0x3106 <__vector_13>
      38:	0c 94 f6 18 	jmp	0x31ec	; 0x31ec <__vector_14>
      3c:	0c 94 ec 18 	jmp	0x31d8	; 0x31d8 <__vector_15>
      40:	0c 94 46 17 	jmp	0x2e8c	; 0x2e8c <__vector_16>
      44:	0c 94 7d 17 	jmp	0x2efa	; 0x2efa <__vector_17>
      48:	0c 94 73 17 	jmp	0x2ee6	; 0x2ee6 <__vector_18>
      4c:	8b c0       	rjmp	.+278    	; 0x164 <__bad_interrupt>
      4e:	00 00       	nop
      50:	0c 94 ac 16 	jmp	0x2d58	; 0x2d58 <__vector_20>
      54:	87 c0       	rjmp	.+270    	; 0x164 <__bad_interrupt>
      56:	00 00       	nop
      58:	0c 94 78 16 	jmp	0x2cf0	; 0x2cf0 <__vector_22>
      5c:	83 c0       	rjmp	.+262    	; 0x164 <__bad_interrupt>
      5e:	00 00       	nop
      60:	81 c0       	rjmp	.+258    	; 0x164 <__bad_interrupt>
      62:	00 00       	nop
      64:	7f c0       	rjmp	.+254    	; 0x164 <__bad_interrupt>
      66:	00 00       	nop
      68:	0c 94 7f 14 	jmp	0x28fe	; 0x28fe <__vector_26>
      6c:	7b c0       	rjmp	.+246    	; 0x164 <__bad_interrupt>
      6e:	00 00       	nop
      70:	79 c0       	rjmp	.+242    	; 0x164 <__bad_interrupt>
      72:	00 00       	nop
      74:	77 c0       	rjmp	.+238    	; 0x164 <__bad_interrupt>
      76:	00 00       	nop
      78:	75 c0       	rjmp	.+234    	; 0x164 <__bad_interrupt>
      7a:	00 00       	nop
      7c:	73 c0       	rjmp	.+230    	; 0x164 <__bad_interrupt>
      7e:	00 00       	nop
      80:	71 c0       	rjmp	.+226    	; 0x164 <__bad_interrupt>
      82:	00 00       	nop
      84:	6f c0       	rjmp	.+222    	; 0x164 <__bad_interrupt>
      86:	00 00       	nop
      88:	6d c0       	rjmp	.+218    	; 0x164 <__bad_interrupt>
      8a:	00 00       	nop
      8c:	2b 0b       	sbc	r18, r27
      8e:	20 0b       	sbc	r18, r16
      90:	38 0b       	sbc	r19, r24
      92:	f4 0b       	sbc	r31, r20
      94:	11 0c       	add	r1, r1
      96:	20 0c       	add	r2, r0
      98:	8e 0c       	add	r8, r14
      9a:	a0 0c       	add	r10, r0
      9c:	60 0f       	add	r22, r16
      9e:	60 0f       	add	r22, r16
      a0:	65 0f       	add	r22, r21
      a2:	6a 0f       	add	r22, r26
      a4:	74 0f       	add	r23, r20
      a6:	79 0f       	add	r23, r25
      a8:	7e 0f       	add	r23, r30
      aa:	83 0f       	add	r24, r19
      ac:	88 0f       	add	r24, r24
      ae:	8d 0f       	add	r24, r29
      b0:	92 0f       	add	r25, r18
      b2:	97 0f       	add	r25, r23
      b4:	9c 0f       	add	r25, r28
      b6:	a1 0f       	add	r26, r17
      b8:	a6 0f       	add	r26, r22
      ba:	ab 0f       	add	r26, r27
      bc:	b0 0f       	add	r27, r16
      be:	b5 0f       	add	r27, r21
      c0:	ba 0f       	add	r27, r26
      c2:	bf 0f       	add	r27, r31
      c4:	c4 0f       	add	r28, r20
      c6:	c9 0f       	add	r28, r25
      c8:	ce 0f       	add	r28, r30
      ca:	d3 0f       	add	r29, r19
      cc:	d8 0f       	add	r29, r24
      ce:	dd 0f       	add	r29, r29
      d0:	ff 0f       	add	r31, r31
      d2:	ff 0f       	add	r31, r31
      d4:	ff 0f       	add	r31, r31
      d6:	6f 0f       	add	r22, r31
      d8:	e2 0f       	add	r30, r18
      da:	e7 0f       	add	r30, r23
      dc:	ec 0f       	add	r30, r28
      de:	f1 0f       	add	r31, r17
      e0:	18 10       	cpse	r1, r8
      e2:	18 10       	cpse	r1, r8
      e4:	1c 10       	cpse	r1, r12
      e6:	20 10       	cpse	r2, r0
      e8:	44 10       	cpse	r4, r4
      ea:	44 10       	cpse	r4, r4
      ec:	44 10       	cpse	r4, r4
      ee:	44 10       	cpse	r4, r4
      f0:	44 10       	cpse	r4, r4
      f2:	44 10       	cpse	r4, r4
      f4:	44 10       	cpse	r4, r4
      f6:	44 10       	cpse	r4, r4
      f8:	44 10       	cpse	r4, r4
      fa:	44 10       	cpse	r4, r4
      fc:	44 10       	cpse	r4, r4
      fe:	44 10       	cpse	r4, r4
     100:	44 10       	cpse	r4, r4
     102:	44 10       	cpse	r4, r4
     104:	44 10       	cpse	r4, r4
     106:	44 10       	cpse	r4, r4
     108:	44 10       	cpse	r4, r4
     10a:	44 10       	cpse	r4, r4
     10c:	44 10       	cpse	r4, r4
     10e:	24 10       	cpse	r2, r4
     110:	28 10       	cpse	r2, r8
     112:	2c 10       	cpse	r2, r12
     114:	30 10       	cpse	r3, r0
     116:	34 10       	cpse	r3, r4
     118:	38 10       	cpse	r3, r8
     11a:	07 18       	sub	r0, r7
     11c:	fc 17       	cp	r31, r28
     11e:	f1 17       	cp	r31, r17
     120:	db 17       	cp	r29, r27
     122:	e6 17       	cp	r30, r22
     124:	d0 17       	cp	r29, r16
     126:	c2 17       	cp	r28, r18

00000128 <__ctors_end>:
     128:	11 24       	eor	r1, r1
     12a:	1f be       	out	0x3f, r1	; 63
     12c:	cf ef       	ldi	r28, 0xFF	; 255
     12e:	d0 e4       	ldi	r29, 0x40	; 64
     130:	de bf       	out	0x3e, r29	; 62
     132:	cd bf       	out	0x3d, r28	; 61

00000134 <__do_copy_data>:
     134:	13 e0       	ldi	r17, 0x03	; 3
     136:	a0 e0       	ldi	r26, 0x00	; 0
     138:	b1 e0       	ldi	r27, 0x01	; 1
     13a:	e8 e1       	ldi	r30, 0x18	; 24
     13c:	f3 e3       	ldi	r31, 0x33	; 51
     13e:	00 e0       	ldi	r16, 0x00	; 0
     140:	0b bf       	out	0x3b, r16	; 59
     142:	02 c0       	rjmp	.+4      	; 0x148 <__do_copy_data+0x14>
     144:	07 90       	elpm	r0, Z+
     146:	0d 92       	st	X+, r0
     148:	aa 39       	cpi	r26, 0x9A	; 154
     14a:	b1 07       	cpc	r27, r17
     14c:	d9 f7       	brne	.-10     	; 0x144 <__do_copy_data+0x10>

0000014e <__do_clear_bss>:
     14e:	28 e0       	ldi	r18, 0x08	; 8
     150:	aa e9       	ldi	r26, 0x9A	; 154
     152:	b3 e0       	ldi	r27, 0x03	; 3
     154:	01 c0       	rjmp	.+2      	; 0x158 <.do_clear_bss_start>

00000156 <.do_clear_bss_loop>:
     156:	1d 92       	st	X+, r1

00000158 <.do_clear_bss_start>:
     158:	af 38       	cpi	r26, 0x8F	; 143
     15a:	b2 07       	cpc	r27, r18
     15c:	e1 f7       	brne	.-8      	; 0x156 <.do_clear_bss_loop>
     15e:	08 d0       	rcall	.+16     	; 0x170 <main>
     160:	0c 94 8a 19 	jmp	0x3314	; 0x3314 <_exit>

00000164 <__bad_interrupt>:
     164:	4d cf       	rjmp	.-358    	; 0x0 <__vectors>

00000166 <main_init>:
     166:	f8 94       	cli
     168:	0e 94 37 19 	call	0x326e	; 0x326e <initialization>
     16c:	78 94       	sei
     16e:	05 c0       	rjmp	.+10     	; 0x17a <LED_RED_drive_low>

00000170 <main>:
     170:	fa df       	rcall	.-12     	; 0x166 <main_init>
     172:	73 d3       	rcall	.+1766   	; 0x85a <mcu_task_controller_schedule>
     174:	c7 d3       	rcall	.+1934   	; 0x904 <mcu_task_controller_background_run>
     176:	a8 95       	wdr
     178:	fc cf       	rjmp	.-8      	; 0x172 <main+0x2>

0000017a <LED_RED_drive_low>:
     17a:	61 e0       	ldi	r22, 0x01	; 1
     17c:	80 e6       	ldi	r24, 0x60	; 96
     17e:	93 e0       	ldi	r25, 0x03	; 3
     180:	0e 94 8d 11 	call	0x231a	; 0x231a <gpio_driver_set_direction>
     184:	60 e0       	ldi	r22, 0x00	; 0
     186:	80 e6       	ldi	r24, 0x60	; 96
     188:	93 e0       	ldi	r25, 0x03	; 3
     18a:	0c 94 bf 11 	jmp	0x237e	; 0x237e <gpio_driver_set_level>

0000018e <IR_CARRIER_IN_no_pull>:
     18e:	60 e0       	ldi	r22, 0x00	; 0
     190:	8b e4       	ldi	r24, 0x4B	; 75
     192:	93 e0       	ldi	r25, 0x03	; 3
     194:	0e 94 8d 11 	call	0x231a	; 0x231a <gpio_driver_set_direction>
     198:	62 e0       	ldi	r22, 0x02	; 2
     19a:	8b e4       	ldi	r24, 0x4B	; 75
     19c:	93 e0       	ldi	r25, 0x03	; 3
     19e:	0c 94 bf 11 	jmp	0x237e	; 0x237e <gpio_driver_set_level>

000001a2 <IR_CARRIER_OUT_drive_low>:
     1a2:	61 e0       	ldi	r22, 0x01	; 1
     1a4:	85 e4       	ldi	r24, 0x45	; 69
     1a6:	93 e0       	ldi	r25, 0x03	; 3
     1a8:	0e 94 8d 11 	call	0x231a	; 0x231a <gpio_driver_set_direction>
     1ac:	60 e0       	ldi	r22, 0x00	; 0
     1ae:	85 e4       	ldi	r24, 0x45	; 69
     1b0:	93 e0       	ldi	r25, 0x03	; 3
     1b2:	0c 94 bf 11 	jmp	0x237e	; 0x237e <gpio_driver_set_level>

000001b6 <IR_MOD_OUT_drive_high>:
     1b6:	61 e0       	ldi	r22, 0x01	; 1
     1b8:	82 e4       	ldi	r24, 0x42	; 66
     1ba:	93 e0       	ldi	r25, 0x03	; 3
     1bc:	0e 94 8d 11 	call	0x231a	; 0x231a <gpio_driver_set_direction>
     1c0:	61 e0       	ldi	r22, 0x01	; 1
     1c2:	82 e4       	ldi	r24, 0x42	; 66
     1c4:	93 e0       	ldi	r25, 0x03	; 3
     1c6:	0c 94 bf 11 	jmp	0x237e	; 0x237e <gpio_driver_set_level>

000001ca <IR_MOD_OUT_drive_low>:
     1ca:	61 e0       	ldi	r22, 0x01	; 1
     1cc:	82 e4       	ldi	r24, 0x42	; 66
     1ce:	93 e0       	ldi	r25, 0x03	; 3
     1d0:	0e 94 8d 11 	call	0x231a	; 0x231a <gpio_driver_set_direction>
     1d4:	60 e0       	ldi	r22, 0x00	; 0
     1d6:	82 e4       	ldi	r24, 0x42	; 66
     1d8:	93 e0       	ldi	r25, 0x03	; 3
     1da:	0c 94 bf 11 	jmp	0x237e	; 0x237e <gpio_driver_set_level>

000001de <I2C_SCL_drive_high>:
     1de:	61 e0       	ldi	r22, 0x01	; 1
     1e0:	86 e3       	ldi	r24, 0x36	; 54
     1e2:	93 e0       	ldi	r25, 0x03	; 3
     1e4:	0e 94 8d 11 	call	0x231a	; 0x231a <gpio_driver_set_direction>
     1e8:	61 e0       	ldi	r22, 0x01	; 1
     1ea:	86 e3       	ldi	r24, 0x36	; 54
     1ec:	93 e0       	ldi	r25, 0x03	; 3
     1ee:	0c 94 bf 11 	jmp	0x237e	; 0x237e <gpio_driver_set_level>

000001f2 <I2C_SCL_pull_up>:
     1f2:	60 e0       	ldi	r22, 0x00	; 0
     1f4:	86 e3       	ldi	r24, 0x36	; 54
     1f6:	93 e0       	ldi	r25, 0x03	; 3
     1f8:	0e 94 8d 11 	call	0x231a	; 0x231a <gpio_driver_set_direction>
     1fc:	61 e0       	ldi	r22, 0x01	; 1
     1fe:	86 e3       	ldi	r24, 0x36	; 54
     200:	93 e0       	ldi	r25, 0x03	; 3
     202:	0c 94 bf 11 	jmp	0x237e	; 0x237e <gpio_driver_set_level>

00000206 <I2C_SCL_no_pull>:
     206:	60 e0       	ldi	r22, 0x00	; 0
     208:	86 e3       	ldi	r24, 0x36	; 54
     20a:	93 e0       	ldi	r25, 0x03	; 3
     20c:	0e 94 8d 11 	call	0x231a	; 0x231a <gpio_driver_set_direction>
     210:	62 e0       	ldi	r22, 0x02	; 2
     212:	86 e3       	ldi	r24, 0x36	; 54
     214:	93 e0       	ldi	r25, 0x03	; 3
     216:	0c 94 bf 11 	jmp	0x237e	; 0x237e <gpio_driver_set_level>

0000021a <I2C_SDA_drive_high>:
     21a:	61 e0       	ldi	r22, 0x01	; 1
     21c:	83 e3       	ldi	r24, 0x33	; 51
     21e:	93 e0       	ldi	r25, 0x03	; 3
     220:	0e 94 8d 11 	call	0x231a	; 0x231a <gpio_driver_set_direction>
     224:	61 e0       	ldi	r22, 0x01	; 1
     226:	83 e3       	ldi	r24, 0x33	; 51
     228:	93 e0       	ldi	r25, 0x03	; 3
     22a:	0c 94 bf 11 	jmp	0x237e	; 0x237e <gpio_driver_set_level>

0000022e <I2C_SDA_pull_up>:
     22e:	60 e0       	ldi	r22, 0x00	; 0
     230:	83 e3       	ldi	r24, 0x33	; 51
     232:	93 e0       	ldi	r25, 0x03	; 3
     234:	0e 94 8d 11 	call	0x231a	; 0x231a <gpio_driver_set_direction>
     238:	61 e0       	ldi	r22, 0x01	; 1
     23a:	83 e3       	ldi	r24, 0x33	; 51
     23c:	93 e0       	ldi	r25, 0x03	; 3
     23e:	0c 94 bf 11 	jmp	0x237e	; 0x237e <gpio_driver_set_level>

00000242 <I2C_SDA_no_pull>:
     242:	60 e0       	ldi	r22, 0x00	; 0
     244:	83 e3       	ldi	r24, 0x33	; 51
     246:	93 e0       	ldi	r25, 0x03	; 3
     248:	0e 94 8d 11 	call	0x231a	; 0x231a <gpio_driver_set_direction>
     24c:	62 e0       	ldi	r22, 0x02	; 2
     24e:	83 e3       	ldi	r24, 0x33	; 51
     250:	93 e0       	ldi	r25, 0x03	; 3
     252:	0c 94 bf 11 	jmp	0x237e	; 0x237e <gpio_driver_set_level>

00000256 <module_status_set_u8>:
     256:	fc 01       	movw	r30, r24
     258:	20 81       	ld	r18, Z
     25a:	62 2b       	or	r22, r18
     25c:	60 83       	st	Z, r22
     25e:	08 95       	ret

00000260 <module_status_isset_u8>:
     260:	fc 01       	movw	r30, r24
     262:	80 81       	ld	r24, Z
     264:	68 23       	and	r22, r24
     266:	81 e0       	ldi	r24, 0x01	; 1
     268:	09 f4       	brne	.+2      	; 0x26c <module_status_isset_u8+0xc>
     26a:	80 e0       	ldi	r24, 0x00	; 0
     26c:	08 95       	ret

0000026e <module_status_unset_u8>:
     26e:	60 95       	com	r22
     270:	fc 01       	movw	r30, r24
     272:	20 81       	ld	r18, Z
     274:	62 23       	and	r22, r18
     276:	60 83       	st	Z, r22
     278:	08 95       	ret

0000027a <module_status_clear_all_u8>:
     27a:	fc 01       	movw	r30, r24
     27c:	10 82       	st	Z, r1
     27e:	08 95       	ret

00000280 <module_status_set_u16>:
     280:	fc 01       	movw	r30, r24
     282:	20 81       	ld	r18, Z
     284:	31 81       	ldd	r19, Z+1	; 0x01
     286:	62 2b       	or	r22, r18
     288:	73 2b       	or	r23, r19
     28a:	71 83       	std	Z+1, r23	; 0x01
     28c:	60 83       	st	Z, r22
     28e:	08 95       	ret

00000290 <module_status_isset_u16>:
     290:	fc 01       	movw	r30, r24
     292:	80 81       	ld	r24, Z
     294:	91 81       	ldd	r25, Z+1	; 0x01
     296:	68 23       	and	r22, r24
     298:	79 23       	and	r23, r25
     29a:	81 e0       	ldi	r24, 0x01	; 1
     29c:	90 e0       	ldi	r25, 0x00	; 0
     29e:	67 2b       	or	r22, r23
     2a0:	11 f4       	brne	.+4      	; 0x2a6 <module_status_isset_u16+0x16>
     2a2:	80 e0       	ldi	r24, 0x00	; 0
     2a4:	90 e0       	ldi	r25, 0x00	; 0
     2a6:	08 95       	ret

000002a8 <module_status_unset_u16>:
     2a8:	60 95       	com	r22
     2aa:	70 95       	com	r23
     2ac:	fc 01       	movw	r30, r24
     2ae:	20 81       	ld	r18, Z
     2b0:	31 81       	ldd	r19, Z+1	; 0x01
     2b2:	62 23       	and	r22, r18
     2b4:	73 23       	and	r23, r19
     2b6:	71 83       	std	Z+1, r23	; 0x01
     2b8:	60 83       	st	Z, r22
     2ba:	08 95       	ret

000002bc <module_status_clear_all_u16>:
     2bc:	fc 01       	movw	r30, r24
     2be:	11 82       	std	Z+1, r1	; 0x01
     2c0:	10 82       	st	Z, r1
     2c2:	08 95       	ret

000002c4 <mutex_request>:
     2c4:	fc 01       	movw	r30, r24
     2c6:	81 81       	ldd	r24, Z+1	; 0x01
     2c8:	81 11       	cpse	r24, r1
     2ca:	09 c0       	rjmp	.+18     	; 0x2de <mutex_request+0x1a>
     2cc:	80 81       	ld	r24, Z
     2ce:	81 11       	cpse	r24, r1
     2d0:	02 c0       	rjmp	.+4      	; 0x2d6 <mutex_request+0x12>
     2d2:	81 e0       	ldi	r24, 0x01	; 1
     2d4:	80 83       	st	Z, r24
     2d6:	81 e0       	ldi	r24, 0x01	; 1
     2d8:	81 83       	std	Z+1, r24	; 0x01
     2da:	80 81       	ld	r24, Z
     2dc:	08 95       	ret
     2de:	80 e0       	ldi	r24, 0x00	; 0
     2e0:	08 95       	ret

000002e2 <mutex_release>:
     2e2:	fc 01       	movw	r30, r24
     2e4:	81 81       	ldd	r24, Z+1	; 0x01
     2e6:	88 23       	and	r24, r24
     2e8:	51 f0       	breq	.+20     	; 0x2fe <mutex_release+0x1c>
     2ea:	80 81       	ld	r24, Z
     2ec:	86 13       	cpse	r24, r22
     2ee:	07 c0       	rjmp	.+14     	; 0x2fe <mutex_release+0x1c>
     2f0:	8e 3f       	cpi	r24, 0xFE	; 254
     2f2:	11 f4       	brne	.+4      	; 0x2f8 <mutex_release+0x16>
     2f4:	81 e0       	ldi	r24, 0x01	; 1
     2f6:	01 c0       	rjmp	.+2      	; 0x2fa <mutex_release+0x18>
     2f8:	8f 5f       	subi	r24, 0xFF	; 255
     2fa:	80 83       	st	Z, r24
     2fc:	11 82       	std	Z+1, r1	; 0x01
     2fe:	08 95       	ret

00000300 <mutex_is_requested>:
     300:	21 e0       	ldi	r18, 0x01	; 1
     302:	fc 01       	movw	r30, r24
     304:	81 81       	ldd	r24, Z+1	; 0x01
     306:	81 11       	cpse	r24, r1
     308:	01 c0       	rjmp	.+2      	; 0x30c <mutex_is_requested+0xc>
     30a:	20 e0       	ldi	r18, 0x00	; 0
     30c:	82 2f       	mov	r24, r18
     30e:	08 95       	ret

00000310 <local_msg_buffer_init>:
     310:	fc 01       	movw	r30, r24
     312:	12 86       	std	Z+10, r1	; 0x0a
     314:	13 82       	std	Z+3, r1	; 0x03
     316:	12 82       	std	Z+2, r1	; 0x02
     318:	15 82       	std	Z+5, r1	; 0x05
     31a:	14 82       	std	Z+4, r1	; 0x04
     31c:	17 82       	std	Z+7, r1	; 0x07
     31e:	16 82       	std	Z+6, r1	; 0x06
     320:	08 95       	ret

00000322 <local_msg_buffer_start_write>:
     322:	fc 01       	movw	r30, r24
     324:	92 85       	ldd	r25, Z+10	; 0x0a
     326:	89 2f       	mov	r24, r25
     328:	82 70       	andi	r24, 0x02	; 2
     32a:	91 ff       	sbrs	r25, 1
     32c:	04 c0       	rjmp	.+8      	; 0x336 <local_msg_buffer_start_write+0x14>
     32e:	82 85       	ldd	r24, Z+10	; 0x0a
     330:	82 60       	ori	r24, 0x02	; 2
     332:	82 87       	std	Z+10, r24	; 0x0a
     334:	81 e0       	ldi	r24, 0x01	; 1
     336:	08 95       	ret

00000338 <local_msg_buffer_add_byte>:
     338:	fc 01       	movw	r30, r24
     33a:	82 85       	ldd	r24, Z+10	; 0x0a
     33c:	26 81       	ldd	r18, Z+6	; 0x06
     33e:	37 81       	ldd	r19, Z+7	; 0x07
     340:	80 85       	ldd	r24, Z+8	; 0x08
     342:	91 85       	ldd	r25, Z+9	; 0x09
     344:	28 17       	cp	r18, r24
     346:	39 07       	cpc	r19, r25
     348:	d1 f0       	breq	.+52     	; 0x37e <local_msg_buffer_add_byte+0x46>
     34a:	84 81       	ldd	r24, Z+4	; 0x04
     34c:	95 81       	ldd	r25, Z+5	; 0x05
     34e:	a0 81       	ld	r26, Z
     350:	b1 81       	ldd	r27, Z+1	; 0x01
     352:	a8 0f       	add	r26, r24
     354:	b9 1f       	adc	r27, r25
     356:	6c 93       	st	X, r22
     358:	84 81       	ldd	r24, Z+4	; 0x04
     35a:	95 81       	ldd	r25, Z+5	; 0x05
     35c:	01 96       	adiw	r24, 0x01	; 1
     35e:	95 83       	std	Z+5, r25	; 0x05
     360:	84 83       	std	Z+4, r24	; 0x04
     362:	86 81       	ldd	r24, Z+6	; 0x06
     364:	97 81       	ldd	r25, Z+7	; 0x07
     366:	01 96       	adiw	r24, 0x01	; 1
     368:	97 83       	std	Z+7, r25	; 0x07
     36a:	86 83       	std	Z+6, r24	; 0x06
     36c:	24 81       	ldd	r18, Z+4	; 0x04
     36e:	35 81       	ldd	r19, Z+5	; 0x05
     370:	80 85       	ldd	r24, Z+8	; 0x08
     372:	91 85       	ldd	r25, Z+9	; 0x09
     374:	28 17       	cp	r18, r24
     376:	39 07       	cpc	r19, r25
     378:	11 f4       	brne	.+4      	; 0x37e <local_msg_buffer_add_byte+0x46>
     37a:	15 82       	std	Z+5, r1	; 0x05
     37c:	14 82       	std	Z+4, r1	; 0x04
     37e:	08 95       	ret

00000380 <local_msg_buffer_add_word>:
     380:	1f 93       	push	r17
     382:	cf 93       	push	r28
     384:	df 93       	push	r29
     386:	ec 01       	movw	r28, r24
     388:	17 2f       	mov	r17, r23
     38a:	d6 df       	rcall	.-84     	; 0x338 <local_msg_buffer_add_byte>
     38c:	61 2f       	mov	r22, r17
     38e:	ce 01       	movw	r24, r28
     390:	d3 df       	rcall	.-90     	; 0x338 <local_msg_buffer_add_byte>
     392:	df 91       	pop	r29
     394:	cf 91       	pop	r28
     396:	1f 91       	pop	r17
     398:	08 95       	ret

0000039a <local_msg_buffer_add_long>:
     39a:	cf 92       	push	r12
     39c:	df 92       	push	r13
     39e:	ef 92       	push	r14
     3a0:	ff 92       	push	r15
     3a2:	cf 93       	push	r28
     3a4:	df 93       	push	r29
     3a6:	ec 01       	movw	r28, r24
     3a8:	6a 01       	movw	r12, r20
     3aa:	7b 01       	movw	r14, r22
     3ac:	64 2f       	mov	r22, r20
     3ae:	c4 df       	rcall	.-120    	; 0x338 <local_msg_buffer_add_byte>
     3b0:	99 27       	eor	r25, r25
     3b2:	8f 2d       	mov	r24, r15
     3b4:	7e 2d       	mov	r23, r14
     3b6:	6d 2d       	mov	r22, r13
     3b8:	ce 01       	movw	r24, r28
     3ba:	be df       	rcall	.-132    	; 0x338 <local_msg_buffer_add_byte>
     3bc:	b7 01       	movw	r22, r14
     3be:	88 27       	eor	r24, r24
     3c0:	99 27       	eor	r25, r25
     3c2:	ce 01       	movw	r24, r28
     3c4:	b9 df       	rcall	.-142    	; 0x338 <local_msg_buffer_add_byte>
     3c6:	6f 2d       	mov	r22, r15
     3c8:	77 27       	eor	r23, r23
     3ca:	88 27       	eor	r24, r24
     3cc:	99 27       	eor	r25, r25
     3ce:	ce 01       	movw	r24, r28
     3d0:	b3 df       	rcall	.-154    	; 0x338 <local_msg_buffer_add_byte>
     3d2:	df 91       	pop	r29
     3d4:	cf 91       	pop	r28
     3d6:	ff 90       	pop	r15
     3d8:	ef 90       	pop	r14
     3da:	df 90       	pop	r13
     3dc:	cf 90       	pop	r12
     3de:	08 95       	ret

000003e0 <local_msg_buffer_add_N_bytes>:
     3e0:	ef 92       	push	r14
     3e2:	ff 92       	push	r15
     3e4:	0f 93       	push	r16
     3e6:	1f 93       	push	r17
     3e8:	cf 93       	push	r28
     3ea:	df 93       	push	r29
     3ec:	7c 01       	movw	r14, r24
     3ee:	ea 01       	movw	r28, r20
     3f0:	8a 01       	movw	r16, r20
     3f2:	06 0f       	add	r16, r22
     3f4:	17 1f       	adc	r17, r23
     3f6:	c0 17       	cp	r28, r16
     3f8:	d1 07       	cpc	r29, r17
     3fa:	21 f0       	breq	.+8      	; 0x404 <__LOCK_REGION_LENGTH__+0x4>
     3fc:	69 91       	ld	r22, Y+
     3fe:	c7 01       	movw	r24, r14
     400:	9b df       	rcall	.-202    	; 0x338 <local_msg_buffer_add_byte>
     402:	f9 cf       	rjmp	.-14     	; 0x3f6 <local_msg_buffer_add_N_bytes+0x16>
     404:	cd b7       	in	r28, 0x3d	; 61
     406:	de b7       	in	r29, 0x3e	; 62
     408:	e6 e0       	ldi	r30, 0x06	; 6
     40a:	0c 94 7b 19 	jmp	0x32f6	; 0x32f6 <__epilogue_restores__+0x18>

0000040e <local_msg_buffer_stop_write>:
     40e:	fc 01       	movw	r30, r24
     410:	92 85       	ldd	r25, Z+10	; 0x0a
     412:	9d 7f       	andi	r25, 0xFD	; 253
     414:	92 87       	std	Z+10, r25	; 0x0a
     416:	08 95       	ret

00000418 <local_msg_buffer_start_read>:
     418:	fc 01       	movw	r30, r24
     41a:	92 85       	ldd	r25, Z+10	; 0x0a
     41c:	89 2f       	mov	r24, r25
     41e:	81 70       	andi	r24, 0x01	; 1
     420:	90 ff       	sbrs	r25, 0
     422:	04 c0       	rjmp	.+8      	; 0x42c <local_msg_buffer_start_read+0x14>
     424:	82 85       	ldd	r24, Z+10	; 0x0a
     426:	81 60       	ori	r24, 0x01	; 1
     428:	82 87       	std	Z+10, r24	; 0x0a
     42a:	81 e0       	ldi	r24, 0x01	; 1
     42c:	08 95       	ret

0000042e <local_msg_buffer_bytes_available>:
     42e:	fc 01       	movw	r30, r24
     430:	86 81       	ldd	r24, Z+6	; 0x06
     432:	97 81       	ldd	r25, Z+7	; 0x07
     434:	08 95       	ret

00000436 <local_msg_buffer_bytes_free>:
     436:	fc 01       	movw	r30, r24
     438:	26 81       	ldd	r18, Z+6	; 0x06
     43a:	37 81       	ldd	r19, Z+7	; 0x07
     43c:	80 85       	ldd	r24, Z+8	; 0x08
     43e:	91 85       	ldd	r25, Z+9	; 0x09
     440:	82 1b       	sub	r24, r18
     442:	93 0b       	sbc	r25, r19
     444:	08 95       	ret

00000446 <local_msg_buffer_get_byte>:
     446:	fc 01       	movw	r30, r24
     448:	82 85       	ldd	r24, Z+10	; 0x0a
     44a:	86 81       	ldd	r24, Z+6	; 0x06
     44c:	97 81       	ldd	r25, Z+7	; 0x07
     44e:	89 2b       	or	r24, r25
     450:	e9 f0       	breq	.+58     	; 0x48c <local_msg_buffer_get_byte+0x46>
     452:	82 81       	ldd	r24, Z+2	; 0x02
     454:	93 81       	ldd	r25, Z+3	; 0x03
     456:	a0 81       	ld	r26, Z
     458:	b1 81       	ldd	r27, Z+1	; 0x01
     45a:	a8 0f       	add	r26, r24
     45c:	b9 1f       	adc	r27, r25
     45e:	8c 91       	ld	r24, X
     460:	22 81       	ldd	r18, Z+2	; 0x02
     462:	33 81       	ldd	r19, Z+3	; 0x03
     464:	2f 5f       	subi	r18, 0xFF	; 255
     466:	3f 4f       	sbci	r19, 0xFF	; 255
     468:	33 83       	std	Z+3, r19	; 0x03
     46a:	22 83       	std	Z+2, r18	; 0x02
     46c:	26 81       	ldd	r18, Z+6	; 0x06
     46e:	37 81       	ldd	r19, Z+7	; 0x07
     470:	21 50       	subi	r18, 0x01	; 1
     472:	31 09       	sbc	r19, r1
     474:	37 83       	std	Z+7, r19	; 0x07
     476:	26 83       	std	Z+6, r18	; 0x06
     478:	42 81       	ldd	r20, Z+2	; 0x02
     47a:	53 81       	ldd	r21, Z+3	; 0x03
     47c:	20 85       	ldd	r18, Z+8	; 0x08
     47e:	31 85       	ldd	r19, Z+9	; 0x09
     480:	42 17       	cp	r20, r18
     482:	53 07       	cpc	r21, r19
     484:	21 f4       	brne	.+8      	; 0x48e <local_msg_buffer_get_byte+0x48>
     486:	13 82       	std	Z+3, r1	; 0x03
     488:	12 82       	std	Z+2, r1	; 0x02
     48a:	08 95       	ret
     48c:	80 e0       	ldi	r24, 0x00	; 0
     48e:	08 95       	ret

00000490 <local_msg_buffer_get_word>:
     490:	0f 93       	push	r16
     492:	1f 93       	push	r17
     494:	cf 93       	push	r28
     496:	df 93       	push	r29
     498:	8c 01       	movw	r16, r24
     49a:	d5 df       	rcall	.-86     	; 0x446 <local_msg_buffer_get_byte>
     49c:	c8 2f       	mov	r28, r24
     49e:	d0 e0       	ldi	r29, 0x00	; 0
     4a0:	c8 01       	movw	r24, r16
     4a2:	d1 df       	rcall	.-94     	; 0x446 <local_msg_buffer_get_byte>
     4a4:	9e 01       	movw	r18, r28
     4a6:	38 2b       	or	r19, r24
     4a8:	c9 01       	movw	r24, r18
     4aa:	df 91       	pop	r29
     4ac:	cf 91       	pop	r28
     4ae:	1f 91       	pop	r17
     4b0:	0f 91       	pop	r16
     4b2:	08 95       	ret

000004b4 <local_msg_buffer_get_long>:
     4b4:	cf 92       	push	r12
     4b6:	df 92       	push	r13
     4b8:	ef 92       	push	r14
     4ba:	ff 92       	push	r15
     4bc:	1f 93       	push	r17
     4be:	cf 93       	push	r28
     4c0:	df 93       	push	r29
     4c2:	ec 01       	movw	r28, r24
     4c4:	c0 df       	rcall	.-128    	; 0x446 <local_msg_buffer_get_byte>
     4c6:	c8 2e       	mov	r12, r24
     4c8:	d1 2c       	mov	r13, r1
     4ca:	e1 2c       	mov	r14, r1
     4cc:	f1 2c       	mov	r15, r1
     4ce:	ce 01       	movw	r24, r28
     4d0:	ba df       	rcall	.-140    	; 0x446 <local_msg_buffer_get_byte>
     4d2:	18 2f       	mov	r17, r24
     4d4:	ce 01       	movw	r24, r28
     4d6:	b7 df       	rcall	.-146    	; 0x446 <local_msg_buffer_get_byte>
     4d8:	90 e0       	ldi	r25, 0x00	; 0
     4da:	a0 e0       	ldi	r26, 0x00	; 0
     4dc:	b0 e0       	ldi	r27, 0x00	; 0
     4de:	dc 01       	movw	r26, r24
     4e0:	99 27       	eor	r25, r25
     4e2:	88 27       	eor	r24, r24
     4e4:	91 2b       	or	r25, r17
     4e6:	c8 2a       	or	r12, r24
     4e8:	d9 2a       	or	r13, r25
     4ea:	ea 2a       	or	r14, r26
     4ec:	fb 2a       	or	r15, r27
     4ee:	ce 01       	movw	r24, r28
     4f0:	aa df       	rcall	.-172    	; 0x446 <local_msg_buffer_get_byte>
     4f2:	a7 01       	movw	r20, r14
     4f4:	96 01       	movw	r18, r12
     4f6:	58 2b       	or	r21, r24
     4f8:	ca 01       	movw	r24, r20
     4fa:	b9 01       	movw	r22, r18
     4fc:	df 91       	pop	r29
     4fe:	cf 91       	pop	r28
     500:	1f 91       	pop	r17
     502:	ff 90       	pop	r15
     504:	ef 90       	pop	r14
     506:	df 90       	pop	r13
     508:	cf 90       	pop	r12
     50a:	08 95       	ret

0000050c <local_msg_buffer_get_N_bytes>:
     50c:	a0 e0       	ldi	r26, 0x00	; 0
     50e:	b0 e0       	ldi	r27, 0x00	; 0
     510:	ec e8       	ldi	r30, 0x8C	; 140
     512:	f2 e0       	ldi	r31, 0x02	; 2
     514:	0c 94 5d 19 	jmp	0x32ba	; 0x32ba <__prologue_saves__+0x14>
     518:	6c 01       	movw	r12, r24
     51a:	8b 01       	movw	r16, r22
     51c:	7a 01       	movw	r14, r20
     51e:	c0 e0       	ldi	r28, 0x00	; 0
     520:	d0 e0       	ldi	r29, 0x00	; 0
     522:	c0 17       	cp	r28, r16
     524:	d1 07       	cpc	r29, r17
     526:	71 f0       	breq	.+28     	; 0x544 <local_msg_buffer_get_N_bytes+0x38>
     528:	f6 01       	movw	r30, r12
     52a:	86 81       	ldd	r24, Z+6	; 0x06
     52c:	97 81       	ldd	r25, Z+7	; 0x07
     52e:	89 2b       	or	r24, r25
     530:	11 f4       	brne	.+4      	; 0x536 <local_msg_buffer_get_N_bytes+0x2a>
     532:	8e 01       	movw	r16, r28
     534:	07 c0       	rjmp	.+14     	; 0x544 <local_msg_buffer_get_N_bytes+0x38>
     536:	c6 01       	movw	r24, r12
     538:	86 df       	rcall	.-244    	; 0x446 <local_msg_buffer_get_byte>
     53a:	f7 01       	movw	r30, r14
     53c:	81 93       	st	Z+, r24
     53e:	7f 01       	movw	r14, r30
     540:	21 96       	adiw	r28, 0x01	; 1
     542:	ef cf       	rjmp	.-34     	; 0x522 <local_msg_buffer_get_N_bytes+0x16>
     544:	c8 01       	movw	r24, r16
     546:	cd b7       	in	r28, 0x3d	; 61
     548:	de b7       	in	r29, 0x3e	; 62
     54a:	e8 e0       	ldi	r30, 0x08	; 8
     54c:	0c 94 79 19 	jmp	0x32f2	; 0x32f2 <__epilogue_restores__+0x14>

00000550 <local_msg_buffer_stop_read>:
     550:	fc 01       	movw	r30, r24
     552:	92 85       	ldd	r25, Z+10	; 0x0a
     554:	9e 7f       	andi	r25, 0xFE	; 254
     556:	92 87       	std	Z+10, r25	; 0x0a
     558:	08 95       	ret

0000055a <local_msg_buffer_clear_all>:
     55a:	fc 01       	movw	r30, r24
     55c:	13 82       	std	Z+3, r1	; 0x03
     55e:	12 82       	std	Z+2, r1	; 0x02
     560:	15 82       	std	Z+5, r1	; 0x05
     562:	14 82       	std	Z+4, r1	; 0x04
     564:	17 82       	std	Z+7, r1	; 0x07
     566:	16 82       	std	Z+6, r1	; 0x06
     568:	08 95       	ret

0000056a <signal_slot_init>:
     56a:	25 e0       	ldi	r18, 0x05	; 5
     56c:	30 e0       	ldi	r19, 0x00	; 0
     56e:	fc 01       	movw	r30, r24
     570:	33 83       	std	Z+3, r19	; 0x03
     572:	22 83       	std	Z+2, r18	; 0x02
     574:	11 82       	std	Z+1, r1	; 0x01
     576:	10 82       	st	Z, r1
     578:	08 95       	ret

0000057a <signal_slot_send>:
     57a:	ef 92       	push	r14
     57c:	ff 92       	push	r15
     57e:	0f 93       	push	r16
     580:	1f 93       	push	r17
     582:	cf 93       	push	r28
     584:	df 93       	push	r29
     586:	ec 01       	movw	r28, r24
     588:	7b 01       	movw	r14, r22
     58a:	6a 81       	ldd	r22, Y+2	; 0x02
     58c:	7b 81       	ldd	r23, Y+3	; 0x03
     58e:	61 15       	cp	r22, r1
     590:	71 05       	cpc	r23, r1
     592:	51 f4       	brne	.+20     	; 0x5a8 <signal_slot_send+0x2e>
     594:	80 91 9a 03 	lds	r24, 0x039A	; 0x80039a <__data_end>
     598:	81 11       	cpse	r24, r1
     59a:	1e c0       	rjmp	.+60     	; 0x5d8 <signal_slot_send+0x5e>
     59c:	81 e0       	ldi	r24, 0x01	; 1
     59e:	80 93 9a 03 	sts	0x039A, r24	; 0x80039a <__data_end>
     5a2:	0c 81       	ldd	r16, Y+4	; 0x04
     5a4:	1d 81       	ldd	r17, Y+5	; 0x05
     5a6:	10 c0       	rjmp	.+32     	; 0x5c8 <signal_slot_send+0x4e>
     5a8:	88 81       	ld	r24, Y
     5aa:	99 81       	ldd	r25, Y+1	; 0x01
     5ac:	7d d0       	rcall	.+250    	; 0x6a8 <time_mgmnt_istimeup_raw_u16>
     5ae:	81 11       	cpse	r24, r1
     5b0:	f1 cf       	rjmp	.-30     	; 0x594 <signal_slot_send+0x1a>
     5b2:	12 c0       	rjmp	.+36     	; 0x5d8 <signal_slot_send+0x5e>
     5b4:	d8 01       	movw	r26, r16
     5b6:	ed 91       	ld	r30, X+
     5b8:	fc 91       	ld	r31, X
     5ba:	30 97       	sbiw	r30, 0x00	; 0
     5bc:	11 f0       	breq	.+4      	; 0x5c2 <signal_slot_send+0x48>
     5be:	c7 01       	movw	r24, r14
     5c0:	09 95       	icall
     5c2:	f8 01       	movw	r30, r16
     5c4:	02 81       	ldd	r16, Z+2	; 0x02
     5c6:	13 81       	ldd	r17, Z+3	; 0x03
     5c8:	01 15       	cp	r16, r1
     5ca:	11 05       	cpc	r17, r1
     5cc:	99 f7       	brne	.-26     	; 0x5b4 <signal_slot_send+0x3a>
     5ce:	44 d0       	rcall	.+136    	; 0x658 <time_mgmnt_gettime_u16>
     5d0:	99 83       	std	Y+1, r25	; 0x01
     5d2:	88 83       	st	Y, r24
     5d4:	10 92 9a 03 	sts	0x039A, r1	; 0x80039a <__data_end>
     5d8:	cd b7       	in	r28, 0x3d	; 61
     5da:	de b7       	in	r29, 0x3e	; 62
     5dc:	e6 e0       	ldi	r30, 0x06	; 6
     5de:	0c 94 7b 19 	jmp	0x32f6	; 0x32f6 <__epilogue_restores__+0x18>

000005e2 <signal_slot_connect>:
     5e2:	dc 01       	movw	r26, r24
     5e4:	14 96       	adiw	r26, 0x04	; 4
     5e6:	ed 91       	ld	r30, X+
     5e8:	fc 91       	ld	r31, X
     5ea:	15 97       	sbiw	r26, 0x05	; 5
     5ec:	30 97       	sbiw	r30, 0x00	; 0
     5ee:	29 f4       	brne	.+10     	; 0x5fa <signal_slot_connect+0x18>
     5f0:	15 96       	adiw	r26, 0x05	; 5
     5f2:	7c 93       	st	X, r23
     5f4:	6e 93       	st	-X, r22
     5f6:	14 97       	sbiw	r26, 0x04	; 4
     5f8:	08 95       	ret
     5fa:	82 81       	ldd	r24, Z+2	; 0x02
     5fc:	93 81       	ldd	r25, Z+3	; 0x03
     5fe:	00 97       	sbiw	r24, 0x00	; 0
     600:	11 f0       	breq	.+4      	; 0x606 <signal_slot_connect+0x24>
     602:	fc 01       	movw	r30, r24
     604:	fa cf       	rjmp	.-12     	; 0x5fa <signal_slot_connect+0x18>
     606:	73 83       	std	Z+3, r23	; 0x03
     608:	62 83       	std	Z+2, r22	; 0x02
     60a:	fb 01       	movw	r30, r22
     60c:	13 82       	std	Z+3, r1	; 0x03
     60e:	12 82       	std	Z+2, r1	; 0x02
     610:	08 95       	ret

00000612 <empty_driver_configure>:
     612:	08 95       	ret

00000614 <empty_driver_start_rx>:
     614:	08 95       	ret

00000616 <empty_driver_wait_for_tx>:
     616:	08 95       	ret

00000618 <empty_driver_clear_tx_buffer>:
     618:	08 95       	ret

0000061a <empty_driver_mutex_release>:
     61a:	08 95       	ret

0000061c <__system_interface_progmem_get_byte>:
     61c:	80 e0       	ldi	r24, 0x00	; 0
     61e:	08 95       	ret

00000620 <__system_interface_progmem_get_word>:
     620:	80 e0       	ldi	r24, 0x00	; 0
     622:	90 e0       	ldi	r25, 0x00	; 0
     624:	08 95       	ret

00000626 <__system_interface_progmem_get_long>:
     626:	60 e0       	ldi	r22, 0x00	; 0
     628:	70 e0       	ldi	r23, 0x00	; 0
     62a:	cb 01       	movw	r24, r22
     62c:	08 95       	ret

0000062e <__system_interface_progmem_get_N_bytes>:
     62e:	08 95       	ret

00000630 <empty_driver_set_N_bytes>:
     630:	80 e0       	ldi	r24, 0x00	; 0
     632:	08 95       	ret

00000634 <empty_driver_get_N_bytes>:
     634:	80 e0       	ldi	r24, 0x00	; 0
     636:	08 95       	ret

00000638 <empty_driver_wait_for_rx>:
     638:	08 95       	ret

0000063a <empty_driver_is_ready_for_rx>:
     63a:	80 e0       	ldi	r24, 0x00	; 0
     63c:	08 95       	ret

0000063e <empty_driver_is_ready_for_tx>:
     63e:	80 e0       	ldi	r24, 0x00	; 0
     640:	08 95       	ret

00000642 <empty_driver_bytes_available>:
     642:	80 e0       	ldi	r24, 0x00	; 0
     644:	08 95       	ret

00000646 <empty_driver_set_address>:
     646:	08 95       	ret

00000648 <empty_driver_mutex_request>:
     648:	80 e0       	ldi	r24, 0x00	; 0
     64a:	08 95       	ret

0000064c <empty_driver_stop_tx>:
     64c:	08 95       	ret

0000064e <empty_driver_clear_rx_buffer>:
     64e:	08 95       	ret

00000650 <empty_driver_stop_rx>:
     650:	08 95       	ret

00000652 <empty_driver_start_tx>:
     652:	08 95       	ret

00000654 <empty_driver_initialize>:
     654:	08 95       	ret

00000656 <empty_driver_power_off>:
     656:	08 95       	ret

00000658 <time_mgmnt_gettime_u16>:
     658:	0c 94 06 11 	jmp	0x220c	; 0x220c <local_rtc_timer_gettime_u16>
     65c:	08 95       	ret

0000065e <time_mgmnt_start_u8>:
     65e:	cf 93       	push	r28
     660:	df 93       	push	r29
     662:	ec 01       	movw	r28, r24
     664:	0e 94 03 11 	call	0x2206	; 0x2206 <local_rtc_timer_gettime_u8>
     668:	89 83       	std	Y+1, r24	; 0x01
     66a:	81 e0       	ldi	r24, 0x01	; 1
     66c:	88 83       	st	Y, r24
     66e:	df 91       	pop	r29
     670:	cf 91       	pop	r28
     672:	08 95       	ret

00000674 <time_mgmnt_start_u16>:
     674:	cf 93       	push	r28
     676:	df 93       	push	r29
     678:	ec 01       	movw	r28, r24
     67a:	0e 94 06 11 	call	0x220c	; 0x220c <local_rtc_timer_gettime_u16>
     67e:	9a 83       	std	Y+2, r25	; 0x02
     680:	89 83       	std	Y+1, r24	; 0x01
     682:	81 e0       	ldi	r24, 0x01	; 1
     684:	88 83       	st	Y, r24
     686:	df 91       	pop	r29
     688:	cf 91       	pop	r28
     68a:	08 95       	ret

0000068c <time_mgmnt_start_u32>:
     68c:	cf 93       	push	r28
     68e:	df 93       	push	r29
     690:	ec 01       	movw	r28, r24
     692:	0e 94 de 10 	call	0x21bc	; 0x21bc <local_rtc_timer_gettime_u32>
     696:	69 83       	std	Y+1, r22	; 0x01
     698:	7a 83       	std	Y+2, r23	; 0x02
     69a:	8b 83       	std	Y+3, r24	; 0x03
     69c:	9c 83       	std	Y+4, r25	; 0x04
     69e:	81 e0       	ldi	r24, 0x01	; 1
     6a0:	88 83       	st	Y, r24
     6a2:	df 91       	pop	r29
     6a4:	cf 91       	pop	r28
     6a6:	08 95       	ret

000006a8 <time_mgmnt_istimeup_raw_u16>:
     6a8:	0f 93       	push	r16
     6aa:	1f 93       	push	r17
     6ac:	cf 93       	push	r28
     6ae:	df 93       	push	r29
     6b0:	8c 01       	movw	r16, r24
     6b2:	eb 01       	movw	r28, r22
     6b4:	0e 94 06 11 	call	0x220c	; 0x220c <local_rtc_timer_gettime_u16>
     6b8:	9c 01       	movw	r18, r24
     6ba:	20 1b       	sub	r18, r16
     6bc:	31 0b       	sbc	r19, r17
     6be:	81 e0       	ldi	r24, 0x01	; 1
     6c0:	2c 17       	cp	r18, r28
     6c2:	3d 07       	cpc	r19, r29
     6c4:	08 f4       	brcc	.+2      	; 0x6c8 <time_mgmnt_istimeup_raw_u16+0x20>
     6c6:	80 e0       	ldi	r24, 0x00	; 0
     6c8:	df 91       	pop	r29
     6ca:	cf 91       	pop	r28
     6cc:	1f 91       	pop	r17
     6ce:	0f 91       	pop	r16
     6d0:	08 95       	ret

000006d2 <time_mgmnt_elapsed_u8>:
     6d2:	cf 93       	push	r28
     6d4:	df 93       	push	r29
     6d6:	fc 01       	movw	r30, r24
     6d8:	20 81       	ld	r18, Z
     6da:	21 30       	cpi	r18, 0x01	; 1
     6dc:	31 f4       	brne	.+12     	; 0x6ea <time_mgmnt_elapsed_u8+0x18>
     6de:	ec 01       	movw	r28, r24
     6e0:	0e 94 03 11 	call	0x2206	; 0x2206 <local_rtc_timer_gettime_u8>
     6e4:	99 81       	ldd	r25, Y+1	; 0x01
     6e6:	89 1b       	sub	r24, r25
     6e8:	01 c0       	rjmp	.+2      	; 0x6ec <time_mgmnt_elapsed_u8+0x1a>
     6ea:	80 e0       	ldi	r24, 0x00	; 0
     6ec:	df 91       	pop	r29
     6ee:	cf 91       	pop	r28
     6f0:	08 95       	ret

000006f2 <time_mgmnt_istimeup_u8>:
     6f2:	cf 93       	push	r28
     6f4:	c6 2f       	mov	r28, r22
     6f6:	ed df       	rcall	.-38     	; 0x6d2 <time_mgmnt_elapsed_u8>
     6f8:	91 e0       	ldi	r25, 0x01	; 1
     6fa:	8c 17       	cp	r24, r28
     6fc:	08 f4       	brcc	.+2      	; 0x700 <time_mgmnt_istimeup_u8+0xe>
     6fe:	90 e0       	ldi	r25, 0x00	; 0
     700:	89 2f       	mov	r24, r25
     702:	cf 91       	pop	r28
     704:	08 95       	ret

00000706 <time_mgmnt_elapsed_u16>:
     706:	cf 93       	push	r28
     708:	df 93       	push	r29
     70a:	fc 01       	movw	r30, r24
     70c:	20 81       	ld	r18, Z
     70e:	21 30       	cpi	r18, 0x01	; 1
     710:	41 f4       	brne	.+16     	; 0x722 <time_mgmnt_elapsed_u16+0x1c>
     712:	ec 01       	movw	r28, r24
     714:	0e 94 06 11 	call	0x220c	; 0x220c <local_rtc_timer_gettime_u16>
     718:	29 81       	ldd	r18, Y+1	; 0x01
     71a:	3a 81       	ldd	r19, Y+2	; 0x02
     71c:	82 1b       	sub	r24, r18
     71e:	93 0b       	sbc	r25, r19
     720:	02 c0       	rjmp	.+4      	; 0x726 <time_mgmnt_elapsed_u16+0x20>
     722:	80 e0       	ldi	r24, 0x00	; 0
     724:	90 e0       	ldi	r25, 0x00	; 0
     726:	df 91       	pop	r29
     728:	cf 91       	pop	r28
     72a:	08 95       	ret

0000072c <time_mgmnt_istimeup_u16>:
     72c:	cf 93       	push	r28
     72e:	df 93       	push	r29
     730:	eb 01       	movw	r28, r22
     732:	e9 df       	rcall	.-46     	; 0x706 <time_mgmnt_elapsed_u16>
     734:	21 e0       	ldi	r18, 0x01	; 1
     736:	8c 17       	cp	r24, r28
     738:	9d 07       	cpc	r25, r29
     73a:	08 f4       	brcc	.+2      	; 0x73e <time_mgmnt_istimeup_u16+0x12>
     73c:	20 e0       	ldi	r18, 0x00	; 0
     73e:	82 2f       	mov	r24, r18
     740:	df 91       	pop	r29
     742:	cf 91       	pop	r28
     744:	08 95       	ret

00000746 <time_mgmnt_elapsed_u32>:
     746:	0f 93       	push	r16
     748:	1f 93       	push	r17
     74a:	cf 93       	push	r28
     74c:	df 93       	push	r29
     74e:	fc 01       	movw	r30, r24
     750:	20 81       	ld	r18, Z
     752:	21 30       	cpi	r18, 0x01	; 1
     754:	61 f4       	brne	.+24     	; 0x76e <time_mgmnt_elapsed_u32+0x28>
     756:	ec 01       	movw	r28, r24
     758:	0e 94 de 10 	call	0x21bc	; 0x21bc <local_rtc_timer_gettime_u32>
     75c:	09 81       	ldd	r16, Y+1	; 0x01
     75e:	1a 81       	ldd	r17, Y+2	; 0x02
     760:	2b 81       	ldd	r18, Y+3	; 0x03
     762:	3c 81       	ldd	r19, Y+4	; 0x04
     764:	60 1b       	sub	r22, r16
     766:	71 0b       	sbc	r23, r17
     768:	82 0b       	sbc	r24, r18
     76a:	93 0b       	sbc	r25, r19
     76c:	03 c0       	rjmp	.+6      	; 0x774 <time_mgmnt_elapsed_u32+0x2e>
     76e:	60 e0       	ldi	r22, 0x00	; 0
     770:	70 e0       	ldi	r23, 0x00	; 0
     772:	cb 01       	movw	r24, r22
     774:	df 91       	pop	r29
     776:	cf 91       	pop	r28
     778:	1f 91       	pop	r17
     77a:	0f 91       	pop	r16
     77c:	08 95       	ret

0000077e <time_mgmnt_istimeup_u32>:
     77e:	cf 92       	push	r12
     780:	df 92       	push	r13
     782:	ef 92       	push	r14
     784:	ff 92       	push	r15
     786:	6a 01       	movw	r12, r20
     788:	7b 01       	movw	r14, r22
     78a:	dd df       	rcall	.-70     	; 0x746 <time_mgmnt_elapsed_u32>
     78c:	21 e0       	ldi	r18, 0x01	; 1
     78e:	6c 15       	cp	r22, r12
     790:	7d 05       	cpc	r23, r13
     792:	8e 05       	cpc	r24, r14
     794:	9f 05       	cpc	r25, r15
     796:	08 f4       	brcc	.+2      	; 0x79a <time_mgmnt_istimeup_u32+0x1c>
     798:	20 e0       	ldi	r18, 0x00	; 0
     79a:	82 2f       	mov	r24, r18
     79c:	ff 90       	pop	r15
     79e:	ef 90       	pop	r14
     7a0:	df 90       	pop	r13
     7a2:	cf 90       	pop	r12
     7a4:	08 95       	ret

000007a6 <mcu_task_controller_init>:
     7a6:	10 92 9e 03 	sts	0x039E, r1	; 0x80039e <_first_task+0x1>
     7aa:	10 92 9d 03 	sts	0x039D, r1	; 0x80039d <_first_task>
     7ae:	10 92 9c 03 	sts	0x039C, r1	; 0x80039c <_last_task+0x1>
     7b2:	10 92 9b 03 	sts	0x039B, r1	; 0x80039b <_last_task>
     7b6:	08 95       	ret

000007b8 <mcu_task_controller_register_task>:
     7b8:	cf 93       	push	r28
     7ba:	df 93       	push	r29
     7bc:	ec 01       	movw	r28, r24
     7be:	18 8e       	std	Y+24, r1	; 0x18
     7c0:	1f 8a       	std	Y+23, r1	; 0x17
     7c2:	80 91 dc 01 	lds	r24, 0x01DC	; 0x8001dc <new_task_id.2802>
     7c6:	88 83       	st	Y, r24
     7c8:	8f 5f       	subi	r24, 0xFF	; 255
     7ca:	80 93 dc 01 	sts	0x01DC, r24	; 0x8001dc <new_task_id.2802>
     7ce:	ed 81       	ldd	r30, Y+5	; 0x05
     7d0:	fe 81       	ldd	r31, Y+6	; 0x06
     7d2:	09 95       	icall
     7d4:	e0 91 6b 03 	lds	r30, 0x036B	; 0x80036b <i_system+0x2>
     7d8:	f0 91 6c 03 	lds	r31, 0x036C	; 0x80036c <i_system+0x3>
     7dc:	09 95       	icall
     7de:	9c 83       	std	Y+4, r25	; 0x04
     7e0:	8b 83       	std	Y+3, r24	; 0x03
     7e2:	ef 81       	ldd	r30, Y+7	; 0x07
     7e4:	f8 85       	ldd	r31, Y+8	; 0x08
     7e6:	09 95       	icall
     7e8:	9a 83       	std	Y+2, r25	; 0x02
     7ea:	89 83       	std	Y+1, r24	; 0x01
     7ec:	ef 81       	ldd	r30, Y+7	; 0x07
     7ee:	f8 85       	ldd	r31, Y+8	; 0x08
     7f0:	09 95       	icall
     7f2:	a0 e0       	ldi	r26, 0x00	; 0
     7f4:	b0 e0       	ldi	r27, 0x00	; 0
     7f6:	40 91 dd 01 	lds	r20, 0x01DD	; 0x8001dd <_minimum_taks_schedule_interval>
     7fa:	50 91 de 01 	lds	r21, 0x01DE	; 0x8001de <_minimum_taks_schedule_interval+0x1>
     7fe:	60 91 df 01 	lds	r22, 0x01DF	; 0x8001df <_minimum_taks_schedule_interval+0x2>
     802:	70 91 e0 01 	lds	r23, 0x01E0	; 0x8001e0 <_minimum_taks_schedule_interval+0x3>
     806:	84 17       	cp	r24, r20
     808:	95 07       	cpc	r25, r21
     80a:	a6 07       	cpc	r26, r22
     80c:	b7 07       	cpc	r27, r23
     80e:	68 f4       	brcc	.+26     	; 0x82a <mcu_task_controller_register_task+0x72>
     810:	ef 81       	ldd	r30, Y+7	; 0x07
     812:	f8 85       	ldd	r31, Y+8	; 0x08
     814:	09 95       	icall
     816:	a0 e0       	ldi	r26, 0x00	; 0
     818:	b0 e0       	ldi	r27, 0x00	; 0
     81a:	80 93 dd 01 	sts	0x01DD, r24	; 0x8001dd <_minimum_taks_schedule_interval>
     81e:	90 93 de 01 	sts	0x01DE, r25	; 0x8001de <_minimum_taks_schedule_interval+0x1>
     822:	a0 93 df 01 	sts	0x01DF, r26	; 0x8001df <_minimum_taks_schedule_interval+0x2>
     826:	b0 93 e0 01 	sts	0x01E0, r27	; 0x8001e0 <_minimum_taks_schedule_interval+0x3>
     82a:	80 91 9d 03 	lds	r24, 0x039D	; 0x80039d <_first_task>
     82e:	90 91 9e 03 	lds	r25, 0x039E	; 0x80039e <_first_task+0x1>
     832:	89 2b       	or	r24, r25
     834:	29 f4       	brne	.+10     	; 0x840 <mcu_task_controller_register_task+0x88>
     836:	d0 93 9e 03 	sts	0x039E, r29	; 0x80039e <_first_task+0x1>
     83a:	c0 93 9d 03 	sts	0x039D, r28	; 0x80039d <_first_task>
     83e:	06 c0       	rjmp	.+12     	; 0x84c <mcu_task_controller_register_task+0x94>
     840:	e0 91 9b 03 	lds	r30, 0x039B	; 0x80039b <_last_task>
     844:	f0 91 9c 03 	lds	r31, 0x039C	; 0x80039c <_last_task+0x1>
     848:	d0 8f       	std	Z+24, r29	; 0x18
     84a:	c7 8b       	std	Z+23, r28	; 0x17
     84c:	d0 93 9c 03 	sts	0x039C, r29	; 0x80039c <_last_task+0x1>
     850:	c0 93 9b 03 	sts	0x039B, r28	; 0x80039b <_last_task>
     854:	df 91       	pop	r29
     856:	cf 91       	pop	r28
     858:	08 95       	ret

0000085a <mcu_task_controller_schedule>:
     85a:	af 92       	push	r10
     85c:	bf 92       	push	r11
     85e:	cf 92       	push	r12
     860:	df 92       	push	r13
     862:	ef 92       	push	r14
     864:	ff 92       	push	r15
     866:	1f 93       	push	r17
     868:	cf 93       	push	r28
     86a:	df 93       	push	r29
     86c:	c0 91 9d 03 	lds	r28, 0x039D	; 0x80039d <_first_task>
     870:	d0 91 9e 03 	lds	r29, 0x039E	; 0x80039e <_first_task+0x1>
     874:	11 e0       	ldi	r17, 0x01	; 1
     876:	e0 90 6b 03 	lds	r14, 0x036B	; 0x80036b <i_system+0x2>
     87a:	f0 90 6c 03 	lds	r15, 0x036C	; 0x80036c <i_system+0x3>
     87e:	c0 90 71 03 	lds	r12, 0x0371	; 0x800371 <i_system+0x8>
     882:	d0 90 72 03 	lds	r13, 0x0372	; 0x800372 <i_system+0x9>
     886:	20 97       	sbiw	r28, 0x00	; 0
     888:	29 f1       	breq	.+74     	; 0x8d4 <mcu_task_controller_schedule+0x7a>
     88a:	ef 81       	ldd	r30, Y+7	; 0x07
     88c:	f8 85       	ldd	r31, Y+8	; 0x08
     88e:	09 95       	icall
     890:	89 2b       	or	r24, r25
     892:	41 f0       	breq	.+16     	; 0x8a4 <mcu_task_controller_schedule+0x4a>
     894:	69 81       	ldd	r22, Y+1	; 0x01
     896:	7a 81       	ldd	r23, Y+2	; 0x02
     898:	8b 81       	ldd	r24, Y+3	; 0x03
     89a:	9c 81       	ldd	r25, Y+4	; 0x04
     89c:	f6 01       	movw	r30, r12
     89e:	09 95       	icall
     8a0:	88 23       	and	r24, r24
     8a2:	a1 f0       	breq	.+40     	; 0x8cc <mcu_task_controller_schedule+0x72>
     8a4:	ef 81       	ldd	r30, Y+7	; 0x07
     8a6:	f8 85       	ldd	r31, Y+8	; 0x08
     8a8:	09 95       	icall
     8aa:	89 2b       	or	r24, r25
     8ac:	51 f0       	breq	.+20     	; 0x8c2 <mcu_task_controller_schedule+0x68>
     8ae:	f7 01       	movw	r30, r14
     8b0:	09 95       	icall
     8b2:	5c 01       	movw	r10, r24
     8b4:	ef 81       	ldd	r30, Y+7	; 0x07
     8b6:	f8 85       	ldd	r31, Y+8	; 0x08
     8b8:	09 95       	icall
     8ba:	9a 83       	std	Y+2, r25	; 0x02
     8bc:	89 83       	std	Y+1, r24	; 0x01
     8be:	bc 82       	std	Y+4, r11	; 0x04
     8c0:	ab 82       	std	Y+3, r10	; 0x03
     8c2:	e9 85       	ldd	r30, Y+9	; 0x09
     8c4:	fa 85       	ldd	r31, Y+10	; 0x0a
     8c6:	09 95       	icall
     8c8:	81 11       	cpse	r24, r1
     8ca:	08 c0       	rjmp	.+16     	; 0x8dc <mcu_task_controller_schedule+0x82>
     8cc:	0f 88       	ldd	r0, Y+23	; 0x17
     8ce:	d8 8d       	ldd	r29, Y+24	; 0x18
     8d0:	c0 2d       	mov	r28, r0
     8d2:	d9 cf       	rjmp	.-78     	; 0x886 <mcu_task_controller_schedule+0x2c>
     8d4:	11 23       	and	r17, r17
     8d6:	61 f0       	breq	.+24     	; 0x8f0 <mcu_task_controller_schedule+0x96>
     8d8:	29 d0       	rcall	.+82     	; 0x92c <mcu_idle_task_run>
     8da:	0a c0       	rjmp	.+20     	; 0x8f0 <mcu_task_controller_schedule+0x96>
     8dc:	eb 85       	ldd	r30, Y+11	; 0x0b
     8de:	fc 85       	ldd	r31, Y+12	; 0x0c
     8e0:	09 95       	icall
     8e2:	e9 85       	ldd	r30, Y+9	; 0x09
     8e4:	fa 85       	ldd	r31, Y+10	; 0x0a
     8e6:	09 95       	icall
     8e8:	88 23       	and	r24, r24
     8ea:	81 f3       	breq	.-32     	; 0x8cc <mcu_task_controller_schedule+0x72>
     8ec:	10 e0       	ldi	r17, 0x00	; 0
     8ee:	ee cf       	rjmp	.-36     	; 0x8cc <mcu_task_controller_schedule+0x72>
     8f0:	df 91       	pop	r29
     8f2:	cf 91       	pop	r28
     8f4:	1f 91       	pop	r17
     8f6:	ff 90       	pop	r15
     8f8:	ef 90       	pop	r14
     8fa:	df 90       	pop	r13
     8fc:	cf 90       	pop	r12
     8fe:	bf 90       	pop	r11
     900:	af 90       	pop	r10
     902:	08 95       	ret

00000904 <mcu_task_controller_background_run>:
     904:	cf 93       	push	r28
     906:	df 93       	push	r29
     908:	c0 91 9d 03 	lds	r28, 0x039D	; 0x80039d <_first_task>
     90c:	d0 91 9e 03 	lds	r29, 0x039E	; 0x80039e <_first_task+0x1>
     910:	20 97       	sbiw	r28, 0x00	; 0
     912:	49 f0       	breq	.+18     	; 0x926 <mcu_task_controller_background_run+0x22>
     914:	ed 85       	ldd	r30, Y+13	; 0x0d
     916:	fe 85       	ldd	r31, Y+14	; 0x0e
     918:	30 97       	sbiw	r30, 0x00	; 0
     91a:	09 f0       	breq	.+2      	; 0x91e <mcu_task_controller_background_run+0x1a>
     91c:	09 95       	icall
     91e:	0f 88       	ldd	r0, Y+23	; 0x17
     920:	d8 8d       	ldd	r29, Y+24	; 0x18
     922:	c0 2d       	mov	r28, r0
     924:	f5 cf       	rjmp	.-22     	; 0x910 <mcu_task_controller_background_run+0xc>
     926:	df 91       	pop	r29
     928:	cf 91       	pop	r28
     92a:	08 95       	ret

0000092c <mcu_idle_task_run>:
     92c:	08 95       	ret

0000092e <local_event_mcu_task_init>:
     92e:	08 95       	ret

00000930 <local_event_mcu_task_get_schedule_interval>:
     930:	85 e0       	ldi	r24, 0x05	; 5
     932:	90 e0       	ldi	r25, 0x00	; 0
     934:	08 95       	ret

00000936 <local_event_mcu_task_get_state>:
     936:	80 91 a4 03 	lds	r24, 0x03A4	; 0x8003a4 <_event_counter>
     93a:	81 11       	cpse	r24, r1
     93c:	05 c0       	rjmp	.+10     	; 0x948 <local_event_mcu_task_get_state+0x12>
     93e:	80 91 d7 03 	lds	r24, 0x03D7	; 0x8003d7 <actual_task_state>
     942:	81 11       	cpse	r24, r1
     944:	01 c0       	rjmp	.+2      	; 0x948 <local_event_mcu_task_get_state+0x12>
     946:	08 95       	ret
     948:	82 e0       	ldi	r24, 0x02	; 2
     94a:	08 95       	ret

0000094c <local_event_mcu_task_run>:
     94c:	0f 93       	push	r16
     94e:	1f 93       	push	r17
     950:	cf 93       	push	r28
     952:	df 93       	push	r29
     954:	80 91 d7 03 	lds	r24, 0x03D7	; 0x8003d7 <actual_task_state>
     958:	81 30       	cpi	r24, 0x01	; 1
     95a:	71 f0       	breq	.+28     	; 0x978 <local_event_mcu_task_run+0x2c>
     95c:	28 f0       	brcs	.+10     	; 0x968 <local_event_mcu_task_run+0x1c>
     95e:	82 30       	cpi	r24, 0x02	; 2
     960:	89 f0       	breq	.+34     	; 0x984 <local_event_mcu_task_run+0x38>
     962:	83 30       	cpi	r24, 0x03	; 3
     964:	91 f1       	breq	.+100    	; 0x9ca <local_event_mcu_task_run+0x7e>
     966:	44 c0       	rjmp	.+136    	; 0x9f0 <local_event_mcu_task_run+0xa4>
     968:	80 91 a4 03 	lds	r24, 0x03A4	; 0x8003a4 <_event_counter>
     96c:	88 23       	and	r24, r24
     96e:	09 f4       	brne	.+2      	; 0x972 <local_event_mcu_task_run+0x26>
     970:	41 c0       	rjmp	.+130    	; 0x9f4 <local_event_mcu_task_run+0xa8>
     972:	81 e0       	ldi	r24, 0x01	; 1
     974:	80 93 d7 03 	sts	0x03D7, r24	; 0x8003d7 <actual_task_state>
     978:	8f e9       	ldi	r24, 0x9F	; 159
     97a:	93 e0       	ldi	r25, 0x03	; 3
     97c:	87 de       	rcall	.-754    	; 0x68c <time_mgmnt_start_u32>
     97e:	82 e0       	ldi	r24, 0x02	; 2
     980:	80 93 d7 03 	sts	0x03D7, r24	; 0x8003d7 <actual_task_state>
     984:	c5 ea       	ldi	r28, 0xA5	; 165
     986:	d3 e0       	ldi	r29, 0x03	; 3
     988:	00 91 73 03 	lds	r16, 0x0373	; 0x800373 <i_system+0xa>
     98c:	10 91 74 03 	lds	r17, 0x0374	; 0x800374 <i_system+0xb>
     990:	88 81       	ld	r24, Y
     992:	88 23       	and	r24, r24
     994:	91 f0       	breq	.+36     	; 0x9ba <local_event_mcu_task_run+0x6e>
     996:	69 81       	ldd	r22, Y+1	; 0x01
     998:	7a 81       	ldd	r23, Y+2	; 0x02
     99a:	8b 81       	ldd	r24, Y+3	; 0x03
     99c:	9c 81       	ldd	r25, Y+4	; 0x04
     99e:	22 e3       	ldi	r18, 0x32	; 50
     9a0:	30 e0       	ldi	r19, 0x00	; 0
     9a2:	40 e0       	ldi	r20, 0x00	; 0
     9a4:	50 e0       	ldi	r21, 0x00	; 0
     9a6:	f8 01       	movw	r30, r16
     9a8:	09 95       	icall
     9aa:	88 23       	and	r24, r24
     9ac:	31 f0       	breq	.+12     	; 0x9ba <local_event_mcu_task_run+0x6e>
     9ae:	18 82       	st	Y, r1
     9b0:	80 91 a4 03 	lds	r24, 0x03A4	; 0x8003a4 <_event_counter>
     9b4:	81 50       	subi	r24, 0x01	; 1
     9b6:	80 93 a4 03 	sts	0x03A4, r24	; 0x8003a4 <_event_counter>
     9ba:	25 96       	adiw	r28, 0x05	; 5
     9bc:	f3 e0       	ldi	r31, 0x03	; 3
     9be:	c7 3d       	cpi	r28, 0xD7	; 215
     9c0:	df 07       	cpc	r29, r31
     9c2:	31 f7       	brne	.-52     	; 0x990 <local_event_mcu_task_run+0x44>
     9c4:	83 e0       	ldi	r24, 0x03	; 3
     9c6:	80 93 d7 03 	sts	0x03D7, r24	; 0x8003d7 <actual_task_state>
     9ca:	44 e6       	ldi	r20, 0x64	; 100
     9cc:	50 e0       	ldi	r21, 0x00	; 0
     9ce:	60 e0       	ldi	r22, 0x00	; 0
     9d0:	70 e0       	ldi	r23, 0x00	; 0
     9d2:	8f e9       	ldi	r24, 0x9F	; 159
     9d4:	93 e0       	ldi	r25, 0x03	; 3
     9d6:	d3 de       	rcall	.-602    	; 0x77e <time_mgmnt_istimeup_u32>
     9d8:	81 11       	cpse	r24, r1
     9da:	02 c0       	rjmp	.+4      	; 0x9e0 <local_event_mcu_task_run+0x94>
     9dc:	82 e0       	ldi	r24, 0x02	; 2
     9de:	05 c0       	rjmp	.+10     	; 0x9ea <local_event_mcu_task_run+0x9e>
     9e0:	80 91 a4 03 	lds	r24, 0x03A4	; 0x8003a4 <_event_counter>
     9e4:	88 23       	and	r24, r24
     9e6:	21 f0       	breq	.+8      	; 0x9f0 <local_event_mcu_task_run+0xa4>
     9e8:	81 e0       	ldi	r24, 0x01	; 1
     9ea:	80 93 d7 03 	sts	0x03D7, r24	; 0x8003d7 <actual_task_state>
     9ee:	02 c0       	rjmp	.+4      	; 0x9f4 <local_event_mcu_task_run+0xa8>
     9f0:	10 92 d7 03 	sts	0x03D7, r1	; 0x8003d7 <actual_task_state>
     9f4:	df 91       	pop	r29
     9f6:	cf 91       	pop	r28
     9f8:	1f 91       	pop	r17
     9fa:	0f 91       	pop	r16
     9fc:	08 95       	ret

000009fe <local_event_mcu_task_background_run>:
     9fe:	08 95       	ret

00000a00 <local_event_mcu_task_sleep>:
     a00:	08 95       	ret

00000a02 <local_event_mcu_task_wakeup>:
     a02:	08 95       	ret

00000a04 <local_event_mcu_task_finish>:
     a04:	08 95       	ret

00000a06 <local_event_mcu_task_terminate>:
     a06:	08 95       	ret

00000a08 <local_event_add>:
     a08:	cf 93       	push	r28
     a0a:	df 93       	push	r29
     a0c:	e5 ea       	ldi	r30, 0xA5	; 165
     a0e:	f3 e0       	ldi	r31, 0x03	; 3
     a10:	20 e0       	ldi	r18, 0x00	; 0
     a12:	30 e0       	ldi	r19, 0x00	; 0
     a14:	90 81       	ld	r25, Z
     a16:	91 11       	cpse	r25, r1
     a18:	18 c0       	rjmp	.+48     	; 0xa4a <local_event_add+0x42>
     a1a:	95 e0       	ldi	r25, 0x05	; 5
     a1c:	92 9f       	mul	r25, r18
     a1e:	e0 01       	movw	r28, r0
     a20:	93 9f       	mul	r25, r19
     a22:	d0 0d       	add	r29, r0
     a24:	11 24       	eor	r1, r1
     a26:	cb 55       	subi	r28, 0x5B	; 91
     a28:	dc 4f       	sbci	r29, 0xFC	; 252
     a2a:	88 83       	st	Y, r24
     a2c:	e0 91 6d 03 	lds	r30, 0x036D	; 0x80036d <i_system+0x4>
     a30:	f0 91 6e 03 	lds	r31, 0x036E	; 0x80036e <i_system+0x5>
     a34:	09 95       	icall
     a36:	69 83       	std	Y+1, r22	; 0x01
     a38:	7a 83       	std	Y+2, r23	; 0x02
     a3a:	8b 83       	std	Y+3, r24	; 0x03
     a3c:	9c 83       	std	Y+4, r25	; 0x04
     a3e:	80 91 a4 03 	lds	r24, 0x03A4	; 0x8003a4 <_event_counter>
     a42:	8f 5f       	subi	r24, 0xFF	; 255
     a44:	80 93 a4 03 	sts	0x03A4, r24	; 0x8003a4 <_event_counter>
     a48:	06 c0       	rjmp	.+12     	; 0xa56 <local_event_add+0x4e>
     a4a:	2f 5f       	subi	r18, 0xFF	; 255
     a4c:	3f 4f       	sbci	r19, 0xFF	; 255
     a4e:	35 96       	adiw	r30, 0x05	; 5
     a50:	2a 30       	cpi	r18, 0x0A	; 10
     a52:	31 05       	cpc	r19, r1
     a54:	f9 f6       	brne	.-66     	; 0xa14 <local_event_add+0xc>
     a56:	df 91       	pop	r29
     a58:	cf 91       	pop	r28
     a5a:	08 95       	ret

00000a5c <local_event_get_next>:
     a5c:	80 e0       	ldi	r24, 0x00	; 0
     a5e:	08 95       	ret

00000a60 <ir_remote_task_background_run>:
     a60:	08 95       	ret

00000a62 <IR_REMOTE_TASK_STATUS_is_set>:
     a62:	68 2f       	mov	r22, r24
     a64:	8d ef       	ldi	r24, 0xFD	; 253
     a66:	93 e0       	ldi	r25, 0x03	; 3
     a68:	fb cb       	rjmp	.-2058   	; 0x260 <module_status_isset_u8>

00000a6a <ir_remote_task_get_state>:
     a6a:	83 e0       	ldi	r24, 0x03	; 3
     a6c:	fa df       	rcall	.-12     	; 0xa62 <IR_REMOTE_TASK_STATUS_is_set>
     a6e:	81 11       	cpse	r24, r1
     a70:	82 e0       	ldi	r24, 0x02	; 2
     a72:	08 95       	ret

00000a74 <ir_remote_task_get_schedule_interval>:
     a74:	83 e0       	ldi	r24, 0x03	; 3
     a76:	f5 df       	rcall	.-22     	; 0xa62 <IR_REMOTE_TASK_STATUS_is_set>
     a78:	81 11       	cpse	r24, r1
     a7a:	03 c0       	rjmp	.+6      	; 0xa82 <ir_remote_task_get_schedule_interval+0xe>
     a7c:	84 e6       	ldi	r24, 0x64	; 100
     a7e:	90 e0       	ldi	r25, 0x00	; 0
     a80:	08 95       	ret
     a82:	80 e0       	ldi	r24, 0x00	; 0
     a84:	90 e0       	ldi	r25, 0x00	; 0
     a86:	08 95       	ret

00000a88 <IR_REMOTE_TASK_STATUS_unset>:
     a88:	68 2f       	mov	r22, r24
     a8a:	8d ef       	ldi	r24, 0xFD	; 253
     a8c:	93 e0       	ldi	r25, 0x03	; 3
     a8e:	ef cb       	rjmp	.-2082   	; 0x26e <module_status_unset_u8>

00000a90 <ir_remote_task_init>:
     a90:	8d ef       	ldi	r24, 0xFD	; 253
     a92:	93 e0       	ldi	r25, 0x03	; 3
     a94:	f2 cb       	rjmp	.-2076   	; 0x27a <module_status_clear_all_u8>

00000a96 <ir_remote_task_slot_SAMSUNG_IR_CMD_RECEIVED>:
     a96:	cf 93       	push	r28
     a98:	df 93       	push	r29
     a9a:	ec 01       	movw	r28, r24
     a9c:	84 e0       	ldi	r24, 0x04	; 4
     a9e:	e1 df       	rcall	.-62     	; 0xa62 <IR_REMOTE_TASK_STATUS_is_set>
     aa0:	81 11       	cpse	r24, r1
     aa2:	0a c0       	rjmp	.+20     	; 0xab8 <ir_remote_task_slot_SAMSUNG_IR_CMD_RECEIVED+0x22>
     aa4:	88 81       	ld	r24, Y
     aa6:	80 93 fb 03 	sts	0x03FB, r24	; 0x8003fb <samsung_ir_command>
     aaa:	89 81       	ldd	r24, Y+1	; 0x01
     aac:	80 93 fc 03 	sts	0x03FC, r24	; 0x8003fc <samsung_ir_command+0x1>
     ab0:	66 e0       	ldi	r22, 0x06	; 6
     ab2:	8d ef       	ldi	r24, 0xFD	; 253
     ab4:	93 e0       	ldi	r25, 0x03	; 3
     ab6:	cf db       	rcall	.-2146   	; 0x256 <module_status_set_u8>
     ab8:	df 91       	pop	r29
     aba:	cf 91       	pop	r28
     abc:	08 95       	ret

00000abe <ir_remote_task_slot_JVC_IR_CMD_RECEIVED>:
     abe:	cf 93       	push	r28
     ac0:	df 93       	push	r29
     ac2:	ec 01       	movw	r28, r24
     ac4:	88 e0       	ldi	r24, 0x08	; 8
     ac6:	cd df       	rcall	.-102    	; 0xa62 <IR_REMOTE_TASK_STATUS_is_set>
     ac8:	81 11       	cpse	r24, r1
     aca:	0a c0       	rjmp	.+20     	; 0xae0 <ir_remote_task_slot_JVC_IR_CMD_RECEIVED+0x22>
     acc:	88 81       	ld	r24, Y
     ace:	80 93 ef 03 	sts	0x03EF, r24	; 0x8003ef <jvc_ir_command>
     ad2:	89 81       	ldd	r24, Y+1	; 0x01
     ad4:	80 93 f0 03 	sts	0x03F0, r24	; 0x8003f0 <jvc_ir_command+0x1>
     ad8:	6a e0       	ldi	r22, 0x0A	; 10
     ada:	8d ef       	ldi	r24, 0xFD	; 253
     adc:	93 e0       	ldi	r25, 0x03	; 3
     ade:	bb db       	rcall	.-2186   	; 0x256 <module_status_set_u8>
     ae0:	df 91       	pop	r29
     ae2:	cf 91       	pop	r28
     ae4:	08 95       	ret

00000ae6 <ir_remote_task_slot_SONY_IR_CMD_RECEIVED>:
     ae6:	cf 93       	push	r28
     ae8:	df 93       	push	r29
     aea:	ec 01       	movw	r28, r24
     aec:	80 e1       	ldi	r24, 0x10	; 16
     aee:	b9 df       	rcall	.-142    	; 0xa62 <IR_REMOTE_TASK_STATUS_is_set>
     af0:	81 11       	cpse	r24, r1
     af2:	0d c0       	rjmp	.+26     	; 0xb0e <ir_remote_task_slot_SONY_IR_CMD_RECEIVED+0x28>
     af4:	88 81       	ld	r24, Y
     af6:	80 93 e2 03 	sts	0x03E2, r24	; 0x8003e2 <sony_ir_command>
     afa:	89 81       	ldd	r24, Y+1	; 0x01
     afc:	80 93 e3 03 	sts	0x03E3, r24	; 0x8003e3 <sony_ir_command+0x1>
     b00:	8a 81       	ldd	r24, Y+2	; 0x02
     b02:	80 93 e4 03 	sts	0x03E4, r24	; 0x8003e4 <sony_ir_command+0x2>
     b06:	62 e1       	ldi	r22, 0x12	; 18
     b08:	8d ef       	ldi	r24, 0xFD	; 253
     b0a:	93 e0       	ldi	r25, 0x03	; 3
     b0c:	a4 db       	rcall	.-2232   	; 0x256 <module_status_set_u8>
     b0e:	df 91       	pop	r29
     b10:	cf 91       	pop	r28
     b12:	08 95       	ret

00000b14 <ir_remote_task_run>:
     b14:	cf 93       	push	r28
     b16:	84 e0       	ldi	r24, 0x04	; 4
     b18:	a4 df       	rcall	.-184    	; 0xa62 <IR_REMOTE_TASK_STATUS_is_set>
     b1a:	88 23       	and	r24, r24
     b1c:	99 f0       	breq	.+38     	; 0xb44 <ir_remote_task_run+0x30>
     b1e:	81 e0       	ldi	r24, 0x01	; 1
     b20:	a0 df       	rcall	.-192    	; 0xa62 <IR_REMOTE_TASK_STATUS_is_set>
     b22:	81 11       	cpse	r24, r1
     b24:	0a c0       	rjmp	.+20     	; 0xb3a <ir_remote_task_run+0x26>
     b26:	61 e0       	ldi	r22, 0x01	; 1
     b28:	8d ef       	ldi	r24, 0xFD	; 253
     b2a:	93 e0       	ldi	r25, 0x03	; 3
     b2c:	94 db       	rcall	.-2264   	; 0x256 <module_status_set_u8>
     b2e:	82 e0       	ldi	r24, 0x02	; 2
     b30:	ab df       	rcall	.-170    	; 0xa88 <IR_REMOTE_TASK_STATUS_unset>
     b32:	8b ef       	ldi	r24, 0xFB	; 251
     b34:	93 e0       	ldi	r25, 0x03	; 3
     b36:	ec d0       	rcall	.+472    	; 0xd10 <ir_protocol_samsung_transmit>
     b38:	07 c0       	rjmp	.+14     	; 0xb48 <ir_remote_task_run+0x34>
     b3a:	da d0       	rcall	.+436    	; 0xcf0 <ir_protocol_samsung_is_busy>
     b3c:	81 11       	cpse	r24, r1
     b3e:	04 c0       	rjmp	.+8      	; 0xb48 <ir_remote_task_run+0x34>
     b40:	84 e0       	ldi	r24, 0x04	; 4
     b42:	a2 df       	rcall	.-188    	; 0xa88 <IR_REMOTE_TASK_STATUS_unset>
     b44:	c0 e0       	ldi	r28, 0x00	; 0
     b46:	01 c0       	rjmp	.+2      	; 0xb4a <ir_remote_task_run+0x36>
     b48:	c1 e0       	ldi	r28, 0x01	; 1
     b4a:	88 e0       	ldi	r24, 0x08	; 8
     b4c:	8a df       	rcall	.-236    	; 0xa62 <IR_REMOTE_TASK_STATUS_is_set>
     b4e:	88 23       	and	r24, r24
     b50:	a9 f0       	breq	.+42     	; 0xb7c <ir_remote_task_run+0x68>
     b52:	81 e0       	ldi	r24, 0x01	; 1
     b54:	86 df       	rcall	.-244    	; 0xa62 <IR_REMOTE_TASK_STATUS_is_set>
     b56:	81 11       	cpse	r24, r1
     b58:	0a c0       	rjmp	.+20     	; 0xb6e <ir_remote_task_run+0x5a>
     b5a:	61 e0       	ldi	r22, 0x01	; 1
     b5c:	8d ef       	ldi	r24, 0xFD	; 253
     b5e:	93 e0       	ldi	r25, 0x03	; 3
     b60:	7a db       	rcall	.-2316   	; 0x256 <module_status_set_u8>
     b62:	82 e0       	ldi	r24, 0x02	; 2
     b64:	91 df       	rcall	.-222    	; 0xa88 <IR_REMOTE_TASK_STATUS_unset>
     b66:	8f ee       	ldi	r24, 0xEF	; 239
     b68:	93 e0       	ldi	r25, 0x03	; 3
     b6a:	66 d2       	rcall	.+1228   	; 0x1038 <ir_protocol_jvc_transmit>
     b6c:	06 c0       	rjmp	.+12     	; 0xb7a <ir_remote_task_run+0x66>
     b6e:	54 d2       	rcall	.+1192   	; 0x1018 <ir_protocol_jvc_is_busy>
     b70:	81 11       	cpse	r24, r1
     b72:	03 c0       	rjmp	.+6      	; 0xb7a <ir_remote_task_run+0x66>
     b74:	88 e0       	ldi	r24, 0x08	; 8
     b76:	88 df       	rcall	.-240    	; 0xa88 <IR_REMOTE_TASK_STATUS_unset>
     b78:	01 c0       	rjmp	.+2      	; 0xb7c <ir_remote_task_run+0x68>
     b7a:	c1 e0       	ldi	r28, 0x01	; 1
     b7c:	80 e1       	ldi	r24, 0x10	; 16
     b7e:	71 df       	rcall	.-286    	; 0xa62 <IR_REMOTE_TASK_STATUS_is_set>
     b80:	88 23       	and	r24, r24
     b82:	99 f0       	breq	.+38     	; 0xbaa <ir_remote_task_run+0x96>
     b84:	81 e0       	ldi	r24, 0x01	; 1
     b86:	6d df       	rcall	.-294    	; 0xa62 <IR_REMOTE_TASK_STATUS_is_set>
     b88:	81 11       	cpse	r24, r1
     b8a:	0a c0       	rjmp	.+20     	; 0xba0 <ir_remote_task_run+0x8c>
     b8c:	61 e0       	ldi	r22, 0x01	; 1
     b8e:	8d ef       	ldi	r24, 0xFD	; 253
     b90:	93 e0       	ldi	r25, 0x03	; 3
     b92:	61 db       	rcall	.-2366   	; 0x256 <module_status_set_u8>
     b94:	82 e0       	ldi	r24, 0x02	; 2
     b96:	78 df       	rcall	.-272    	; 0xa88 <IR_REMOTE_TASK_STATUS_unset>
     b98:	82 ee       	ldi	r24, 0xE2	; 226
     b9a:	93 e0       	ldi	r25, 0x03	; 3
     b9c:	be d3       	rcall	.+1916   	; 0x131a <ir_protocol_sony_transmit>
     b9e:	0c c0       	rjmp	.+24     	; 0xbb8 <ir_remote_task_run+0xa4>
     ba0:	ac d3       	rcall	.+1880   	; 0x12fa <ir_protocol_sony_is_busy>
     ba2:	81 11       	cpse	r24, r1
     ba4:	09 c0       	rjmp	.+18     	; 0xbb8 <ir_remote_task_run+0xa4>
     ba6:	80 e1       	ldi	r24, 0x10	; 16
     ba8:	6f df       	rcall	.-290    	; 0xa88 <IR_REMOTE_TASK_STATUS_unset>
     baa:	c1 11       	cpse	r28, r1
     bac:	05 c0       	rjmp	.+10     	; 0xbb8 <ir_remote_task_run+0xa4>
     bae:	ef da       	rcall	.-2594   	; 0x18e <IR_CARRIER_IN_no_pull>
     bb0:	f8 da       	rcall	.-2576   	; 0x1a2 <IR_CARRIER_OUT_drive_low>
     bb2:	0b db       	rcall	.-2538   	; 0x1ca <IR_MOD_OUT_drive_low>
     bb4:	81 e0       	ldi	r24, 0x01	; 1
     bb6:	68 df       	rcall	.-304    	; 0xa88 <IR_REMOTE_TASK_STATUS_unset>
     bb8:	cf 91       	pop	r28
     bba:	08 95       	ret

00000bbc <SAMSUNG_IR_CMD_RECEIVED_SIGNAL_init>:
     bbc:	85 ef       	ldi	r24, 0xF5	; 245
     bbe:	93 e0       	ldi	r25, 0x03	; 3
     bc0:	d4 cc       	rjmp	.-1624   	; 0x56a <signal_slot_init>

00000bc2 <SAMSUNG_IR_CMD_RECEIVED_SIGNAL_send>:
     bc2:	bc 01       	movw	r22, r24
     bc4:	85 ef       	ldi	r24, 0xF5	; 245
     bc6:	93 e0       	ldi	r25, 0x03	; 3
     bc8:	d8 cc       	rjmp	.-1616   	; 0x57a <signal_slot_send>

00000bca <SAMSUNG_IR_CMD_RECEIVED_SIGNAL_connect>:
     bca:	bc 01       	movw	r22, r24
     bcc:	85 ef       	ldi	r24, 0xF5	; 245
     bce:	93 e0       	ldi	r25, 0x03	; 3
     bd0:	08 cd       	rjmp	.-1520   	; 0x5e2 <signal_slot_connect>

00000bd2 <SAMSUNG_IR_CMD_RECEIVED_SLOT_connect>:
     bd2:	8b e4       	ldi	r24, 0x4B	; 75
     bd4:	95 e0       	ldi	r25, 0x05	; 5
     bd6:	90 93 f2 03 	sts	0x03F2, r25	; 0x8003f2 <_SAMSUNG_IR_CMD_RECEIVED_SLOT_context+0x1>
     bda:	80 93 f1 03 	sts	0x03F1, r24	; 0x8003f1 <_SAMSUNG_IR_CMD_RECEIVED_SLOT_context>
     bde:	81 ef       	ldi	r24, 0xF1	; 241
     be0:	93 e0       	ldi	r25, 0x03	; 3
     be2:	f3 cf       	rjmp	.-26     	; 0xbca <SAMSUNG_IR_CMD_RECEIVED_SIGNAL_connect>

00000be4 <JVC_IR_CMD_RECEIVED_SIGNAL_init>:
     be4:	89 ee       	ldi	r24, 0xE9	; 233
     be6:	93 e0       	ldi	r25, 0x03	; 3
     be8:	c0 cc       	rjmp	.-1664   	; 0x56a <signal_slot_init>

00000bea <JVC_IR_CMD_RECEIVED_SIGNAL_send>:
     bea:	bc 01       	movw	r22, r24
     bec:	89 ee       	ldi	r24, 0xE9	; 233
     bee:	93 e0       	ldi	r25, 0x03	; 3
     bf0:	c4 cc       	rjmp	.-1656   	; 0x57a <signal_slot_send>

00000bf2 <JVC_IR_CMD_RECEIVED_SIGNAL_connect>:
     bf2:	bc 01       	movw	r22, r24
     bf4:	89 ee       	ldi	r24, 0xE9	; 233
     bf6:	93 e0       	ldi	r25, 0x03	; 3
     bf8:	f4 cc       	rjmp	.-1560   	; 0x5e2 <signal_slot_connect>

00000bfa <JVC_IR_CMD_RECEIVED_SLOT_connect>:
     bfa:	8f e5       	ldi	r24, 0x5F	; 95
     bfc:	95 e0       	ldi	r25, 0x05	; 5
     bfe:	90 93 e6 03 	sts	0x03E6, r25	; 0x8003e6 <_JVC_IR_CMD_RECEIVED_SLOT_context+0x1>
     c02:	80 93 e5 03 	sts	0x03E5, r24	; 0x8003e5 <_JVC_IR_CMD_RECEIVED_SLOT_context>
     c06:	85 ee       	ldi	r24, 0xE5	; 229
     c08:	93 e0       	ldi	r25, 0x03	; 3
     c0a:	f3 cf       	rjmp	.-26     	; 0xbf2 <JVC_IR_CMD_RECEIVED_SIGNAL_connect>

00000c0c <SONY_IR_CMD_RECEIVED_SIGNAL_init>:
     c0c:	8c ed       	ldi	r24, 0xDC	; 220
     c0e:	93 e0       	ldi	r25, 0x03	; 3
     c10:	ac cc       	rjmp	.-1704   	; 0x56a <signal_slot_init>

00000c12 <SONY_IR_CMD_RECEIVED_SIGNAL_send>:
     c12:	bc 01       	movw	r22, r24
     c14:	8c ed       	ldi	r24, 0xDC	; 220
     c16:	93 e0       	ldi	r25, 0x03	; 3
     c18:	b0 cc       	rjmp	.-1696   	; 0x57a <signal_slot_send>

00000c1a <SONY_IR_CMD_RECEIVED_SIGNAL_connect>:
     c1a:	bc 01       	movw	r22, r24
     c1c:	8c ed       	ldi	r24, 0xDC	; 220
     c1e:	93 e0       	ldi	r25, 0x03	; 3
     c20:	e0 cc       	rjmp	.-1600   	; 0x5e2 <signal_slot_connect>

00000c22 <SONY_IR_CMD_RECEIVED_SLOT_connect>:
     c22:	83 e7       	ldi	r24, 0x73	; 115
     c24:	95 e0       	ldi	r25, 0x05	; 5
     c26:	90 93 d9 03 	sts	0x03D9, r25	; 0x8003d9 <_SONY_IR_CMD_RECEIVED_SLOT_context+0x1>
     c2a:	80 93 d8 03 	sts	0x03D8, r24	; 0x8003d8 <_SONY_IR_CMD_RECEIVED_SLOT_context>
     c2e:	88 ed       	ldi	r24, 0xD8	; 216
     c30:	93 e0       	ldi	r25, 0x03	; 3
     c32:	f3 cf       	rjmp	.-26     	; 0xc1a <SONY_IR_CMD_RECEIVED_SIGNAL_connect>

00000c34 <ir_remote_app_task_init>:
     c34:	ac da       	rcall	.-2728   	; 0x18e <IR_CARRIER_IN_no_pull>
     c36:	b5 da       	rcall	.-2710   	; 0x1a2 <IR_CARRIER_OUT_drive_low>
     c38:	c8 da       	rcall	.-2672   	; 0x1ca <IR_MOD_OUT_drive_low>
     c3a:	e0 91 02 02 	lds	r30, 0x0202	; 0x800202 <timer_carrier>
     c3e:	f0 91 03 02 	lds	r31, 0x0203	; 0x800203 <timer_carrier+0x1>
     c42:	09 95       	icall
     c44:	e0 91 fa 01 	lds	r30, 0x01FA	; 0x8001fa <timer_modulator>
     c48:	f0 91 fb 01 	lds	r31, 0x01FB	; 0x8001fb <timer_modulator+0x1>
     c4c:	09 95       	icall
     c4e:	b6 df       	rcall	.-148    	; 0xbbc <SAMSUNG_IR_CMD_RECEIVED_SIGNAL_init>
     c50:	c0 df       	rcall	.-128    	; 0xbd2 <SAMSUNG_IR_CMD_RECEIVED_SLOT_connect>
     c52:	6a ef       	ldi	r22, 0xFA	; 250
     c54:	71 e0       	ldi	r23, 0x01	; 1
     c56:	82 e0       	ldi	r24, 0x02	; 2
     c58:	92 e0       	ldi	r25, 0x02	; 2
     c5a:	51 d0       	rcall	.+162    	; 0xcfe <ir_protocol_samsung_set_timer>
     c5c:	c3 df       	rcall	.-122    	; 0xbe4 <JVC_IR_CMD_RECEIVED_SIGNAL_init>
     c5e:	cd df       	rcall	.-102    	; 0xbfa <JVC_IR_CMD_RECEIVED_SLOT_connect>
     c60:	6a ef       	ldi	r22, 0xFA	; 250
     c62:	71 e0       	ldi	r23, 0x01	; 1
     c64:	82 e0       	ldi	r24, 0x02	; 2
     c66:	92 e0       	ldi	r25, 0x02	; 2
     c68:	de d1       	rcall	.+956    	; 0x1026 <ir_protocol_jvc_set_timer>
     c6a:	d0 df       	rcall	.-96     	; 0xc0c <SONY_IR_CMD_RECEIVED_SIGNAL_init>
     c6c:	da df       	rcall	.-76     	; 0xc22 <SONY_IR_CMD_RECEIVED_SLOT_connect>
     c6e:	6a ef       	ldi	r22, 0xFA	; 250
     c70:	71 e0       	ldi	r23, 0x01	; 1
     c72:	82 e0       	ldi	r24, 0x02	; 2
     c74:	92 e0       	ldi	r25, 0x02	; 2
     c76:	48 d3       	rcall	.+1680   	; 0x1308 <ir_protocol_sony_set_timer>
     c78:	81 ee       	ldi	r24, 0xE1	; 225
     c7a:	91 e0       	ldi	r25, 0x01	; 1
     c7c:	9d cd       	rjmp	.-1222   	; 0x7b8 <mcu_task_controller_register_task>

00000c7e <ir_protocol_samsung_irq_callback>:
     c7e:	80 91 fe 03 	lds	r24, 0x03FE	; 0x8003fe <irq_counter>
     c82:	88 30       	cpi	r24, 0x08	; 8
     c84:	10 f4       	brcc	.+4      	; 0xc8a <ir_protocol_samsung_irq_callback+0xc>
     c86:	8f 5f       	subi	r24, 0xFF	; 255
     c88:	1a c0       	rjmp	.+52     	; 0xcbe <ir_protocol_samsung_irq_callback+0x40>
     c8a:	80 31       	cpi	r24, 0x10	; 16
     c8c:	20 f4       	brcc	.+8      	; 0xc96 <ir_protocol_samsung_irq_callback+0x18>
     c8e:	8f 5f       	subi	r24, 0xFF	; 255
     c90:	80 93 fe 03 	sts	0x03FE, r24	; 0x8003fe <irq_counter>
     c94:	10 c0       	rjmp	.+32     	; 0xcb6 <ir_protocol_samsung_irq_callback+0x38>
     c96:	e0 91 80 04 	lds	r30, 0x0480	; 0x800480 <data_bit_counter>
     c9a:	90 91 81 04 	lds	r25, 0x0481	; 0x800481 <data_bit_length>
     c9e:	e9 17       	cp	r30, r25
     ca0:	58 f4       	brcc	.+22     	; 0xcb8 <ir_protocol_samsung_irq_callback+0x3a>
     ca2:	81 e0       	ldi	r24, 0x01	; 1
     ca4:	8e 0f       	add	r24, r30
     ca6:	80 93 80 04 	sts	0x0480, r24	; 0x800480 <data_bit_counter>
     caa:	f0 e0       	ldi	r31, 0x00	; 0
     cac:	e0 50       	subi	r30, 0x00	; 0
     cae:	fc 4f       	sbci	r31, 0xFC	; 252
     cb0:	80 81       	ld	r24, Z
     cb2:	81 11       	cpse	r24, r1
     cb4:	06 c0       	rjmp	.+12     	; 0xcc2 <ir_protocol_samsung_irq_callback+0x44>
     cb6:	89 ca       	rjmp	.-2798   	; 0x1ca <IR_MOD_OUT_drive_low>
     cb8:	80 31       	cpi	r24, 0x10	; 16
     cba:	21 f4       	brne	.+8      	; 0xcc4 <ir_protocol_samsung_irq_callback+0x46>
     cbc:	81 e1       	ldi	r24, 0x11	; 17
     cbe:	80 93 fe 03 	sts	0x03FE, r24	; 0x8003fe <irq_counter>
     cc2:	79 ca       	rjmp	.-2830   	; 0x1b6 <IR_MOD_OUT_drive_high>
     cc4:	82 da       	rcall	.-2812   	; 0x1ca <IR_MOD_OUT_drive_low>
     cc6:	e0 91 84 04 	lds	r30, 0x0484	; 0x800484 <p_carrier>
     cca:	f0 91 85 04 	lds	r31, 0x0485	; 0x800485 <p_carrier+0x1>
     cce:	06 80       	ldd	r0, Z+6	; 0x06
     cd0:	f7 81       	ldd	r31, Z+7	; 0x07
     cd2:	e0 2d       	mov	r30, r0
     cd4:	09 95       	icall
     cd6:	e0 91 82 04 	lds	r30, 0x0482	; 0x800482 <p_modulator>
     cda:	f0 91 83 04 	lds	r31, 0x0483	; 0x800483 <p_modulator+0x1>
     cde:	06 80       	ldd	r0, Z+6	; 0x06
     ce0:	f7 81       	ldd	r31, Z+7	; 0x07
     ce2:	e0 2d       	mov	r30, r0
     ce4:	09 95       	icall
     ce6:	10 92 fe 03 	sts	0x03FE, r1	; 0x8003fe <irq_counter>
     cea:	10 92 ff 03 	sts	0x03FF, r1	; 0x8003ff <transmit_guard>
     cee:	08 95       	ret

00000cf0 <ir_protocol_samsung_is_busy>:
     cf0:	81 e0       	ldi	r24, 0x01	; 1
     cf2:	90 91 ff 03 	lds	r25, 0x03FF	; 0x8003ff <transmit_guard>
     cf6:	91 11       	cpse	r25, r1
     cf8:	01 c0       	rjmp	.+2      	; 0xcfc <ir_protocol_samsung_is_busy+0xc>
     cfa:	80 e0       	ldi	r24, 0x00	; 0
     cfc:	08 95       	ret

00000cfe <ir_protocol_samsung_set_timer>:
     cfe:	90 93 85 04 	sts	0x0485, r25	; 0x800485 <p_carrier+0x1>
     d02:	80 93 84 04 	sts	0x0484, r24	; 0x800484 <p_carrier>
     d06:	70 93 83 04 	sts	0x0483, r23	; 0x800483 <p_modulator+0x1>
     d0a:	60 93 82 04 	sts	0x0482, r22	; 0x800482 <p_modulator>
     d0e:	08 95       	ret

00000d10 <ir_protocol_samsung_transmit>:
     d10:	cf 92       	push	r12
     d12:	df 92       	push	r13
     d14:	ff 92       	push	r15
     d16:	0f 93       	push	r16
     d18:	1f 93       	push	r17
     d1a:	cf 93       	push	r28
     d1c:	df 93       	push	r29
     d1e:	cd b7       	in	r28, 0x3d	; 61
     d20:	de b7       	in	r29, 0x3e	; 62
     d22:	a0 97       	sbiw	r28, 0x20	; 32
     d24:	0f b6       	in	r0, 0x3f	; 63
     d26:	f8 94       	cli
     d28:	de bf       	out	0x3e, r29	; 62
     d2a:	0f be       	out	0x3f, r0	; 63
     d2c:	cd bf       	out	0x3d, r28	; 61
     d2e:	f0 90 ff 03 	lds	r15, 0x03FF	; 0x8003ff <transmit_guard>
     d32:	f1 10       	cpse	r15, r1
     d34:	94 c0       	rjmp	.+296    	; 0xe5e <ir_protocol_samsung_transmit+0x14e>
     d36:	6c 01       	movw	r12, r24
     d38:	81 e0       	ldi	r24, 0x01	; 1
     d3a:	80 93 ff 03 	sts	0x03FF, r24	; 0x8003ff <transmit_guard>
     d3e:	e0 91 84 04 	lds	r30, 0x0484	; 0x800484 <p_carrier>
     d42:	f0 91 85 04 	lds	r31, 0x0485	; 0x800485 <p_carrier+0x1>
     d46:	06 80       	ldd	r0, Z+6	; 0x06
     d48:	f7 81       	ldd	r31, Z+7	; 0x07
     d4a:	e0 2d       	mov	r30, r0
     d4c:	09 95       	icall
     d4e:	e0 91 82 04 	lds	r30, 0x0482	; 0x800482 <p_modulator>
     d52:	f0 91 83 04 	lds	r31, 0x0483	; 0x800483 <p_modulator+0x1>
     d56:	06 80       	ldd	r0, Z+6	; 0x06
     d58:	f7 81       	ldd	r31, Z+7	; 0x07
     d5a:	e0 2d       	mov	r30, r0
     d5c:	09 95       	icall
     d5e:	10 92 81 04 	sts	0x0481, r1	; 0x800481 <data_bit_length>
     d62:	10 92 80 04 	sts	0x0480, r1	; 0x800480 <data_bit_counter>
     d66:	8e 01       	movw	r16, r28
     d68:	0f 5f       	subi	r16, 0xFF	; 255
     d6a:	1f 4f       	sbci	r17, 0xFF	; 255
     d6c:	80 e2       	ldi	r24, 0x20	; 32
     d6e:	f8 01       	movw	r30, r16
     d70:	11 92       	st	Z+, r1
     d72:	8a 95       	dec	r24
     d74:	e9 f7       	brne	.-6      	; 0xd70 <ir_protocol_samsung_transmit+0x60>
     d76:	f6 01       	movw	r30, r12
     d78:	80 81       	ld	r24, Z
     d7a:	89 83       	std	Y+1, r24	; 0x01
     d7c:	8a 83       	std	Y+2, r24	; 0x02
     d7e:	81 81       	ldd	r24, Z+1	; 0x01
     d80:	8b 83       	std	Y+3, r24	; 0x03
     d82:	80 95       	com	r24
     d84:	8c 83       	std	Y+4, r24	; 0x04
     d86:	40 e2       	ldi	r20, 0x20	; 32
     d88:	50 e0       	ldi	r21, 0x00	; 0
     d8a:	90 e8       	ldi	r25, 0x80	; 128
     d8c:	61 e0       	ldi	r22, 0x01	; 1
     d8e:	f8 01       	movw	r30, r16
     d90:	e5 0f       	add	r30, r21
     d92:	f1 1d       	adc	r31, r1
     d94:	70 81       	ld	r23, Z
     d96:	79 23       	and	r23, r25
     d98:	2f 2d       	mov	r18, r15
     d9a:	30 e0       	ldi	r19, 0x00	; 0
     d9c:	e1 e0       	ldi	r30, 0x01	; 1
     d9e:	ef 0d       	add	r30, r15
     da0:	82 e0       	ldi	r24, 0x02	; 2
     da2:	8f 0d       	add	r24, r15
     da4:	d9 01       	movw	r26, r18
     da6:	a0 50       	subi	r26, 0x00	; 0
     da8:	bc 4f       	sbci	r27, 0xFC	; 252
     daa:	6c 93       	st	X, r22
     dac:	77 23       	and	r23, r23
     dae:	79 f0       	breq	.+30     	; 0xdce <ir_protocol_samsung_transmit+0xbe>
     db0:	f0 e0       	ldi	r31, 0x00	; 0
     db2:	e0 50       	subi	r30, 0x00	; 0
     db4:	fc 4f       	sbci	r31, 0xFC	; 252
     db6:	10 82       	st	Z, r1
     db8:	e8 2f       	mov	r30, r24
     dba:	f0 e0       	ldi	r31, 0x00	; 0
     dbc:	e0 50       	subi	r30, 0x00	; 0
     dbe:	fc 4f       	sbci	r31, 0xFC	; 252
     dc0:	10 82       	st	Z, r1
     dc2:	e3 e0       	ldi	r30, 0x03	; 3
     dc4:	ef 0d       	add	r30, r15
     dc6:	f0 e0       	ldi	r31, 0x00	; 0
     dc8:	84 e0       	ldi	r24, 0x04	; 4
     dca:	f8 0e       	add	r15, r24
     dcc:	02 c0       	rjmp	.+4      	; 0xdd2 <ir_protocol_samsung_transmit+0xc2>
     dce:	f8 2e       	mov	r15, r24
     dd0:	f0 e0       	ldi	r31, 0x00	; 0
     dd2:	e0 50       	subi	r30, 0x00	; 0
     dd4:	fc 4f       	sbci	r31, 0xFC	; 252
     dd6:	10 82       	st	Z, r1
     dd8:	96 95       	lsr	r25
     dda:	41 50       	subi	r20, 0x01	; 1
     ddc:	29 f0       	breq	.+10     	; 0xde8 <ir_protocol_samsung_transmit+0xd8>
     dde:	91 11       	cpse	r25, r1
     de0:	d6 cf       	rjmp	.-84     	; 0xd8e <ir_protocol_samsung_transmit+0x7e>
     de2:	5f 5f       	subi	r21, 0xFF	; 255
     de4:	90 e8       	ldi	r25, 0x80	; 128
     de6:	d3 cf       	rjmp	.-90     	; 0xd8e <ir_protocol_samsung_transmit+0x7e>
     de8:	f0 92 81 04 	sts	0x0481, r15	; 0x800481 <data_bit_length>
     dec:	10 92 fe 03 	sts	0x03FE, r1	; 0x8003fe <irq_counter>
     df0:	ec d9       	rcall	.-3112   	; 0x1ca <IR_MOD_OUT_drive_low>
     df2:	1b 82       	std	Y+3, r1	; 0x03
     df4:	8f e3       	ldi	r24, 0x3F	; 63
     df6:	96 e0       	ldi	r25, 0x06	; 6
     df8:	9a 83       	std	Y+2, r25	; 0x02
     dfa:	89 83       	std	Y+1, r24	; 0x01
     dfc:	1e 82       	std	Y+6, r1	; 0x06
     dfe:	83 e0       	ldi	r24, 0x03	; 3
     e00:	8c 83       	std	Y+4, r24	; 0x04
     e02:	e0 91 82 04 	lds	r30, 0x0482	; 0x800482 <p_modulator>
     e06:	f0 91 83 04 	lds	r31, 0x0483	; 0x800483 <p_modulator+0x1>
     e0a:	02 80       	ldd	r0, Z+2	; 0x02
     e0c:	f3 81       	ldd	r31, Z+3	; 0x03
     e0e:	e0 2d       	mov	r30, r0
     e10:	c8 01       	movw	r24, r16
     e12:	09 95       	icall
     e14:	82 e0       	ldi	r24, 0x02	; 2
     e16:	8b 83       	std	Y+3, r24	; 0x03
     e18:	1a 82       	std	Y+2, r1	; 0x02
     e1a:	19 82       	std	Y+1, r1	; 0x01
     e1c:	81 e0       	ldi	r24, 0x01	; 1
     e1e:	8e 83       	std	Y+6, r24	; 0x06
     e20:	e0 91 84 04 	lds	r30, 0x0484	; 0x800484 <p_carrier>
     e24:	f0 91 85 04 	lds	r31, 0x0485	; 0x800485 <p_carrier+0x1>
     e28:	02 80       	ldd	r0, Z+2	; 0x02
     e2a:	f3 81       	ldd	r31, Z+3	; 0x03
     e2c:	e0 2d       	mov	r30, r0
     e2e:	c8 01       	movw	r24, r16
     e30:	09 95       	icall
     e32:	e0 91 84 04 	lds	r30, 0x0484	; 0x800484 <p_carrier>
     e36:	f0 91 85 04 	lds	r31, 0x0485	; 0x800485 <p_carrier+0x1>
     e3a:	04 80       	ldd	r0, Z+4	; 0x04
     e3c:	f5 81       	ldd	r31, Z+5	; 0x05
     e3e:	e0 2d       	mov	r30, r0
     e40:	6f ef       	ldi	r22, 0xFF	; 255
     e42:	7f ef       	ldi	r23, 0xFF	; 255
     e44:	cb 01       	movw	r24, r22
     e46:	09 95       	icall
     e48:	e0 91 82 04 	lds	r30, 0x0482	; 0x800482 <p_modulator>
     e4c:	f0 91 83 04 	lds	r31, 0x0483	; 0x800483 <p_modulator+0x1>
     e50:	04 80       	ldd	r0, Z+4	; 0x04
     e52:	f5 81       	ldd	r31, Z+5	; 0x05
     e54:	e0 2d       	mov	r30, r0
     e56:	6f ef       	ldi	r22, 0xFF	; 255
     e58:	7f ef       	ldi	r23, 0xFF	; 255
     e5a:	cb 01       	movw	r24, r22
     e5c:	09 95       	icall
     e5e:	a0 96       	adiw	r28, 0x20	; 32
     e60:	0f b6       	in	r0, 0x3f	; 63
     e62:	f8 94       	cli
     e64:	de bf       	out	0x3e, r29	; 62
     e66:	0f be       	out	0x3f, r0	; 63
     e68:	cd bf       	out	0x3d, r28	; 61
     e6a:	df 91       	pop	r29
     e6c:	cf 91       	pop	r28
     e6e:	1f 91       	pop	r17
     e70:	0f 91       	pop	r16
     e72:	ff 90       	pop	r15
     e74:	df 90       	pop	r13
     e76:	cf 90       	pop	r12
     e78:	08 95       	ret

00000e7a <ir_protocol_samsung_address_tv>:
     e7a:	20 ee       	ldi	r18, 0xE0	; 224
     e7c:	fc 01       	movw	r30, r24
     e7e:	20 83       	st	Z, r18
     e80:	08 95       	ret

00000e82 <ir_protocol_samsung_cmd_tv_power>:
     e82:	20 e4       	ldi	r18, 0x40	; 64
     e84:	fc 01       	movw	r30, r24
     e86:	21 83       	std	Z+1, r18	; 0x01
     e88:	08 95       	ret

00000e8a <ir_protocol_samsung_cmd_tv_volume_up>:
     e8a:	20 ee       	ldi	r18, 0xE0	; 224
     e8c:	fc 01       	movw	r30, r24
     e8e:	21 83       	std	Z+1, r18	; 0x01
     e90:	08 95       	ret

00000e92 <ir_protocol_samsung_cmd_tv_volume_down>:
     e92:	20 ed       	ldi	r18, 0xD0	; 208
     e94:	fc 01       	movw	r30, r24
     e96:	21 83       	std	Z+1, r18	; 0x01
     e98:	08 95       	ret

00000e9a <ir_protocol_samsung_cmd_tv_volume_mute>:
     e9a:	20 ef       	ldi	r18, 0xF0	; 240
     e9c:	fc 01       	movw	r30, r24
     e9e:	21 83       	std	Z+1, r18	; 0x01
     ea0:	08 95       	ret

00000ea2 <ir_protocol_samsung_cmd_tv_channel_up>:
     ea2:	28 e4       	ldi	r18, 0x48	; 72
     ea4:	fc 01       	movw	r30, r24
     ea6:	21 83       	std	Z+1, r18	; 0x01
     ea8:	08 95       	ret

00000eaa <ir_protocol_samsung_cmd_tv_channel_down>:
     eaa:	28 e0       	ldi	r18, 0x08	; 8
     eac:	fc 01       	movw	r30, r24
     eae:	21 83       	std	Z+1, r18	; 0x01
     eb0:	08 95       	ret

00000eb2 <ir_protocol_samsung_cmd_tv_channel_0>:
     eb2:	28 e8       	ldi	r18, 0x88	; 136
     eb4:	fc 01       	movw	r30, r24
     eb6:	21 83       	std	Z+1, r18	; 0x01
     eb8:	08 95       	ret

00000eba <ir_protocol_samsung_cmd_tv_channel_1>:
     eba:	20 e2       	ldi	r18, 0x20	; 32
     ebc:	fc 01       	movw	r30, r24
     ebe:	21 83       	std	Z+1, r18	; 0x01
     ec0:	08 95       	ret

00000ec2 <ir_protocol_samsung_cmd_tv_channel_2>:
     ec2:	20 ea       	ldi	r18, 0xA0	; 160
     ec4:	fc 01       	movw	r30, r24
     ec6:	21 83       	std	Z+1, r18	; 0x01
     ec8:	08 95       	ret

00000eca <ir_protocol_samsung_cmd_tv_channel_3>:
     eca:	20 e6       	ldi	r18, 0x60	; 96
     ecc:	fc 01       	movw	r30, r24
     ece:	21 83       	std	Z+1, r18	; 0x01
     ed0:	08 95       	ret

00000ed2 <ir_protocol_samsung_cmd_tv_channel_4>:
     ed2:	20 e1       	ldi	r18, 0x10	; 16
     ed4:	fc 01       	movw	r30, r24
     ed6:	21 83       	std	Z+1, r18	; 0x01
     ed8:	08 95       	ret

00000eda <ir_protocol_samsung_cmd_tv_channel_5>:
     eda:	20 e9       	ldi	r18, 0x90	; 144
     edc:	fc 01       	movw	r30, r24
     ede:	21 83       	std	Z+1, r18	; 0x01
     ee0:	08 95       	ret

00000ee2 <ir_protocol_samsung_cmd_tv_channel_6>:
     ee2:	20 e5       	ldi	r18, 0x50	; 80
     ee4:	fc 01       	movw	r30, r24
     ee6:	21 83       	std	Z+1, r18	; 0x01
     ee8:	08 95       	ret

00000eea <ir_protocol_samsung_cmd_tv_channel_7>:
     eea:	20 ed       	ldi	r18, 0xD0	; 208
     eec:	fc 01       	movw	r30, r24
     eee:	21 83       	std	Z+1, r18	; 0x01
     ef0:	08 95       	ret

00000ef2 <ir_protocol_samsung_cmd_tv_channel_8>:
     ef2:	20 eb       	ldi	r18, 0xB0	; 176
     ef4:	fc 01       	movw	r30, r24
     ef6:	21 83       	std	Z+1, r18	; 0x01
     ef8:	08 95       	ret

00000efa <ir_protocol_samsung_cmd_tv_channel_9>:
     efa:	20 e7       	ldi	r18, 0x70	; 112
     efc:	fc 01       	movw	r30, r24
     efe:	21 83       	std	Z+1, r18	; 0x01
     f00:	08 95       	ret

00000f02 <ir_protocol_samsung_cmd_tv_enter>:
     f02:	26 e1       	ldi	r18, 0x16	; 22
     f04:	fc 01       	movw	r30, r24
     f06:	21 83       	std	Z+1, r18	; 0x01
     f08:	08 95       	ret

00000f0a <ir_protocol_samsung_cmd_tv_exit>:
     f0a:	24 eb       	ldi	r18, 0xB4	; 180
     f0c:	fc 01       	movw	r30, r24
     f0e:	21 83       	std	Z+1, r18	; 0x01
     f10:	08 95       	ret

00000f12 <ir_protocol_samsung_cmd_tv_return>:
     f12:	2a e1       	ldi	r18, 0x1A	; 26
     f14:	fc 01       	movw	r30, r24
     f16:	21 83       	std	Z+1, r18	; 0x01
     f18:	08 95       	ret

00000f1a <ir_protocol_samsung_cmd_tv_arrow_up>:
     f1a:	26 e0       	ldi	r18, 0x06	; 6
     f1c:	fc 01       	movw	r30, r24
     f1e:	21 83       	std	Z+1, r18	; 0x01
     f20:	08 95       	ret

00000f22 <ir_protocol_samsung_cmd_tv_arrow_down>:
     f22:	26 e8       	ldi	r18, 0x86	; 134
     f24:	fc 01       	movw	r30, r24
     f26:	21 83       	std	Z+1, r18	; 0x01
     f28:	08 95       	ret

00000f2a <ir_protocol_samsung_cmd_tv_arrow_left>:
     f2a:	26 ea       	ldi	r18, 0xA6	; 166
     f2c:	fc 01       	movw	r30, r24
     f2e:	21 83       	std	Z+1, r18	; 0x01
     f30:	08 95       	ret

00000f32 <ir_protocol_samsung_cmd_tv_arrow_right>:
     f32:	26 e4       	ldi	r18, 0x46	; 70
     f34:	fc 01       	movw	r30, r24
     f36:	21 83       	std	Z+1, r18	; 0x01
     f38:	08 95       	ret

00000f3a <ir_protocol_samsung_cmd_tv_play>:
     f3a:	22 ee       	ldi	r18, 0xE2	; 226
     f3c:	fc 01       	movw	r30, r24
     f3e:	21 83       	std	Z+1, r18	; 0x01
     f40:	08 95       	ret

00000f42 <ir_protocol_samsung_cmd_tv_pause>:
     f42:	22 e5       	ldi	r18, 0x52	; 82
     f44:	fc 01       	movw	r30, r24
     f46:	21 83       	std	Z+1, r18	; 0x01
     f48:	08 95       	ret

00000f4a <ir_protocol_samsung_cmd_tv_stop>:
     f4a:	22 e6       	ldi	r18, 0x62	; 98
     f4c:	fc 01       	movw	r30, r24
     f4e:	21 83       	std	Z+1, r18	; 0x01
     f50:	08 95       	ret

00000f52 <ir_protocol_samsung_cmd_tv_program_guide>:
     f52:	22 ef       	ldi	r18, 0xF2	; 242
     f54:	fc 01       	movw	r30, r24
     f56:	21 83       	std	Z+1, r18	; 0x01
     f58:	08 95       	ret

00000f5a <ir_protocol_samsung_cmd_tv_home>:
     f5a:	2e e9       	ldi	r18, 0x9E	; 158
     f5c:	fc 01       	movw	r30, r24
     f5e:	21 83       	std	Z+1, r18	; 0x01
     f60:	08 95       	ret

00000f62 <ir_protocol_samsung_cmd_tv_channel_list>:
     f62:	26 ed       	ldi	r18, 0xD6	; 214
     f64:	fc 01       	movw	r30, r24
     f66:	21 83       	std	Z+1, r18	; 0x01
     f68:	08 95       	ret

00000f6a <ir_protocol_samsung_cmd_tv_source>:
     f6a:	20 e8       	ldi	r18, 0x80	; 128
     f6c:	fc 01       	movw	r30, r24
     f6e:	21 83       	std	Z+1, r18	; 0x01
     f70:	08 95       	ret

00000f72 <ir_protocol_jvc_irq_callback>:
     f72:	90 91 87 04 	lds	r25, 0x0487	; 0x800487 <irq_counter>
     f76:	90 31       	cpi	r25, 0x10	; 16
     f78:	20 f4       	brcc	.+8      	; 0xf82 <ir_protocol_jvc_irq_callback+0x10>
     f7a:	9f 5f       	subi	r25, 0xFF	; 255
     f7c:	90 93 87 04 	sts	0x0487, r25	; 0x800487 <irq_counter>
     f80:	24 c0       	rjmp	.+72     	; 0xfca <ir_protocol_jvc_irq_callback+0x58>
     f82:	98 31       	cpi	r25, 0x18	; 24
     f84:	20 f4       	brcc	.+8      	; 0xf8e <ir_protocol_jvc_irq_callback+0x1c>
     f86:	9f 5f       	subi	r25, 0xFF	; 255
     f88:	90 93 87 04 	sts	0x0487, r25	; 0x800487 <irq_counter>
     f8c:	15 c0       	rjmp	.+42     	; 0xfb8 <ir_protocol_jvc_irq_callback+0x46>
     f8e:	e0 91 09 05 	lds	r30, 0x0509	; 0x800509 <data_bit_counter>
     f92:	20 91 0a 05 	lds	r18, 0x050A	; 0x80050a <data_bit_length>
     f96:	80 91 86 04 	lds	r24, 0x0486	; 0x800486 <word_cycle_interval_counter>
     f9a:	e2 17       	cp	r30, r18
     f9c:	70 f4       	brcc	.+28     	; 0xfba <ir_protocol_jvc_irq_callback+0x48>
     f9e:	8f 5f       	subi	r24, 0xFF	; 255
     fa0:	80 93 86 04 	sts	0x0486, r24	; 0x800486 <word_cycle_interval_counter>
     fa4:	81 e0       	ldi	r24, 0x01	; 1
     fa6:	8e 0f       	add	r24, r30
     fa8:	80 93 09 05 	sts	0x0509, r24	; 0x800509 <data_bit_counter>
     fac:	f0 e0       	ldi	r31, 0x00	; 0
     fae:	e7 57       	subi	r30, 0x77	; 119
     fb0:	fb 4f       	sbci	r31, 0xFB	; 251
     fb2:	80 81       	ld	r24, Z
     fb4:	81 11       	cpse	r24, r1
     fb6:	09 c0       	rjmp	.+18     	; 0xfca <ir_protocol_jvc_irq_callback+0x58>
     fb8:	08 c9       	rjmp	.-3568   	; 0x1ca <IR_MOD_OUT_drive_low>
     fba:	98 31       	cpi	r25, 0x18	; 24
     fbc:	39 f4       	brne	.+14     	; 0xfcc <ir_protocol_jvc_irq_callback+0x5a>
     fbe:	99 e1       	ldi	r25, 0x19	; 25
     fc0:	90 93 87 04 	sts	0x0487, r25	; 0x800487 <irq_counter>
     fc4:	8f 5f       	subi	r24, 0xFF	; 255
     fc6:	80 93 86 04 	sts	0x0486, r24	; 0x800486 <word_cycle_interval_counter>
     fca:	f5 c8       	rjmp	.-3606   	; 0x1b6 <IR_MOD_OUT_drive_high>
     fcc:	88 35       	cpi	r24, 0x58	; 88
     fce:	70 f4       	brcc	.+28     	; 0xfec <ir_protocol_jvc_irq_callback+0x7a>
     fd0:	8f 5f       	subi	r24, 0xFF	; 255
     fd2:	80 93 86 04 	sts	0x0486, r24	; 0x800486 <word_cycle_interval_counter>
     fd6:	f9 d8       	rcall	.-3598   	; 0x1ca <IR_MOD_OUT_drive_low>
     fd8:	80 91 86 04 	lds	r24, 0x0486	; 0x800486 <word_cycle_interval_counter>
     fdc:	88 35       	cpi	r24, 0x58	; 88
     fde:	d9 f4       	brne	.+54     	; 0x1016 <ir_protocol_jvc_irq_callback+0xa4>
     fe0:	10 92 09 05 	sts	0x0509, r1	; 0x800509 <data_bit_counter>
     fe4:	88 e1       	ldi	r24, 0x18	; 24
     fe6:	80 93 87 04 	sts	0x0487, r24	; 0x800487 <irq_counter>
     fea:	08 95       	ret
     fec:	ee d8       	rcall	.-3620   	; 0x1ca <IR_MOD_OUT_drive_low>
     fee:	e0 91 0d 05 	lds	r30, 0x050D	; 0x80050d <p_carrier>
     ff2:	f0 91 0e 05 	lds	r31, 0x050E	; 0x80050e <p_carrier+0x1>
     ff6:	06 80       	ldd	r0, Z+6	; 0x06
     ff8:	f7 81       	ldd	r31, Z+7	; 0x07
     ffa:	e0 2d       	mov	r30, r0
     ffc:	09 95       	icall
     ffe:	e0 91 0b 05 	lds	r30, 0x050B	; 0x80050b <p_modulator>
    1002:	f0 91 0c 05 	lds	r31, 0x050C	; 0x80050c <p_modulator+0x1>
    1006:	06 80       	ldd	r0, Z+6	; 0x06
    1008:	f7 81       	ldd	r31, Z+7	; 0x07
    100a:	e0 2d       	mov	r30, r0
    100c:	09 95       	icall
    100e:	10 92 87 04 	sts	0x0487, r1	; 0x800487 <irq_counter>
    1012:	10 92 88 04 	sts	0x0488, r1	; 0x800488 <transmit_guard>
    1016:	08 95       	ret

00001018 <ir_protocol_jvc_is_busy>:
    1018:	81 e0       	ldi	r24, 0x01	; 1
    101a:	90 91 88 04 	lds	r25, 0x0488	; 0x800488 <transmit_guard>
    101e:	91 11       	cpse	r25, r1
    1020:	01 c0       	rjmp	.+2      	; 0x1024 <ir_protocol_jvc_is_busy+0xc>
    1022:	80 e0       	ldi	r24, 0x00	; 0
    1024:	08 95       	ret

00001026 <ir_protocol_jvc_set_timer>:
    1026:	90 93 0e 05 	sts	0x050E, r25	; 0x80050e <p_carrier+0x1>
    102a:	80 93 0d 05 	sts	0x050D, r24	; 0x80050d <p_carrier>
    102e:	70 93 0c 05 	sts	0x050C, r23	; 0x80050c <p_modulator+0x1>
    1032:	60 93 0b 05 	sts	0x050B, r22	; 0x80050b <p_modulator>
    1036:	08 95       	ret

00001038 <ir_protocol_jvc_transmit>:
    1038:	ef 92       	push	r14
    103a:	ff 92       	push	r15
    103c:	1f 93       	push	r17
    103e:	cf 93       	push	r28
    1040:	df 93       	push	r29
    1042:	00 d0       	rcall	.+0      	; 0x1044 <ir_protocol_jvc_transmit+0xc>
    1044:	00 d0       	rcall	.+0      	; 0x1046 <ir_protocol_jvc_transmit+0xe>
    1046:	00 d0       	rcall	.+0      	; 0x1048 <ir_protocol_jvc_transmit+0x10>
    1048:	cd b7       	in	r28, 0x3d	; 61
    104a:	de b7       	in	r29, 0x3e	; 62
    104c:	10 91 88 04 	lds	r17, 0x0488	; 0x800488 <transmit_guard>
    1050:	11 11       	cpse	r17, r1
    1052:	8f c0       	rjmp	.+286    	; 0x1172 <ir_protocol_jvc_transmit+0x13a>
    1054:	7c 01       	movw	r14, r24
    1056:	81 e0       	ldi	r24, 0x01	; 1
    1058:	80 93 88 04 	sts	0x0488, r24	; 0x800488 <transmit_guard>
    105c:	e0 91 0d 05 	lds	r30, 0x050D	; 0x80050d <p_carrier>
    1060:	f0 91 0e 05 	lds	r31, 0x050E	; 0x80050e <p_carrier+0x1>
    1064:	06 80       	ldd	r0, Z+6	; 0x06
    1066:	f7 81       	ldd	r31, Z+7	; 0x07
    1068:	e0 2d       	mov	r30, r0
    106a:	09 95       	icall
    106c:	e0 91 0b 05 	lds	r30, 0x050B	; 0x80050b <p_modulator>
    1070:	f0 91 0c 05 	lds	r31, 0x050C	; 0x80050c <p_modulator+0x1>
    1074:	06 80       	ldd	r0, Z+6	; 0x06
    1076:	f7 81       	ldd	r31, Z+7	; 0x07
    1078:	e0 2d       	mov	r30, r0
    107a:	09 95       	icall
    107c:	10 92 0a 05 	sts	0x050A, r1	; 0x80050a <data_bit_length>
    1080:	10 92 09 05 	sts	0x0509, r1	; 0x800509 <data_bit_counter>
    1084:	f7 01       	movw	r30, r14
    1086:	80 81       	ld	r24, Z
    1088:	89 83       	std	Y+1, r24	; 0x01
    108a:	81 81       	ldd	r24, Z+1	; 0x01
    108c:	8a 83       	std	Y+2, r24	; 0x02
    108e:	40 e1       	ldi	r20, 0x10	; 16
    1090:	50 e0       	ldi	r21, 0x00	; 0
    1092:	90 e8       	ldi	r25, 0x80	; 128
    1094:	61 e0       	ldi	r22, 0x01	; 1
    1096:	e1 e0       	ldi	r30, 0x01	; 1
    1098:	f0 e0       	ldi	r31, 0x00	; 0
    109a:	ec 0f       	add	r30, r28
    109c:	fd 1f       	adc	r31, r29
    109e:	e5 0f       	add	r30, r21
    10a0:	f1 1d       	adc	r31, r1
    10a2:	70 81       	ld	r23, Z
    10a4:	79 23       	and	r23, r25
    10a6:	21 2f       	mov	r18, r17
    10a8:	30 e0       	ldi	r19, 0x00	; 0
    10aa:	e1 e0       	ldi	r30, 0x01	; 1
    10ac:	e1 0f       	add	r30, r17
    10ae:	82 e0       	ldi	r24, 0x02	; 2
    10b0:	81 0f       	add	r24, r17
    10b2:	d9 01       	movw	r26, r18
    10b4:	a7 57       	subi	r26, 0x77	; 119
    10b6:	bb 4f       	sbci	r27, 0xFB	; 251
    10b8:	6c 93       	st	X, r22
    10ba:	77 23       	and	r23, r23
    10bc:	71 f0       	breq	.+28     	; 0x10da <ir_protocol_jvc_transmit+0xa2>
    10be:	f0 e0       	ldi	r31, 0x00	; 0
    10c0:	e7 57       	subi	r30, 0x77	; 119
    10c2:	fb 4f       	sbci	r31, 0xFB	; 251
    10c4:	10 82       	st	Z, r1
    10c6:	e8 2f       	mov	r30, r24
    10c8:	f0 e0       	ldi	r31, 0x00	; 0
    10ca:	e7 57       	subi	r30, 0x77	; 119
    10cc:	fb 4f       	sbci	r31, 0xFB	; 251
    10ce:	10 82       	st	Z, r1
    10d0:	e3 e0       	ldi	r30, 0x03	; 3
    10d2:	e1 0f       	add	r30, r17
    10d4:	f0 e0       	ldi	r31, 0x00	; 0
    10d6:	1c 5f       	subi	r17, 0xFC	; 252
    10d8:	02 c0       	rjmp	.+4      	; 0x10de <ir_protocol_jvc_transmit+0xa6>
    10da:	18 2f       	mov	r17, r24
    10dc:	f0 e0       	ldi	r31, 0x00	; 0
    10de:	e7 57       	subi	r30, 0x77	; 119
    10e0:	fb 4f       	sbci	r31, 0xFB	; 251
    10e2:	10 82       	st	Z, r1
    10e4:	96 95       	lsr	r25
    10e6:	41 50       	subi	r20, 0x01	; 1
    10e8:	29 f0       	breq	.+10     	; 0x10f4 <ir_protocol_jvc_transmit+0xbc>
    10ea:	91 11       	cpse	r25, r1
    10ec:	d4 cf       	rjmp	.-88     	; 0x1096 <ir_protocol_jvc_transmit+0x5e>
    10ee:	5f 5f       	subi	r21, 0xFF	; 255
    10f0:	90 e8       	ldi	r25, 0x80	; 128
    10f2:	d1 cf       	rjmp	.-94     	; 0x1096 <ir_protocol_jvc_transmit+0x5e>
    10f4:	10 93 0a 05 	sts	0x050A, r17	; 0x80050a <data_bit_length>
    10f8:	10 92 87 04 	sts	0x0487, r1	; 0x800487 <irq_counter>
    10fc:	10 92 86 04 	sts	0x0486, r1	; 0x800486 <word_cycle_interval_counter>
    1100:	64 d8       	rcall	.-3896   	; 0x1ca <IR_MOD_OUT_drive_low>
    1102:	1b 82       	std	Y+3, r1	; 0x03
    1104:	89 eb       	ldi	r24, 0xB9	; 185
    1106:	97 e0       	ldi	r25, 0x07	; 7
    1108:	9a 83       	std	Y+2, r25	; 0x02
    110a:	89 83       	std	Y+1, r24	; 0x01
    110c:	1e 82       	std	Y+6, r1	; 0x06
    110e:	84 e0       	ldi	r24, 0x04	; 4
    1110:	8c 83       	std	Y+4, r24	; 0x04
    1112:	e0 91 0b 05 	lds	r30, 0x050B	; 0x80050b <p_modulator>
    1116:	f0 91 0c 05 	lds	r31, 0x050C	; 0x80050c <p_modulator+0x1>
    111a:	02 80       	ldd	r0, Z+2	; 0x02
    111c:	f3 81       	ldd	r31, Z+3	; 0x03
    111e:	e0 2d       	mov	r30, r0
    1120:	ce 01       	movw	r24, r28
    1122:	01 96       	adiw	r24, 0x01	; 1
    1124:	09 95       	icall
    1126:	82 e0       	ldi	r24, 0x02	; 2
    1128:	8b 83       	std	Y+3, r24	; 0x03
    112a:	1a 82       	std	Y+2, r1	; 0x02
    112c:	19 82       	std	Y+1, r1	; 0x01
    112e:	81 e0       	ldi	r24, 0x01	; 1
    1130:	8e 83       	std	Y+6, r24	; 0x06
    1132:	e0 91 0d 05 	lds	r30, 0x050D	; 0x80050d <p_carrier>
    1136:	f0 91 0e 05 	lds	r31, 0x050E	; 0x80050e <p_carrier+0x1>
    113a:	02 80       	ldd	r0, Z+2	; 0x02
    113c:	f3 81       	ldd	r31, Z+3	; 0x03
    113e:	e0 2d       	mov	r30, r0
    1140:	ce 01       	movw	r24, r28
    1142:	01 96       	adiw	r24, 0x01	; 1
    1144:	09 95       	icall
    1146:	e0 91 0d 05 	lds	r30, 0x050D	; 0x80050d <p_carrier>
    114a:	f0 91 0e 05 	lds	r31, 0x050E	; 0x80050e <p_carrier+0x1>
    114e:	04 80       	ldd	r0, Z+4	; 0x04
    1150:	f5 81       	ldd	r31, Z+5	; 0x05
    1152:	e0 2d       	mov	r30, r0
    1154:	6f ef       	ldi	r22, 0xFF	; 255
    1156:	7f ef       	ldi	r23, 0xFF	; 255
    1158:	cb 01       	movw	r24, r22
    115a:	09 95       	icall
    115c:	e0 91 0b 05 	lds	r30, 0x050B	; 0x80050b <p_modulator>
    1160:	f0 91 0c 05 	lds	r31, 0x050C	; 0x80050c <p_modulator+0x1>
    1164:	04 80       	ldd	r0, Z+4	; 0x04
    1166:	f5 81       	ldd	r31, Z+5	; 0x05
    1168:	e0 2d       	mov	r30, r0
    116a:	6f ef       	ldi	r22, 0xFF	; 255
    116c:	7f ef       	ldi	r23, 0xFF	; 255
    116e:	cb 01       	movw	r24, r22
    1170:	09 95       	icall
    1172:	26 96       	adiw	r28, 0x06	; 6
    1174:	0f b6       	in	r0, 0x3f	; 63
    1176:	f8 94       	cli
    1178:	de bf       	out	0x3e, r29	; 62
    117a:	0f be       	out	0x3f, r0	; 63
    117c:	cd bf       	out	0x3d, r28	; 61
    117e:	df 91       	pop	r29
    1180:	cf 91       	pop	r28
    1182:	1f 91       	pop	r17
    1184:	ff 90       	pop	r15
    1186:	ef 90       	pop	r14
    1188:	08 95       	ret

0000118a <ir_protocol_jvc_address_radio>:
    118a:	29 ef       	ldi	r18, 0xF9	; 249
    118c:	fc 01       	movw	r30, r24
    118e:	20 83       	st	Z, r18
    1190:	08 95       	ret

00001192 <ir_protocol_jvc_cmd_radio_power>:
    1192:	fc 01       	movw	r30, r24
    1194:	11 82       	std	Z+1, r1	; 0x01
    1196:	08 95       	ret

00001198 <ir_protocol_jvc_cmd_radio_volume_up>:
    1198:	20 e8       	ldi	r18, 0x80	; 128
    119a:	fc 01       	movw	r30, r24
    119c:	21 83       	std	Z+1, r18	; 0x01
    119e:	08 95       	ret

000011a0 <ir_protocol_jvc_cmd_radio_volume_down>:
    11a0:	20 e4       	ldi	r18, 0x40	; 64
    11a2:	fc 01       	movw	r30, r24
    11a4:	21 83       	std	Z+1, r18	; 0x01
    11a6:	08 95       	ret

000011a8 <ir_protocol_jvc_cmd_radio_play>:
    11a8:	20 ed       	ldi	r18, 0xD0	; 208
    11aa:	fc 01       	movw	r30, r24
    11ac:	21 83       	std	Z+1, r18	; 0x01
    11ae:	08 95       	ret

000011b0 <ir_protocol_jvc_cmd_radio_pause>:
    11b0:	20 ed       	ldi	r18, 0xD0	; 208
    11b2:	fc 01       	movw	r30, r24
    11b4:	21 83       	std	Z+1, r18	; 0x01
    11b6:	08 95       	ret

000011b8 <ir_protocol_jvc_cmd_radio_stop>:
    11b8:	2e e8       	ldi	r18, 0x8E	; 142
    11ba:	fc 01       	movw	r30, r24
    11bc:	21 83       	std	Z+1, r18	; 0x01
    11be:	08 95       	ret

000011c0 <ir_protocol_jvc_cmd_radio_bass_up>:
    11c0:	21 ee       	ldi	r18, 0xE1	; 225
    11c2:	fc 01       	movw	r30, r24
    11c4:	21 83       	std	Z+1, r18	; 0x01
    11c6:	08 95       	ret

000011c8 <ir_protocol_jvc_cmd_radio_bass_down>:
    11c8:	21 e1       	ldi	r18, 0x11	; 17
    11ca:	fc 01       	movw	r30, r24
    11cc:	21 83       	std	Z+1, r18	; 0x01
    11ce:	08 95       	ret

000011d0 <ir_protocol_jvc_cmd_radio_sound_mode>:
    11d0:	21 ef       	ldi	r18, 0xF1	; 241
    11d2:	fc 01       	movw	r30, r24
    11d4:	21 83       	std	Z+1, r18	; 0x01
    11d6:	08 95       	ret

000011d8 <ir_protocol_sony_prepare_transmit_buffer_fill_buffer>:
    11d8:	27 fd       	sbrc	r18, 7
    11da:	20 c0       	rjmp	.+64     	; 0x121c <ir_protocol_sony_prepare_transmit_buffer_fill_buffer+0x44>
    11dc:	30 e0       	ldi	r19, 0x00	; 0
    11de:	51 e0       	ldi	r21, 0x01	; 1
    11e0:	38 17       	cp	r19, r24
    11e2:	e1 f0       	breq	.+56     	; 0x121c <ir_protocol_sony_prepare_transmit_buffer_fill_buffer+0x44>
    11e4:	a2 2f       	mov	r26, r18
    11e6:	b0 e0       	ldi	r27, 0x00	; 0
    11e8:	92 e0       	ldi	r25, 0x02	; 2
    11ea:	92 0f       	add	r25, r18
    11ec:	e1 e0       	ldi	r30, 0x01	; 1
    11ee:	e2 0f       	add	r30, r18
    11f0:	76 2f       	mov	r23, r22
    11f2:	74 23       	and	r23, r20
    11f4:	ad 5e       	subi	r26, 0xED	; 237
    11f6:	ba 4f       	sbci	r27, 0xFA	; 250
    11f8:	1c 92       	st	X, r1
    11fa:	77 23       	and	r23, r23
    11fc:	39 f0       	breq	.+14     	; 0x120c <ir_protocol_sony_prepare_transmit_buffer_fill_buffer+0x34>
    11fe:	f0 e0       	ldi	r31, 0x00	; 0
    1200:	ed 5e       	subi	r30, 0xED	; 237
    1202:	fa 4f       	sbci	r31, 0xFA	; 250
    1204:	50 83       	st	Z, r21
    1206:	2d 5f       	subi	r18, 0xFD	; 253
    1208:	e9 2f       	mov	r30, r25
    120a:	01 c0       	rjmp	.+2      	; 0x120e <ir_protocol_sony_prepare_transmit_buffer_fill_buffer+0x36>
    120c:	29 2f       	mov	r18, r25
    120e:	f0 e0       	ldi	r31, 0x00	; 0
    1210:	ed 5e       	subi	r30, 0xED	; 237
    1212:	fa 4f       	sbci	r31, 0xFA	; 250
    1214:	50 83       	st	Z, r21
    1216:	66 95       	lsr	r22
    1218:	3f 5f       	subi	r19, 0xFF	; 255
    121a:	e2 cf       	rjmp	.-60     	; 0x11e0 <ir_protocol_sony_prepare_transmit_buffer_fill_buffer+0x8>
    121c:	82 2f       	mov	r24, r18
    121e:	08 95       	ret

00001220 <ir_protocol_sony_irq_callback>:
    1220:	80 91 11 05 	lds	r24, 0x0511	; 0x800511 <irq_counter>
    1224:	84 30       	cpi	r24, 0x04	; 4
    1226:	28 f4       	brcc	.+10     	; 0x1232 <ir_protocol_sony_irq_callback+0x12>
    1228:	8f 5f       	subi	r24, 0xFF	; 255
    122a:	80 93 11 05 	sts	0x0511, r24	; 0x800511 <irq_counter>
    122e:	0c 94 db 00 	jmp	0x1b6	; 0x1b6 <IR_MOD_OUT_drive_high>
    1232:	e0 91 93 05 	lds	r30, 0x0593	; 0x800593 <data_bit_counter>
    1236:	80 91 94 05 	lds	r24, 0x0594	; 0x800594 <data_bit_length>
    123a:	e8 17       	cp	r30, r24
    123c:	88 f4       	brcc	.+34     	; 0x1260 <ir_protocol_sony_irq_callback+0x40>
    123e:	f0 e0       	ldi	r31, 0x00	; 0
    1240:	ed 5e       	subi	r30, 0xED	; 237
    1242:	fa 4f       	sbci	r31, 0xFA	; 250
    1244:	80 81       	ld	r24, Z
    1246:	88 23       	and	r24, r24
    1248:	19 f0       	breq	.+6      	; 0x1250 <ir_protocol_sony_irq_callback+0x30>
    124a:	0e 94 db 00 	call	0x1b6	; 0x1b6 <IR_MOD_OUT_drive_high>
    124e:	02 c0       	rjmp	.+4      	; 0x1254 <ir_protocol_sony_irq_callback+0x34>
    1250:	0e 94 e5 00 	call	0x1ca	; 0x1ca <IR_MOD_OUT_drive_low>
    1254:	80 91 93 05 	lds	r24, 0x0593	; 0x800593 <data_bit_counter>
    1258:	8f 5f       	subi	r24, 0xFF	; 255
    125a:	80 93 93 05 	sts	0x0593, r24	; 0x800593 <data_bit_counter>
    125e:	08 95       	ret
    1260:	80 91 10 05 	lds	r24, 0x0510	; 0x800510 <frame_counter>
    1264:	82 30       	cpi	r24, 0x02	; 2
    1266:	a0 f5       	brcc	.+104    	; 0x12d0 <ir_protocol_sony_irq_callback+0xb0>
    1268:	80 91 0f 05 	lds	r24, 0x050F	; 0x80050f <turn_off_signal>
    126c:	81 11       	cpse	r24, r1
    126e:	0d c0       	rjmp	.+26     	; 0x128a <ir_protocol_sony_irq_callback+0x6a>
    1270:	81 e0       	ldi	r24, 0x01	; 1
    1272:	80 93 0f 05 	sts	0x050F, r24	; 0x80050f <turn_off_signal>
    1276:	0e 94 e5 00 	call	0x1ca	; 0x1ca <IR_MOD_OUT_drive_low>
    127a:	e0 91 97 05 	lds	r30, 0x0597	; 0x800597 <p_carrier>
    127e:	f0 91 98 05 	lds	r31, 0x0598	; 0x800598 <p_carrier+0x1>
    1282:	06 80       	ldd	r0, Z+6	; 0x06
    1284:	f7 81       	ldd	r31, Z+7	; 0x07
    1286:	e0 2d       	mov	r30, r0
    1288:	09 95       	icall
    128a:	6e e2       	ldi	r22, 0x2E	; 46
    128c:	89 e9       	ldi	r24, 0x99	; 153
    128e:	95 e0       	ldi	r25, 0x05	; 5
    1290:	30 da       	rcall	.-2976   	; 0x6f2 <time_mgmnt_istimeup_u8>
    1292:	88 23       	and	r24, r24
    1294:	89 f1       	breq	.+98     	; 0x12f8 <ir_protocol_sony_irq_callback+0xd8>
    1296:	89 e9       	ldi	r24, 0x99	; 153
    1298:	95 e0       	ldi	r25, 0x05	; 5
    129a:	e1 d9       	rcall	.-3134   	; 0x65e <time_mgmnt_start_u8>
    129c:	e0 91 97 05 	lds	r30, 0x0597	; 0x800597 <p_carrier>
    12a0:	f0 91 98 05 	lds	r31, 0x0598	; 0x800598 <p_carrier+0x1>
    12a4:	04 80       	ldd	r0, Z+4	; 0x04
    12a6:	f5 81       	ldd	r31, Z+5	; 0x05
    12a8:	e0 2d       	mov	r30, r0
    12aa:	6f ef       	ldi	r22, 0xFF	; 255
    12ac:	7f ef       	ldi	r23, 0xFF	; 255
    12ae:	cb 01       	movw	r24, r22
    12b0:	09 95       	icall
    12b2:	0e 94 db 00 	call	0x1b6	; 0x1b6 <IR_MOD_OUT_drive_high>
    12b6:	80 91 10 05 	lds	r24, 0x0510	; 0x800510 <frame_counter>
    12ba:	8f 5f       	subi	r24, 0xFF	; 255
    12bc:	80 93 10 05 	sts	0x0510, r24	; 0x800510 <frame_counter>
    12c0:	81 e0       	ldi	r24, 0x01	; 1
    12c2:	80 93 11 05 	sts	0x0511, r24	; 0x800511 <irq_counter>
    12c6:	10 92 93 05 	sts	0x0593, r1	; 0x800593 <data_bit_counter>
    12ca:	10 92 0f 05 	sts	0x050F, r1	; 0x80050f <turn_off_signal>
    12ce:	08 95       	ret
    12d0:	0e 94 e5 00 	call	0x1ca	; 0x1ca <IR_MOD_OUT_drive_low>
    12d4:	e0 91 97 05 	lds	r30, 0x0597	; 0x800597 <p_carrier>
    12d8:	f0 91 98 05 	lds	r31, 0x0598	; 0x800598 <p_carrier+0x1>
    12dc:	06 80       	ldd	r0, Z+6	; 0x06
    12de:	f7 81       	ldd	r31, Z+7	; 0x07
    12e0:	e0 2d       	mov	r30, r0
    12e2:	09 95       	icall
    12e4:	e0 91 95 05 	lds	r30, 0x0595	; 0x800595 <p_modulator>
    12e8:	f0 91 96 05 	lds	r31, 0x0596	; 0x800596 <p_modulator+0x1>
    12ec:	06 80       	ldd	r0, Z+6	; 0x06
    12ee:	f7 81       	ldd	r31, Z+7	; 0x07
    12f0:	e0 2d       	mov	r30, r0
    12f2:	09 95       	icall
    12f4:	10 92 12 05 	sts	0x0512, r1	; 0x800512 <transmit_guard>
    12f8:	08 95       	ret

000012fa <ir_protocol_sony_is_busy>:
    12fa:	81 e0       	ldi	r24, 0x01	; 1
    12fc:	90 91 12 05 	lds	r25, 0x0512	; 0x800512 <transmit_guard>
    1300:	91 11       	cpse	r25, r1
    1302:	01 c0       	rjmp	.+2      	; 0x1306 <ir_protocol_sony_is_busy+0xc>
    1304:	80 e0       	ldi	r24, 0x00	; 0
    1306:	08 95       	ret

00001308 <ir_protocol_sony_set_timer>:
    1308:	90 93 98 05 	sts	0x0598, r25	; 0x800598 <p_carrier+0x1>
    130c:	80 93 97 05 	sts	0x0597, r24	; 0x800597 <p_carrier>
    1310:	70 93 96 05 	sts	0x0596, r23	; 0x800596 <p_modulator+0x1>
    1314:	60 93 95 05 	sts	0x0595, r22	; 0x800595 <p_modulator>
    1318:	08 95       	ret

0000131a <ir_protocol_sony_transmit>:
    131a:	a6 e0       	ldi	r26, 0x06	; 6
    131c:	b0 e0       	ldi	r27, 0x00	; 0
    131e:	e3 e9       	ldi	r30, 0x93	; 147
    1320:	f9 e0       	ldi	r31, 0x09	; 9
    1322:	0c 94 60 19 	jmp	0x32c0	; 0x32c0 <__prologue_saves__+0x1a>
    1326:	20 91 12 05 	lds	r18, 0x0512	; 0x800512 <transmit_guard>
    132a:	21 11       	cpse	r18, r1
    132c:	6d c0       	rjmp	.+218    	; 0x1408 <ir_protocol_sony_transmit+0xee>
    132e:	8c 01       	movw	r16, r24
    1330:	ff 24       	eor	r15, r15
    1332:	f3 94       	inc	r15
    1334:	f0 92 12 05 	sts	0x0512, r15	; 0x800512 <transmit_guard>
    1338:	e0 91 97 05 	lds	r30, 0x0597	; 0x800597 <p_carrier>
    133c:	f0 91 98 05 	lds	r31, 0x0598	; 0x800598 <p_carrier+0x1>
    1340:	06 80       	ldd	r0, Z+6	; 0x06
    1342:	f7 81       	ldd	r31, Z+7	; 0x07
    1344:	e0 2d       	mov	r30, r0
    1346:	09 95       	icall
    1348:	e0 91 95 05 	lds	r30, 0x0595	; 0x800595 <p_modulator>
    134c:	f0 91 96 05 	lds	r31, 0x0596	; 0x800596 <p_modulator+0x1>
    1350:	06 80       	ldd	r0, Z+6	; 0x06
    1352:	f7 81       	ldd	r31, Z+7	; 0x07
    1354:	e0 2d       	mov	r30, r0
    1356:	09 95       	icall
    1358:	10 92 93 05 	sts	0x0593, r1	; 0x800593 <data_bit_counter>
    135c:	20 e0       	ldi	r18, 0x00	; 0
    135e:	f8 01       	movw	r30, r16
    1360:	40 81       	ld	r20, Z
    1362:	60 e8       	ldi	r22, 0x80	; 128
    1364:	87 e0       	ldi	r24, 0x07	; 7
    1366:	38 df       	rcall	.-400    	; 0x11d8 <ir_protocol_sony_prepare_transmit_buffer_fill_buffer>
    1368:	28 2f       	mov	r18, r24
    136a:	f8 01       	movw	r30, r16
    136c:	41 81       	ldd	r20, Z+1	; 0x01
    136e:	60 e1       	ldi	r22, 0x10	; 16
    1370:	85 e0       	ldi	r24, 0x05	; 5
    1372:	32 df       	rcall	.-412    	; 0x11d8 <ir_protocol_sony_prepare_transmit_buffer_fill_buffer>
    1374:	28 2f       	mov	r18, r24
    1376:	f8 01       	movw	r30, r16
    1378:	42 81       	ldd	r20, Z+2	; 0x02
    137a:	60 e8       	ldi	r22, 0x80	; 128
    137c:	88 e0       	ldi	r24, 0x08	; 8
    137e:	2c df       	rcall	.-424    	; 0x11d8 <ir_protocol_sony_prepare_transmit_buffer_fill_buffer>
    1380:	80 93 94 05 	sts	0x0594, r24	; 0x800594 <data_bit_length>
    1384:	10 92 11 05 	sts	0x0511, r1	; 0x800511 <irq_counter>
    1388:	10 92 10 05 	sts	0x0510, r1	; 0x800510 <frame_counter>
    138c:	10 92 0f 05 	sts	0x050F, r1	; 0x80050f <turn_off_signal>
    1390:	0e 94 e5 00 	call	0x1ca	; 0x1ca <IR_MOD_OUT_drive_low>
    1394:	1b 82       	std	Y+3, r1	; 0x03
    1396:	80 e1       	ldi	r24, 0x10	; 16
    1398:	99 e0       	ldi	r25, 0x09	; 9
    139a:	9a 83       	std	Y+2, r25	; 0x02
    139c:	89 83       	std	Y+1, r24	; 0x01
    139e:	1e 82       	std	Y+6, r1	; 0x06
    13a0:	85 e0       	ldi	r24, 0x05	; 5
    13a2:	8c 83       	std	Y+4, r24	; 0x04
    13a4:	e0 91 95 05 	lds	r30, 0x0595	; 0x800595 <p_modulator>
    13a8:	f0 91 96 05 	lds	r31, 0x0596	; 0x800596 <p_modulator+0x1>
    13ac:	02 80       	ldd	r0, Z+2	; 0x02
    13ae:	f3 81       	ldd	r31, Z+3	; 0x03
    13b0:	e0 2d       	mov	r30, r0
    13b2:	ce 01       	movw	r24, r28
    13b4:	01 96       	adiw	r24, 0x01	; 1
    13b6:	09 95       	icall
    13b8:	84 e0       	ldi	r24, 0x04	; 4
    13ba:	8b 83       	std	Y+3, r24	; 0x03
    13bc:	1a 82       	std	Y+2, r1	; 0x02
    13be:	19 82       	std	Y+1, r1	; 0x01
    13c0:	fe 82       	std	Y+6, r15	; 0x06
    13c2:	e0 91 97 05 	lds	r30, 0x0597	; 0x800597 <p_carrier>
    13c6:	f0 91 98 05 	lds	r31, 0x0598	; 0x800598 <p_carrier+0x1>
    13ca:	02 80       	ldd	r0, Z+2	; 0x02
    13cc:	f3 81       	ldd	r31, Z+3	; 0x03
    13ce:	e0 2d       	mov	r30, r0
    13d0:	ce 01       	movw	r24, r28
    13d2:	01 96       	adiw	r24, 0x01	; 1
    13d4:	09 95       	icall
    13d6:	e0 91 97 05 	lds	r30, 0x0597	; 0x800597 <p_carrier>
    13da:	f0 91 98 05 	lds	r31, 0x0598	; 0x800598 <p_carrier+0x1>
    13de:	04 80       	ldd	r0, Z+4	; 0x04
    13e0:	f5 81       	ldd	r31, Z+5	; 0x05
    13e2:	e0 2d       	mov	r30, r0
    13e4:	6f ef       	ldi	r22, 0xFF	; 255
    13e6:	7f ef       	ldi	r23, 0xFF	; 255
    13e8:	cb 01       	movw	r24, r22
    13ea:	09 95       	icall
    13ec:	e0 91 95 05 	lds	r30, 0x0595	; 0x800595 <p_modulator>
    13f0:	f0 91 96 05 	lds	r31, 0x0596	; 0x800596 <p_modulator+0x1>
    13f4:	04 80       	ldd	r0, Z+4	; 0x04
    13f6:	f5 81       	ldd	r31, Z+5	; 0x05
    13f8:	e0 2d       	mov	r30, r0
    13fa:	6f ef       	ldi	r22, 0xFF	; 255
    13fc:	7f ef       	ldi	r23, 0xFF	; 255
    13fe:	cb 01       	movw	r24, r22
    1400:	09 95       	icall
    1402:	89 e9       	ldi	r24, 0x99	; 153
    1404:	95 e0       	ldi	r25, 0x05	; 5
    1406:	2b d9       	rcall	.-3498   	; 0x65e <time_mgmnt_start_u8>
    1408:	26 96       	adiw	r28, 0x06	; 6
    140a:	e5 e0       	ldi	r30, 0x05	; 5
    140c:	0c 94 7c 19 	jmp	0x32f8	; 0x32f8 <__epilogue_restores__+0x1a>

00001410 <ir_protocol_sony_address_bdplayer>:
    1410:	2b e0       	ldi	r18, 0x0B	; 11
    1412:	fc 01       	movw	r30, r24
    1414:	21 83       	std	Z+1, r18	; 0x01
    1416:	27 e4       	ldi	r18, 0x47	; 71
    1418:	22 83       	std	Z+2, r18	; 0x02
    141a:	08 95       	ret

0000141c <ir_protocol_sony_cmd_bdplayer_power>:
    141c:	28 ea       	ldi	r18, 0xA8	; 168
    141e:	fc 01       	movw	r30, r24
    1420:	20 83       	st	Z, r18
    1422:	08 95       	ret

00001424 <ir_protocol_sony_cmd_bdplayer_play>:
    1424:	28 e5       	ldi	r18, 0x58	; 88
    1426:	fc 01       	movw	r30, r24
    1428:	20 83       	st	Z, r18
    142a:	08 95       	ret

0000142c <ir_protocol_sony_cmd_bdplayer_stop>:
    142c:	28 e1       	ldi	r18, 0x18	; 24
    142e:	fc 01       	movw	r30, r24
    1430:	20 83       	st	Z, r18
    1432:	08 95       	ret

00001434 <ir_protocol_sony_cmd_bdplayer_pause>:
    1434:	28 e9       	ldi	r18, 0x98	; 152
    1436:	fc 01       	movw	r30, r24
    1438:	20 83       	st	Z, r18
    143a:	08 95       	ret

0000143c <ir_protocol_sony_cmd_bdplayer_audio_language>:
    143c:	26 e2       	ldi	r18, 0x26	; 38
    143e:	fc 01       	movw	r30, r24
    1440:	20 83       	st	Z, r18
    1442:	08 95       	ret

00001444 <ir_protocol_sony_cmd_bdplayer_subtitle_language>:
    1444:	26 ec       	ldi	r18, 0xC6	; 198
    1446:	fc 01       	movw	r30, r24
    1448:	20 83       	st	Z, r18
    144a:	08 95       	ret

0000144c <ir_protocol_sony_cmd_bdplayer_eject>:
    144c:	28 e6       	ldi	r18, 0x68	; 104
    144e:	fc 01       	movw	r30, r24
    1450:	20 83       	st	Z, r18
    1452:	08 95       	ret

00001454 <ir_protocol_sony_cmd_bdplayer_return>:
    1454:	22 ec       	ldi	r18, 0xC2	; 194
    1456:	fc 01       	movw	r30, r24
    1458:	20 83       	st	Z, r18
    145a:	08 95       	ret

0000145c <ir_protocol_sony_cmd_bdplayer_top_menu>:
    145c:	24 e3       	ldi	r18, 0x34	; 52
    145e:	fc 01       	movw	r30, r24
    1460:	20 83       	st	Z, r18
    1462:	08 95       	ret

00001464 <ir_protocol_sony_cmd_bdplayer_pop_up_menu>:
    1464:	24 e9       	ldi	r18, 0x94	; 148
    1466:	fc 01       	movw	r30, r24
    1468:	20 83       	st	Z, r18
    146a:	08 95       	ret

0000146c <ir_protocol_sony_cmd_bdplayer_next>:
    146c:	2a e6       	ldi	r18, 0x6A	; 106
    146e:	fc 01       	movw	r30, r24
    1470:	20 83       	st	Z, r18
    1472:	08 95       	ret

00001474 <ir_protocol_sony_cmd_bdplayer_previous>:
    1474:	2a ee       	ldi	r18, 0xEA	; 234
    1476:	fc 01       	movw	r30, r24
    1478:	20 83       	st	Z, r18
    147a:	08 95       	ret

0000147c <rpi_protocol_task_init>:
    147c:	08 95       	ret

0000147e <rpi_protocol_task_get_schedule_interval>:
    147e:	80 91 48 02 	lds	r24, 0x0248	; 0x800248 <actual_task_state>
    1482:	81 11       	cpse	r24, r1
    1484:	03 c0       	rjmp	.+6      	; 0x148c <rpi_protocol_task_get_schedule_interval+0xe>
    1486:	85 e0       	ldi	r24, 0x05	; 5
    1488:	90 e0       	ldi	r25, 0x00	; 0
    148a:	08 95       	ret
    148c:	80 e0       	ldi	r24, 0x00	; 0
    148e:	90 e0       	ldi	r25, 0x00	; 0
    1490:	08 95       	ret

00001492 <rpi_protocol_task_get_state>:
    1492:	e0 91 e6 05 	lds	r30, 0x05E6	; 0x8005e6 <p_com_driver>
    1496:	f0 91 e7 05 	lds	r31, 0x05E7	; 0x8005e7 <p_com_driver+0x1>
    149a:	30 97       	sbiw	r30, 0x00	; 0
    149c:	81 f0       	breq	.+32     	; 0x14be <rpi_protocol_task_get_state+0x2c>
    149e:	07 80       	ldd	r0, Z+7	; 0x07
    14a0:	f0 85       	ldd	r31, Z+8	; 0x08
    14a2:	e0 2d       	mov	r30, r0
    14a4:	09 95       	icall
    14a6:	90 91 48 02 	lds	r25, 0x0248	; 0x800248 <actual_task_state>
    14aa:	91 11       	cpse	r25, r1
    14ac:	05 c0       	rjmp	.+10     	; 0x14b8 <rpi_protocol_task_get_state+0x26>
    14ae:	88 23       	and	r24, r24
    14b0:	19 f0       	breq	.+6      	; 0x14b8 <rpi_protocol_task_get_state+0x26>
    14b2:	82 e0       	ldi	r24, 0x02	; 2
    14b4:	80 93 48 02 	sts	0x0248, r24	; 0x800248 <actual_task_state>
    14b8:	80 91 48 02 	lds	r24, 0x0248	; 0x800248 <actual_task_state>
    14bc:	08 95       	ret
    14be:	80 e0       	ldi	r24, 0x00	; 0
    14c0:	08 95       	ret

000014c2 <RPI_COMMAND_BUFFER_bytes_available>:
    14c2:	84 e5       	ldi	r24, 0x54	; 84
    14c4:	92 e0       	ldi	r25, 0x02	; 2
    14c6:	0c 94 17 02 	jmp	0x42e	; 0x42e <local_msg_buffer_bytes_available>

000014ca <RPI_ANSWER_BUFFER_start_write>:
    14ca:	89 e4       	ldi	r24, 0x49	; 73
    14cc:	92 e0       	ldi	r25, 0x02	; 2
    14ce:	0c 94 91 01 	jmp	0x322	; 0x322 <local_msg_buffer_start_write>

000014d2 <RPI_ANSWER_BUFFER_add_byte>:
    14d2:	68 2f       	mov	r22, r24
    14d4:	89 e4       	ldi	r24, 0x49	; 73
    14d6:	92 e0       	ldi	r25, 0x02	; 2
    14d8:	0c 94 9c 01 	jmp	0x338	; 0x338 <local_msg_buffer_add_byte>

000014dc <RPI_ANSWER_BUFFER_add_word>:
    14dc:	bc 01       	movw	r22, r24
    14de:	89 e4       	ldi	r24, 0x49	; 73
    14e0:	92 e0       	ldi	r25, 0x02	; 2
    14e2:	0c 94 c0 01 	jmp	0x380	; 0x380 <local_msg_buffer_add_word>

000014e6 <RPI_ANSWER_BUFFER_add_long>:
    14e6:	ab 01       	movw	r20, r22
    14e8:	bc 01       	movw	r22, r24
    14ea:	89 e4       	ldi	r24, 0x49	; 73
    14ec:	92 e0       	ldi	r25, 0x02	; 2
    14ee:	0c 94 cd 01 	jmp	0x39a	; 0x39a <local_msg_buffer_add_long>

000014f2 <RPI_ANSWER_BUFFER_add_N_bytes>:
    14f2:	ab 01       	movw	r20, r22
    14f4:	bc 01       	movw	r22, r24
    14f6:	89 e4       	ldi	r24, 0x49	; 73
    14f8:	92 e0       	ldi	r25, 0x02	; 2
    14fa:	0c 94 f0 01 	jmp	0x3e0	; 0x3e0 <local_msg_buffer_add_N_bytes>

000014fe <RPI_ANSWER_BUFFER_stop_write>:
    14fe:	89 e4       	ldi	r24, 0x49	; 73
    1500:	92 e0       	ldi	r25, 0x02	; 2
    1502:	0c 94 07 02 	jmp	0x40e	; 0x40e <local_msg_buffer_stop_write>

00001506 <RPI_COMMAND_BUFFER_start_read>:
    1506:	84 e5       	ldi	r24, 0x54	; 84
    1508:	92 e0       	ldi	r25, 0x02	; 2
    150a:	0c 94 0c 02 	jmp	0x418	; 0x418 <local_msg_buffer_start_read>

0000150e <RPI_COMMAND_BUFFER_get_byte>:
    150e:	84 e5       	ldi	r24, 0x54	; 84
    1510:	92 e0       	ldi	r25, 0x02	; 2
    1512:	0c 94 23 02 	jmp	0x446	; 0x446 <local_msg_buffer_get_byte>

00001516 <RPI_COMMAND_BUFFER_get_word>:
    1516:	84 e5       	ldi	r24, 0x54	; 84
    1518:	92 e0       	ldi	r25, 0x02	; 2
    151a:	0c 94 48 02 	jmp	0x490	; 0x490 <local_msg_buffer_get_word>

0000151e <RPI_COMMAND_BUFFER_get_long>:
    151e:	84 e5       	ldi	r24, 0x54	; 84
    1520:	92 e0       	ldi	r25, 0x02	; 2
    1522:	0c 94 5a 02 	jmp	0x4b4	; 0x4b4 <local_msg_buffer_get_long>

00001526 <RPI_COMMAND_BUFFER_get_N_bytes>:
    1526:	ab 01       	movw	r20, r22
    1528:	bc 01       	movw	r22, r24
    152a:	84 e5       	ldi	r24, 0x54	; 84
    152c:	92 e0       	ldi	r25, 0x02	; 2
    152e:	0c 94 86 02 	jmp	0x50c	; 0x50c <local_msg_buffer_get_N_bytes>

00001532 <RPI_COMMAND_BUFFER_stop_read>:
    1532:	84 e5       	ldi	r24, 0x54	; 84
    1534:	92 e0       	ldi	r25, 0x02	; 2
    1536:	0c c8       	rjmp	.-4072   	; 0x550 <local_msg_buffer_stop_read>

00001538 <_set_finished_i2c>:
    1538:	cf 93       	push	r28
    153a:	c8 2f       	mov	r28, r24
    153c:	61 e0       	ldi	r22, 0x01	; 1
    153e:	70 e0       	ldi	r23, 0x00	; 0
    1540:	80 e0       	ldi	r24, 0x00	; 0
    1542:	96 e0       	ldi	r25, 0x06	; 6
    1544:	0e 94 48 01 	call	0x290	; 0x290 <module_status_isset_u16>
    1548:	89 2b       	or	r24, r25
    154a:	71 f0       	breq	.+28     	; 0x1568 <_set_finished_i2c+0x30>
    154c:	c0 93 25 02 	sts	0x0225, r28	; 0x800225 <rpi_protocol_i2c_interface+0x2>
    1550:	61 e0       	ldi	r22, 0x01	; 1
    1552:	70 e0       	ldi	r23, 0x00	; 0
    1554:	80 e0       	ldi	r24, 0x00	; 0
    1556:	96 e0       	ldi	r25, 0x06	; 6
    1558:	0e 94 54 01 	call	0x2a8	; 0x2a8 <module_status_unset_u16>
    155c:	62 e0       	ldi	r22, 0x02	; 2
    155e:	70 e0       	ldi	r23, 0x00	; 0
    1560:	80 e0       	ldi	r24, 0x00	; 0
    1562:	96 e0       	ldi	r25, 0x06	; 6
    1564:	0e 94 40 01 	call	0x280	; 0x280 <module_status_set_u16>
    1568:	cf 91       	pop	r28
    156a:	08 95       	ret

0000156c <RPI_COMMAND_BUFFER_init>:
    156c:	84 e5       	ldi	r24, 0x54	; 84
    156e:	92 e0       	ldi	r25, 0x02	; 2
    1570:	0c 94 88 01 	jmp	0x310	; 0x310 <local_msg_buffer_init>

00001574 <RPI_COMMAND_BUFFER_clear_all>:
    1574:	84 e5       	ldi	r24, 0x54	; 84
    1576:	92 e0       	ldi	r25, 0x02	; 2
    1578:	0c 94 ad 02 	jmp	0x55a	; 0x55a <local_msg_buffer_clear_all>

0000157c <RPI_COMMAND_BUFFER_start_write>:
    157c:	84 e5       	ldi	r24, 0x54	; 84
    157e:	92 e0       	ldi	r25, 0x02	; 2
    1580:	0c 94 91 01 	jmp	0x322	; 0x322 <local_msg_buffer_start_write>

00001584 <RPI_COMMAND_BUFFER_add_N_bytes>:
    1584:	ab 01       	movw	r20, r22
    1586:	bc 01       	movw	r22, r24
    1588:	84 e5       	ldi	r24, 0x54	; 84
    158a:	92 e0       	ldi	r25, 0x02	; 2
    158c:	0c 94 f0 01 	jmp	0x3e0	; 0x3e0 <local_msg_buffer_add_N_bytes>

00001590 <RPI_COMMAND_BUFFER_stop_write>:
    1590:	84 e5       	ldi	r24, 0x54	; 84
    1592:	92 e0       	ldi	r25, 0x02	; 2
    1594:	0c 94 07 02 	jmp	0x40e	; 0x40e <local_msg_buffer_stop_write>

00001598 <RPI_ANSWER_BUFFER_init>:
    1598:	89 e4       	ldi	r24, 0x49	; 73
    159a:	92 e0       	ldi	r25, 0x02	; 2
    159c:	0c 94 88 01 	jmp	0x310	; 0x310 <local_msg_buffer_init>

000015a0 <RPI_ANSWER_BUFFER_bytes_available>:
    15a0:	89 e4       	ldi	r24, 0x49	; 73
    15a2:	92 e0       	ldi	r25, 0x02	; 2
    15a4:	0c 94 17 02 	jmp	0x42e	; 0x42e <local_msg_buffer_bytes_available>

000015a8 <RPI_ANSWER_BUFFER_bytes_free>:
    15a8:	89 e4       	ldi	r24, 0x49	; 73
    15aa:	92 e0       	ldi	r25, 0x02	; 2
    15ac:	0c 94 1b 02 	jmp	0x436	; 0x436 <local_msg_buffer_bytes_free>

000015b0 <RPI_ANSWER_BUFFER_start_read>:
    15b0:	89 e4       	ldi	r24, 0x49	; 73
    15b2:	92 e0       	ldi	r25, 0x02	; 2
    15b4:	0c 94 0c 02 	jmp	0x418	; 0x418 <local_msg_buffer_start_read>

000015b8 <RPI_ANSWER_BUFFER_get_N_bytes>:
    15b8:	ab 01       	movw	r20, r22
    15ba:	bc 01       	movw	r22, r24
    15bc:	89 e4       	ldi	r24, 0x49	; 73
    15be:	92 e0       	ldi	r25, 0x02	; 2
    15c0:	0c 94 86 02 	jmp	0x50c	; 0x50c <local_msg_buffer_get_N_bytes>

000015c4 <RPI_ANSWER_BUFFER_stop_read>:
    15c4:	89 e4       	ldi	r24, 0x49	; 73
    15c6:	92 e0       	ldi	r25, 0x02	; 2
    15c8:	0c 94 a8 02 	jmp	0x550	; 0x550 <local_msg_buffer_stop_read>

000015cc <RPI_PROTOCOL_LEAVE_SLEEP_SIGNAL_init>:
    15cc:	8a ef       	ldi	r24, 0xFA	; 250
    15ce:	95 e0       	ldi	r25, 0x05	; 5
    15d0:	0c 94 b5 02 	jmp	0x56a	; 0x56a <signal_slot_init>

000015d4 <RPI_PROTOCOL_LEAVE_SLEEP_SIGNAL_send>:
    15d4:	bc 01       	movw	r22, r24
    15d6:	8a ef       	ldi	r24, 0xFA	; 250
    15d8:	95 e0       	ldi	r25, 0x05	; 5
    15da:	0c 94 bd 02 	jmp	0x57a	; 0x57a <signal_slot_send>

000015de <RPI_PROTOCOL_ENTER_SLEEP_SIGNAL_init>:
    15de:	84 ef       	ldi	r24, 0xF4	; 244
    15e0:	95 e0       	ldi	r25, 0x05	; 5
    15e2:	0c 94 b5 02 	jmp	0x56a	; 0x56a <signal_slot_init>

000015e6 <RPI_PROTOCOL_ENTER_SLEEP_SIGNAL_send>:
    15e6:	bc 01       	movw	r22, r24
    15e8:	84 ef       	ldi	r24, 0xF4	; 244
    15ea:	95 e0       	ldi	r25, 0x05	; 5
    15ec:	0c 94 bd 02 	jmp	0x57a	; 0x57a <signal_slot_send>

000015f0 <RPI_PROTOCOL_INVALID_COMMAND_RECEIVED_SIGNAL_init>:
    15f0:	8e ee       	ldi	r24, 0xEE	; 238
    15f2:	95 e0       	ldi	r25, 0x05	; 5
    15f4:	0c 94 b5 02 	jmp	0x56a	; 0x56a <signal_slot_init>

000015f8 <RPI_PROTOCOL_COMMAND_RECEIVED_SIGNAL_init>:
    15f8:	88 ee       	ldi	r24, 0xE8	; 232
    15fa:	95 e0       	ldi	r25, 0x05	; 5
    15fc:	0c 94 b5 02 	jmp	0x56a	; 0x56a <signal_slot_init>

00001600 <RPI_PROTOCOL_COMMAND_RECEIVED_SIGNAL_send>:
    1600:	bc 01       	movw	r22, r24
    1602:	88 ee       	ldi	r24, 0xE8	; 232
    1604:	95 e0       	ldi	r25, 0x05	; 5
    1606:	0c 94 bd 02 	jmp	0x57a	; 0x57a <signal_slot_send>

0000160a <rpi_protocol_task_run>:
    160a:	a3 e1       	ldi	r26, 0x13	; 19
    160c:	b0 e0       	ldi	r27, 0x00	; 0
    160e:	eb e0       	ldi	r30, 0x0B	; 11
    1610:	fb e0       	ldi	r31, 0x0B	; 11
    1612:	0c 94 61 19 	jmp	0x32c2	; 0x32c2 <__prologue_saves__+0x1c>
    1616:	20 91 e6 05 	lds	r18, 0x05E6	; 0x8005e6 <p_com_driver>
    161a:	30 91 e7 05 	lds	r19, 0x05E7	; 0x8005e7 <p_com_driver+0x1>
    161e:	21 15       	cp	r18, r1
    1620:	31 05       	cpc	r19, r1
    1622:	09 f4       	brne	.+2      	; 0x1626 <rpi_protocol_task_run+0x1c>
    1624:	94 c1       	rjmp	.+808    	; 0x194e <rpi_protocol_task_run+0x344>
    1626:	e0 91 9b 05 	lds	r30, 0x059B	; 0x80059b <actual_state>
    162a:	8e 2f       	mov	r24, r30
    162c:	90 e0       	ldi	r25, 0x00	; 0
    162e:	fc 01       	movw	r30, r24
    1630:	32 97       	sbiw	r30, 0x02	; 2
    1632:	e8 30       	cpi	r30, 0x08	; 8
    1634:	f1 05       	cpc	r31, r1
    1636:	20 f4       	brcc	.+8      	; 0x1640 <rpi_protocol_task_run+0x36>
    1638:	ea 5b       	subi	r30, 0xBA	; 186
    163a:	ff 4f       	sbci	r31, 0xFF	; 255
    163c:	0c 94 4a 19 	jmp	0x3294	; 0x3294 <__tablejump2__>
    1640:	82 e0       	ldi	r24, 0x02	; 2
    1642:	80 93 9b 05 	sts	0x059B, r24	; 0x80059b <actual_state>
    1646:	80 93 48 02 	sts	0x0248, r24	; 0x800248 <actual_task_state>
    164a:	80 e0       	ldi	r24, 0x00	; 0
    164c:	90 e0       	ldi	r25, 0x00	; 0
    164e:	c2 df       	rcall	.-124    	; 0x15d4 <RPI_PROTOCOL_LEAVE_SLEEP_SIGNAL_send>
    1650:	85 e0       	ldi	r24, 0x05	; 5
    1652:	96 e0       	ldi	r25, 0x06	; 6
    1654:	0f d8       	rcall	.-4066   	; 0x674 <time_mgmnt_start_u16>
    1656:	6a ef       	ldi	r22, 0xFA	; 250
    1658:	70 e0       	ldi	r23, 0x00	; 0
    165a:	85 e0       	ldi	r24, 0x05	; 5
    165c:	96 e0       	ldi	r25, 0x06	; 6
    165e:	66 d8       	rcall	.-3892   	; 0x72c <time_mgmnt_istimeup_u16>
    1660:	81 11       	cpse	r24, r1
    1662:	be c0       	rjmp	.+380    	; 0x17e0 <rpi_protocol_task_run+0x1d6>
    1664:	84 e0       	ldi	r24, 0x04	; 4
    1666:	80 93 9b 05 	sts	0x059B, r24	; 0x80059b <actual_state>
    166a:	85 e0       	ldi	r24, 0x05	; 5
    166c:	96 e0       	ldi	r25, 0x06	; 6
    166e:	02 d8       	rcall	.-4092   	; 0x674 <time_mgmnt_start_u16>
    1670:	6a ef       	ldi	r22, 0xFA	; 250
    1672:	70 e0       	ldi	r23, 0x00	; 0
    1674:	85 e0       	ldi	r24, 0x05	; 5
    1676:	96 e0       	ldi	r25, 0x06	; 6
    1678:	59 d8       	rcall	.-3918   	; 0x72c <time_mgmnt_istimeup_u16>
    167a:	81 11       	cpse	r24, r1
    167c:	b1 c0       	rjmp	.+354    	; 0x17e0 <rpi_protocol_task_run+0x1d6>
    167e:	10 92 23 02 	sts	0x0223, r1	; 0x800223 <rpi_protocol_i2c_interface>
    1682:	82 e0       	ldi	r24, 0x02	; 2
    1684:	96 e0       	ldi	r25, 0x06	; 6
    1686:	0e 94 3a 03 	call	0x674	; 0x674 <time_mgmnt_start_u16>
    168a:	80 91 23 02 	lds	r24, 0x0223	; 0x800223 <rpi_protocol_i2c_interface>
    168e:	81 11       	cpse	r24, r1
    1690:	2e c0       	rjmp	.+92     	; 0x16ee <rpi_protocol_task_run+0xe4>
    1692:	68 ee       	ldi	r22, 0xE8	; 232
    1694:	73 e0       	ldi	r23, 0x03	; 3
    1696:	82 e0       	ldi	r24, 0x02	; 2
    1698:	96 e0       	ldi	r25, 0x06	; 6
    169a:	48 d8       	rcall	.-3952   	; 0x72c <time_mgmnt_istimeup_u16>
    169c:	81 11       	cpse	r24, r1
    169e:	98 c0       	rjmp	.+304    	; 0x17d0 <rpi_protocol_task_run+0x1c6>
    16a0:	e0 91 e6 05 	lds	r30, 0x05E6	; 0x8005e6 <p_com_driver>
    16a4:	f0 91 e7 05 	lds	r31, 0x05E7	; 0x8005e7 <p_com_driver+0x1>
    16a8:	07 84       	ldd	r0, Z+15	; 0x0f
    16aa:	f0 89       	ldd	r31, Z+16	; 0x10
    16ac:	e0 2d       	mov	r30, r0
    16ae:	64 e6       	ldi	r22, 0x64	; 100
    16b0:	70 e0       	ldi	r23, 0x00	; 0
    16b2:	81 e0       	ldi	r24, 0x01	; 1
    16b4:	09 95       	icall
    16b6:	e0 91 e6 05 	lds	r30, 0x05E6	; 0x8005e6 <p_com_driver>
    16ba:	f0 91 e7 05 	lds	r31, 0x05E7	; 0x8005e7 <p_com_driver+0x1>
    16be:	07 80       	ldd	r0, Z+7	; 0x07
    16c0:	f0 85       	ldd	r31, Z+8	; 0x08
    16c2:	e0 2d       	mov	r30, r0
    16c4:	09 95       	icall
    16c6:	88 23       	and	r24, r24
    16c8:	01 f3       	breq	.-64     	; 0x168a <rpi_protocol_task_run+0x80>
    16ca:	e0 91 e6 05 	lds	r30, 0x05E6	; 0x8005e6 <p_com_driver>
    16ce:	f0 91 e7 05 	lds	r31, 0x05E7	; 0x8005e7 <p_com_driver+0x1>
    16d2:	01 84       	ldd	r0, Z+9	; 0x09
    16d4:	f2 85       	ldd	r31, Z+10	; 0x0a
    16d6:	e0 2d       	mov	r30, r0
    16d8:	63 e2       	ldi	r22, 0x23	; 35
    16da:	72 e0       	ldi	r23, 0x02	; 2
    16dc:	81 e0       	ldi	r24, 0x01	; 1
    16de:	09 95       	icall
    16e0:	80 91 23 02 	lds	r24, 0x0223	; 0x800223 <rpi_protocol_i2c_interface>
    16e4:	8f 3f       	cpi	r24, 0xFF	; 255
    16e6:	89 f6       	brne	.-94     	; 0x168a <rpi_protocol_task_run+0x80>
    16e8:	10 92 23 02 	sts	0x0223, r1	; 0x800223 <rpi_protocol_i2c_interface>
    16ec:	ce cf       	rjmp	.-100    	; 0x168a <rpi_protocol_task_run+0x80>
    16ee:	10 e0       	ldi	r17, 0x00	; 0
    16f0:	80 91 23 02 	lds	r24, 0x0223	; 0x800223 <rpi_protocol_i2c_interface>
    16f4:	e0 91 e6 05 	lds	r30, 0x05E6	; 0x8005e6 <p_com_driver>
    16f8:	f0 91 e7 05 	lds	r31, 0x05E7	; 0x8005e7 <p_com_driver+0x1>
    16fc:	18 17       	cp	r17, r24
    16fe:	b8 f4       	brcc	.+46     	; 0x172e <rpi_protocol_task_run+0x124>
    1700:	07 84       	ldd	r0, Z+15	; 0x0f
    1702:	f0 89       	ldd	r31, Z+16	; 0x10
    1704:	e0 2d       	mov	r30, r0
    1706:	6a ef       	ldi	r22, 0xFA	; 250
    1708:	70 e0       	ldi	r23, 0x00	; 0
    170a:	09 95       	icall
    170c:	e0 91 e6 05 	lds	r30, 0x05E6	; 0x8005e6 <p_com_driver>
    1710:	f0 91 e7 05 	lds	r31, 0x05E7	; 0x8005e7 <p_com_driver+0x1>
    1714:	07 80       	ldd	r0, Z+7	; 0x07
    1716:	f0 85       	ldd	r31, Z+8	; 0x08
    1718:	e0 2d       	mov	r30, r0
    171a:	09 95       	icall
    171c:	18 2f       	mov	r17, r24
    171e:	68 ee       	ldi	r22, 0xE8	; 232
    1720:	73 e0       	ldi	r23, 0x03	; 3
    1722:	82 e0       	ldi	r24, 0x02	; 2
    1724:	96 e0       	ldi	r25, 0x06	; 6
    1726:	02 d8       	rcall	.-4092   	; 0x72c <time_mgmnt_istimeup_u16>
    1728:	88 23       	and	r24, r24
    172a:	11 f3       	breq	.-60     	; 0x16f0 <rpi_protocol_task_run+0xe6>
    172c:	51 c0       	rjmp	.+162    	; 0x17d0 <rpi_protocol_task_run+0x1c6>
    172e:	01 88       	ldd	r0, Z+17	; 0x11
    1730:	f2 89       	ldd	r31, Z+18	; 0x12
    1732:	e0 2d       	mov	r30, r0
    1734:	09 95       	icall
    1736:	e0 91 e6 05 	lds	r30, 0x05E6	; 0x8005e6 <p_com_driver>
    173a:	f0 91 e7 05 	lds	r31, 0x05E7	; 0x8005e7 <p_com_driver+0x1>
    173e:	01 84       	ldd	r0, Z+9	; 0x09
    1740:	f2 85       	ldd	r31, Z+10	; 0x0a
    1742:	e0 2d       	mov	r30, r0
    1744:	64 e2       	ldi	r22, 0x24	; 36
    1746:	72 e0       	ldi	r23, 0x02	; 2
    1748:	81 e0       	ldi	r24, 0x01	; 1
    174a:	09 95       	icall
    174c:	11 50       	subi	r17, 0x01	; 1
    174e:	12 df       	rcall	.-476    	; 0x1574 <RPI_COMMAND_BUFFER_clear_all>
    1750:	15 df       	rcall	.-470    	; 0x157c <RPI_COMMAND_BUFFER_start_write>
    1752:	11 23       	and	r17, r17
    1754:	59 f1       	breq	.+86     	; 0x17ac <rpi_protocol_task_run+0x1a2>
    1756:	e0 91 e6 05 	lds	r30, 0x05E6	; 0x8005e6 <p_com_driver>
    175a:	f0 91 e7 05 	lds	r31, 0x05E7	; 0x8005e7 <p_com_driver+0x1>
    175e:	07 80       	ldd	r0, Z+7	; 0x07
    1760:	f0 85       	ldd	r31, Z+8	; 0x08
    1762:	e0 2d       	mov	r30, r0
    1764:	09 95       	icall
    1766:	80 31       	cpi	r24, 0x10	; 16
    1768:	48 f4       	brcc	.+18     	; 0x177c <rpi_protocol_task_run+0x172>
    176a:	e0 91 e6 05 	lds	r30, 0x05E6	; 0x8005e6 <p_com_driver>
    176e:	f0 91 e7 05 	lds	r31, 0x05E7	; 0x8005e7 <p_com_driver+0x1>
    1772:	07 80       	ldd	r0, Z+7	; 0x07
    1774:	f0 85       	ldd	r31, Z+8	; 0x08
    1776:	e0 2d       	mov	r30, r0
    1778:	09 95       	icall
    177a:	01 c0       	rjmp	.+2      	; 0x177e <rpi_protocol_task_run+0x174>
    177c:	80 e1       	ldi	r24, 0x10	; 16
    177e:	91 2f       	mov	r25, r17
    1780:	81 17       	cp	r24, r17
    1782:	08 f4       	brcc	.+2      	; 0x1786 <rpi_protocol_task_run+0x17c>
    1784:	98 2f       	mov	r25, r24
    1786:	e0 91 e6 05 	lds	r30, 0x05E6	; 0x8005e6 <p_com_driver>
    178a:	f0 91 e7 05 	lds	r31, 0x05E7	; 0x8005e7 <p_com_driver+0x1>
    178e:	01 84       	ldd	r0, Z+9	; 0x09
    1790:	f2 85       	ldd	r31, Z+10	; 0x0a
    1792:	e0 2d       	mov	r30, r0
    1794:	be 01       	movw	r22, r28
    1796:	6f 5f       	subi	r22, 0xFF	; 255
    1798:	7f 4f       	sbci	r23, 0xFF	; 255
    179a:	89 2f       	mov	r24, r25
    179c:	09 95       	icall
    179e:	18 1b       	sub	r17, r24
    17a0:	be 01       	movw	r22, r28
    17a2:	6f 5f       	subi	r22, 0xFF	; 255
    17a4:	7f 4f       	sbci	r23, 0xFF	; 255
    17a6:	90 e0       	ldi	r25, 0x00	; 0
    17a8:	ed de       	rcall	.-550    	; 0x1584 <RPI_COMMAND_BUFFER_add_N_bytes>
    17aa:	d3 cf       	rjmp	.-90     	; 0x1752 <rpi_protocol_task_run+0x148>
    17ac:	f1 de       	rcall	.-542    	; 0x1590 <RPI_COMMAND_BUFFER_stop_write>
    17ae:	61 e0       	ldi	r22, 0x01	; 1
    17b0:	70 e0       	ldi	r23, 0x00	; 0
    17b2:	80 e0       	ldi	r24, 0x00	; 0
    17b4:	96 e0       	ldi	r25, 0x06	; 6
    17b6:	0e 94 40 01 	call	0x280	; 0x280 <module_status_set_u16>
    17ba:	83 e2       	ldi	r24, 0x23	; 35
    17bc:	92 e0       	ldi	r25, 0x02	; 2
    17be:	20 df       	rcall	.-448    	; 0x1600 <RPI_PROTOCOL_COMMAND_RECEIVED_SIGNAL_send>
    17c0:	85 e0       	ldi	r24, 0x05	; 5
    17c2:	80 93 9b 05 	sts	0x059B, r24	; 0x80059b <actual_state>
    17c6:	85 e0       	ldi	r24, 0x05	; 5
    17c8:	96 e0       	ldi	r25, 0x06	; 6
    17ca:	0e 94 3a 03 	call	0x674	; 0x674 <time_mgmnt_start_u16>
    17ce:	bf c0       	rjmp	.+382    	; 0x194e <rpi_protocol_task_run+0x344>
    17d0:	e0 91 e6 05 	lds	r30, 0x05E6	; 0x8005e6 <p_com_driver>
    17d4:	f0 91 e7 05 	lds	r31, 0x05E7	; 0x8005e7 <p_com_driver+0x1>
    17d8:	01 88       	ldd	r0, Z+17	; 0x11
    17da:	f2 89       	ldd	r31, Z+18	; 0x12
    17dc:	e0 2d       	mov	r30, r0
    17de:	09 95       	icall
    17e0:	88 e0       	ldi	r24, 0x08	; 8
    17e2:	80 93 9b 05 	sts	0x059B, r24	; 0x80059b <actual_state>
    17e6:	b3 c0       	rjmp	.+358    	; 0x194e <rpi_protocol_task_run+0x344>
    17e8:	64 e6       	ldi	r22, 0x64	; 100
    17ea:	70 e0       	ldi	r23, 0x00	; 0
    17ec:	85 e0       	ldi	r24, 0x05	; 5
    17ee:	96 e0       	ldi	r25, 0x06	; 6
    17f0:	0e 94 96 03 	call	0x72c	; 0x72c <time_mgmnt_istimeup_u16>
    17f4:	62 e0       	ldi	r22, 0x02	; 2
    17f6:	70 e0       	ldi	r23, 0x00	; 0
    17f8:	88 23       	and	r24, r24
    17fa:	29 f0       	breq	.+10     	; 0x1806 <rpi_protocol_task_run+0x1fc>
    17fc:	80 e0       	ldi	r24, 0x00	; 0
    17fe:	96 e0       	ldi	r25, 0x06	; 6
    1800:	0e 94 54 01 	call	0x2a8	; 0x2a8 <module_status_unset_u16>
    1804:	ed cf       	rjmp	.-38     	; 0x17e0 <rpi_protocol_task_run+0x1d6>
    1806:	80 e0       	ldi	r24, 0x00	; 0
    1808:	96 e0       	ldi	r25, 0x06	; 6
    180a:	0e 94 48 01 	call	0x290	; 0x290 <module_status_isset_u16>
    180e:	89 2b       	or	r24, r25
    1810:	09 f4       	brne	.+2      	; 0x1814 <rpi_protocol_task_run+0x20a>
    1812:	9d c0       	rjmp	.+314    	; 0x194e <rpi_protocol_task_run+0x344>
    1814:	86 e0       	ldi	r24, 0x06	; 6
    1816:	80 93 9b 05 	sts	0x059B, r24	; 0x80059b <actual_state>
    181a:	85 e0       	ldi	r24, 0x05	; 5
    181c:	96 e0       	ldi	r25, 0x06	; 6
    181e:	0e 94 3a 03 	call	0x674	; 0x674 <time_mgmnt_start_u16>
    1822:	6a ef       	ldi	r22, 0xFA	; 250
    1824:	70 e0       	ldi	r23, 0x00	; 0
    1826:	85 e0       	ldi	r24, 0x05	; 5
    1828:	96 e0       	ldi	r25, 0x06	; 6
    182a:	0e 94 96 03 	call	0x72c	; 0x72c <time_mgmnt_istimeup_u16>
    182e:	81 11       	cpse	r24, r1
    1830:	d7 cf       	rjmp	.-82     	; 0x17e0 <rpi_protocol_task_run+0x1d6>
    1832:	87 e0       	ldi	r24, 0x07	; 7
    1834:	80 93 9b 05 	sts	0x059B, r24	; 0x80059b <actual_state>
    1838:	85 e0       	ldi	r24, 0x05	; 5
    183a:	96 e0       	ldi	r25, 0x06	; 6
    183c:	0e 94 3a 03 	call	0x674	; 0x674 <time_mgmnt_start_u16>
    1840:	6a ef       	ldi	r22, 0xFA	; 250
    1842:	70 e0       	ldi	r23, 0x00	; 0
    1844:	85 e0       	ldi	r24, 0x05	; 5
    1846:	96 e0       	ldi	r25, 0x06	; 6
    1848:	0e 94 96 03 	call	0x72c	; 0x72c <time_mgmnt_istimeup_u16>
    184c:	81 11       	cpse	r24, r1
    184e:	c8 cf       	rjmp	.-112    	; 0x17e0 <rpi_protocol_task_run+0x1d6>
    1850:	62 e0       	ldi	r22, 0x02	; 2
    1852:	70 e0       	ldi	r23, 0x00	; 0
    1854:	80 e0       	ldi	r24, 0x00	; 0
    1856:	96 e0       	ldi	r25, 0x06	; 6
    1858:	0e 94 48 01 	call	0x290	; 0x290 <module_status_isset_u16>
    185c:	89 2b       	or	r24, r25
    185e:	09 f4       	brne	.+2      	; 0x1862 <rpi_protocol_task_run+0x258>
    1860:	52 c0       	rjmp	.+164    	; 0x1906 <rpi_protocol_task_run+0x2fc>
    1862:	9e de       	rcall	.-708    	; 0x15a0 <RPI_ANSWER_BUFFER_bytes_available>
    1864:	8e 5f       	subi	r24, 0xFE	; 254
    1866:	89 8b       	std	Y+17, r24	; 0x11
    1868:	80 91 24 02 	lds	r24, 0x0224	; 0x800224 <rpi_protocol_i2c_interface+0x1>
    186c:	8a 8b       	std	Y+18, r24	; 0x12
    186e:	80 91 25 02 	lds	r24, 0x0225	; 0x800225 <rpi_protocol_i2c_interface+0x2>
    1872:	8b 8b       	std	Y+19, r24	; 0x13
    1874:	e0 91 e6 05 	lds	r30, 0x05E6	; 0x8005e6 <p_com_driver>
    1878:	f0 91 e7 05 	lds	r31, 0x05E7	; 0x8005e7 <p_com_driver+0x1>
    187c:	07 8c       	ldd	r0, Z+31	; 0x1f
    187e:	f0 a1       	ldd	r31, Z+32	; 0x20
    1880:	e0 2d       	mov	r30, r0
    1882:	09 95       	icall
    1884:	e0 91 e6 05 	lds	r30, 0x05E6	; 0x8005e6 <p_com_driver>
    1888:	f0 91 e7 05 	lds	r31, 0x05E7	; 0x8005e7 <p_com_driver+0x1>
    188c:	03 84       	ldd	r0, Z+11	; 0x0b
    188e:	f4 85       	ldd	r31, Z+12	; 0x0c
    1890:	e0 2d       	mov	r30, r0
    1892:	be 01       	movw	r22, r28
    1894:	6f 5e       	subi	r22, 0xEF	; 239
    1896:	7f 4f       	sbci	r23, 0xFF	; 255
    1898:	83 e0       	ldi	r24, 0x03	; 3
    189a:	09 95       	icall
    189c:	89 de       	rcall	.-750    	; 0x15b0 <RPI_ANSWER_BUFFER_start_read>
    189e:	80 de       	rcall	.-768    	; 0x15a0 <RPI_ANSWER_BUFFER_bytes_available>
    18a0:	08 2f       	mov	r16, r24
    18a2:	00 23       	and	r16, r16
    18a4:	09 f1       	breq	.+66     	; 0x18e8 <rpi_protocol_task_run+0x2de>
    18a6:	80 de       	rcall	.-768    	; 0x15a8 <RPI_ANSWER_BUFFER_bytes_free>
    18a8:	88 23       	and	r24, r24
    18aa:	f1 f0       	breq	.+60     	; 0x18e8 <rpi_protocol_task_run+0x2de>
    18ac:	00 31       	cpi	r16, 0x10	; 16
    18ae:	10 f4       	brcc	.+4      	; 0x18b4 <rpi_protocol_task_run+0x2aa>
    18b0:	10 2f       	mov	r17, r16
    18b2:	01 c0       	rjmp	.+2      	; 0x18b6 <rpi_protocol_task_run+0x2ac>
    18b4:	10 e1       	ldi	r17, 0x10	; 16
    18b6:	78 de       	rcall	.-784    	; 0x15a8 <RPI_ANSWER_BUFFER_bytes_free>
    18b8:	81 17       	cp	r24, r17
    18ba:	10 f4       	brcc	.+4      	; 0x18c0 <rpi_protocol_task_run+0x2b6>
    18bc:	75 de       	rcall	.-790    	; 0x15a8 <RPI_ANSWER_BUFFER_bytes_free>
    18be:	18 2f       	mov	r17, r24
    18c0:	be 01       	movw	r22, r28
    18c2:	6f 5f       	subi	r22, 0xFF	; 255
    18c4:	7f 4f       	sbci	r23, 0xFF	; 255
    18c6:	81 2f       	mov	r24, r17
    18c8:	90 e0       	ldi	r25, 0x00	; 0
    18ca:	76 de       	rcall	.-788    	; 0x15b8 <RPI_ANSWER_BUFFER_get_N_bytes>
    18cc:	e0 91 e6 05 	lds	r30, 0x05E6	; 0x8005e6 <p_com_driver>
    18d0:	f0 91 e7 05 	lds	r31, 0x05E7	; 0x8005e7 <p_com_driver+0x1>
    18d4:	03 84       	ldd	r0, Z+11	; 0x0b
    18d6:	f4 85       	ldd	r31, Z+12	; 0x0c
    18d8:	e0 2d       	mov	r30, r0
    18da:	be 01       	movw	r22, r28
    18dc:	6f 5f       	subi	r22, 0xFF	; 255
    18de:	7f 4f       	sbci	r23, 0xFF	; 255
    18e0:	81 2f       	mov	r24, r17
    18e2:	09 95       	icall
    18e4:	01 1b       	sub	r16, r17
    18e6:	dd cf       	rjmp	.-70     	; 0x18a2 <rpi_protocol_task_run+0x298>
    18e8:	6d de       	rcall	.-806    	; 0x15c4 <RPI_ANSWER_BUFFER_stop_read>
    18ea:	62 e0       	ldi	r22, 0x02	; 2
    18ec:	70 e0       	ldi	r23, 0x00	; 0
    18ee:	80 e0       	ldi	r24, 0x00	; 0
    18f0:	96 e0       	ldi	r25, 0x06	; 6
    18f2:	0e 94 54 01 	call	0x2a8	; 0x2a8 <module_status_unset_u16>
    18f6:	e0 91 e6 05 	lds	r30, 0x05E6	; 0x8005e6 <p_com_driver>
    18fa:	f0 91 e7 05 	lds	r31, 0x05E7	; 0x8005e7 <p_com_driver+0x1>
    18fe:	07 88       	ldd	r0, Z+23	; 0x17
    1900:	f0 8d       	ldd	r31, Z+24	; 0x18
    1902:	e0 2d       	mov	r30, r0
    1904:	09 95       	icall
    1906:	e0 91 e6 05 	lds	r30, 0x05E6	; 0x8005e6 <p_com_driver>
    190a:	f0 91 e7 05 	lds	r31, 0x05E7	; 0x8005e7 <p_com_driver+0x1>
    190e:	03 88       	ldd	r0, Z+19	; 0x13
    1910:	f4 89       	ldd	r31, Z+20	; 0x14
    1912:	e0 2d       	mov	r30, r0
    1914:	09 95       	icall
    1916:	81 11       	cpse	r24, r1
    1918:	63 cf       	rjmp	.-314    	; 0x17e0 <rpi_protocol_task_run+0x1d6>
    191a:	19 c0       	rjmp	.+50     	; 0x194e <rpi_protocol_task_run+0x344>
    191c:	d9 01       	movw	r26, r18
    191e:	5b 96       	adiw	r26, 0x1b	; 27
    1920:	ed 91       	ld	r30, X+
    1922:	fc 91       	ld	r31, X
    1924:	5c 97       	sbiw	r26, 0x1c	; 28
    1926:	09 95       	icall
    1928:	e0 91 e6 05 	lds	r30, 0x05E6	; 0x8005e6 <p_com_driver>
    192c:	f0 91 e7 05 	lds	r31, 0x05E7	; 0x8005e7 <p_com_driver+0x1>
    1930:	05 84       	ldd	r0, Z+13	; 0x0d
    1932:	f6 85       	ldd	r31, Z+14	; 0x0e
    1934:	e0 2d       	mov	r30, r0
    1936:	8f ef       	ldi	r24, 0xFF	; 255
    1938:	9f ef       	ldi	r25, 0xFF	; 255
    193a:	09 95       	icall
    193c:	89 e0       	ldi	r24, 0x09	; 9
    193e:	51 cf       	rjmp	.-350    	; 0x17e2 <rpi_protocol_task_run+0x1d8>
    1940:	80 e0       	ldi	r24, 0x00	; 0
    1942:	90 e0       	ldi	r25, 0x00	; 0
    1944:	50 de       	rcall	.-864    	; 0x15e6 <RPI_PROTOCOL_ENTER_SLEEP_SIGNAL_send>
    1946:	10 92 9b 05 	sts	0x059B, r1	; 0x80059b <actual_state>
    194a:	10 92 48 02 	sts	0x0248, r1	; 0x800248 <actual_task_state>
    194e:	63 96       	adiw	r28, 0x13	; 19
    1950:	e4 e0       	ldi	r30, 0x04	; 4
    1952:	0c 94 7d 19 	jmp	0x32fa	; 0x32fa <__epilogue_restores__+0x1c>

00001956 <RPI_PROTOCOL_COMMAND_RECEIVED_SIGNAL_connect>:
    1956:	bc 01       	movw	r22, r24
    1958:	88 ee       	ldi	r24, 0xE8	; 232
    195a:	95 e0       	ldi	r25, 0x05	; 5
    195c:	0c 94 f1 02 	jmp	0x5e2	; 0x5e2 <signal_slot_connect>

00001960 <rpi_protocol_init>:
    1960:	cf 93       	push	r28
    1962:	df 93       	push	r29
    1964:	ec 01       	movw	r28, r24
    1966:	80 e0       	ldi	r24, 0x00	; 0
    1968:	96 e0       	ldi	r25, 0x06	; 6
    196a:	0e 94 5e 01 	call	0x2bc	; 0x2bc <module_status_clear_all_u16>
    196e:	e3 e2       	ldi	r30, 0x23	; 35
    1970:	f2 e0       	ldi	r31, 0x02	; 2
    1972:	10 82       	st	Z, r1
    1974:	14 82       	std	Z+4, r1	; 0x04
    1976:	13 82       	std	Z+3, r1	; 0x03
    1978:	f9 dd       	rcall	.-1038   	; 0x156c <RPI_COMMAND_BUFFER_init>
    197a:	0e de       	rcall	.-996    	; 0x1598 <RPI_ANSWER_BUFFER_init>
    197c:	3d de       	rcall	.-902    	; 0x15f8 <RPI_PROTOCOL_COMMAND_RECEIVED_SIGNAL_init>
    197e:	26 de       	rcall	.-948    	; 0x15cc <RPI_PROTOCOL_LEAVE_SLEEP_SIGNAL_init>
    1980:	2e de       	rcall	.-932    	; 0x15de <RPI_PROTOCOL_ENTER_SLEEP_SIGNAL_init>
    1982:	36 de       	rcall	.-916    	; 0x15f0 <RPI_PROTOCOL_INVALID_COMMAND_RECEIVED_SIGNAL_init>
    1984:	d0 93 e7 05 	sts	0x05E7, r29	; 0x8005e7 <p_com_driver+0x1>
    1988:	c0 93 e6 05 	sts	0x05E6, r28	; 0x8005e6 <p_com_driver>
    198c:	eb a1       	ldd	r30, Y+35	; 0x23
    198e:	fc a1       	ldd	r31, Y+36	; 0x24
    1990:	09 95       	icall
    1992:	86 e0       	ldi	r24, 0x06	; 6
    1994:	e3 e9       	ldi	r30, 0x93	; 147
    1996:	f3 e0       	ldi	r31, 0x03	; 3
    1998:	ac e9       	ldi	r26, 0x9C	; 156
    199a:	b5 e0       	ldi	r27, 0x05	; 5
    199c:	01 90       	ld	r0, Z+
    199e:	0d 92       	st	X+, r0
    19a0:	8a 95       	dec	r24
    19a2:	e1 f7       	brne	.-8      	; 0x199c <rpi_protocol_init+0x3c>
    19a4:	e0 91 e6 05 	lds	r30, 0x05E6	; 0x8005e6 <p_com_driver>
    19a8:	f0 91 e7 05 	lds	r31, 0x05E7	; 0x8005e7 <p_com_driver+0x1>
    19ac:	03 80       	ldd	r0, Z+3	; 0x03
    19ae:	f4 81       	ldd	r31, Z+4	; 0x04
    19b0:	e0 2d       	mov	r30, r0
    19b2:	8c e9       	ldi	r24, 0x9C	; 156
    19b4:	95 e0       	ldi	r25, 0x05	; 5
    19b6:	09 95       	icall
    19b8:	e0 91 e6 05 	lds	r30, 0x05E6	; 0x8005e6 <p_com_driver>
    19bc:	f0 91 e7 05 	lds	r31, 0x05E7	; 0x8005e7 <p_com_driver+0x1>
    19c0:	05 84       	ldd	r0, Z+13	; 0x0d
    19c2:	f6 85       	ldd	r31, Z+14	; 0x0e
    19c4:	e0 2d       	mov	r30, r0
    19c6:	8f ef       	ldi	r24, 0xFF	; 255
    19c8:	9f ef       	ldi	r25, 0xFF	; 255
    19ca:	09 95       	icall
    19cc:	10 92 48 02 	sts	0x0248, r1	; 0x800248 <actual_task_state>
    19d0:	10 92 9b 05 	sts	0x059B, r1	; 0x80059b <actual_state>
    19d4:	8a e0       	ldi	r24, 0x0A	; 10
    19d6:	92 e0       	ldi	r25, 0x02	; 2
    19d8:	0e 94 dc 03 	call	0x7b8	; 0x7b8 <mcu_task_controller_register_task>
    19dc:	df 91       	pop	r29
    19de:	cf 91       	pop	r28
    19e0:	08 95       	ret

000019e2 <io_output_controller_task_init>:
    19e2:	08 95       	ret

000019e4 <io_output_controller_task_get_schedule_interval>:
    19e4:	85 e0       	ldi	r24, 0x05	; 5
    19e6:	90 e0       	ldi	r25, 0x00	; 0
    19e8:	08 95       	ret

000019ea <io_output_controller_task_get_state>:
    19ea:	80 91 48 06 	lds	r24, 0x0648	; 0x800648 <output_is_active>
    19ee:	81 11       	cpse	r24, r1
    19f0:	82 e0       	ldi	r24, 0x02	; 2
    19f2:	08 95       	ret

000019f4 <io_output_controller_task_run>:
    19f4:	a0 e0       	ldi	r26, 0x00	; 0
    19f6:	b0 e0       	ldi	r27, 0x00	; 0
    19f8:	e0 e0       	ldi	r30, 0x00	; 0
    19fa:	fd e0       	ldi	r31, 0x0D	; 13
    19fc:	0c 94 5b 19 	jmp	0x32b6	; 0x32b6 <__prologue_saves__+0x10>
    1a00:	c0 91 4b 06 	lds	r28, 0x064B	; 0x80064b <_output_list_first>
    1a04:	d0 91 4c 06 	lds	r29, 0x064C	; 0x80064c <_output_list_first+0x1>
    1a08:	10 92 48 06 	sts	0x0648, r1	; 0x800648 <output_is_active>
    1a0c:	e0 90 73 03 	lds	r14, 0x0373	; 0x800373 <i_system+0xa>
    1a10:	f0 90 74 03 	lds	r15, 0x0374	; 0x800374 <i_system+0xb>
    1a14:	01 e0       	ldi	r16, 0x01	; 1
    1a16:	c0 90 85 03 	lds	r12, 0x0385	; 0x800385 <i_system+0x1c>
    1a1a:	d0 90 86 03 	lds	r13, 0x0386	; 0x800386 <i_system+0x1d>
    1a1e:	a0 90 6d 03 	lds	r10, 0x036D	; 0x80036d <i_system+0x4>
    1a22:	b0 90 6e 03 	lds	r11, 0x036E	; 0x80036e <i_system+0x5>
    1a26:	20 97       	sbiw	r28, 0x00	; 0
    1a28:	09 f4       	brne	.+2      	; 0x1a2c <io_output_controller_task_run+0x38>
    1a2a:	49 c0       	rjmp	.+146    	; 0x1abe <io_output_controller_task_run+0xca>
    1a2c:	1c 81       	ldd	r17, Y+4	; 0x04
    1a2e:	11 30       	cpi	r17, 0x01	; 1
    1a30:	a9 f4       	brne	.+42     	; 0x1a5c <io_output_controller_task_run+0x68>
    1a32:	2a 85       	ldd	r18, Y+10	; 0x0a
    1a34:	3b 85       	ldd	r19, Y+11	; 0x0b
    1a36:	4c 85       	ldd	r20, Y+12	; 0x0c
    1a38:	5d 85       	ldd	r21, Y+13	; 0x0d
    1a3a:	21 15       	cp	r18, r1
    1a3c:	31 05       	cpc	r19, r1
    1a3e:	41 05       	cpc	r20, r1
    1a40:	51 05       	cpc	r21, r1
    1a42:	61 f0       	breq	.+24     	; 0x1a5c <io_output_controller_task_run+0x68>
    1a44:	6e 81       	ldd	r22, Y+6	; 0x06
    1a46:	7f 81       	ldd	r23, Y+7	; 0x07
    1a48:	88 85       	ldd	r24, Y+8	; 0x08
    1a4a:	99 85       	ldd	r25, Y+9	; 0x09
    1a4c:	f7 01       	movw	r30, r14
    1a4e:	09 95       	icall
    1a50:	88 23       	and	r24, r24
    1a52:	11 f0       	breq	.+4      	; 0x1a58 <io_output_controller_task_run+0x64>
    1a54:	1d 82       	std	Y+5, r1	; 0x05
    1a56:	02 c0       	rjmp	.+4      	; 0x1a5c <io_output_controller_task_run+0x68>
    1a58:	10 93 48 06 	sts	0x0648, r17	; 0x800648 <output_is_active>
    1a5c:	8d 81       	ldd	r24, Y+5	; 0x05
    1a5e:	9c 81       	ldd	r25, Y+4	; 0x04
    1a60:	98 17       	cp	r25, r24
    1a62:	49 f1       	breq	.+82     	; 0x1ab6 <io_output_controller_task_run+0xc2>
    1a64:	8c 83       	std	Y+4, r24	; 0x04
    1a66:	61 e0       	ldi	r22, 0x01	; 1
    1a68:	81 30       	cpi	r24, 0x01	; 1
    1a6a:	09 f0       	breq	.+2      	; 0x1a6e <io_output_controller_task_run+0x7a>
    1a6c:	60 e0       	ldi	r22, 0x00	; 0
    1a6e:	89 81       	ldd	r24, Y+1	; 0x01
    1a70:	9a 81       	ldd	r25, Y+2	; 0x02
    1a72:	f6 01       	movw	r30, r12
    1a74:	09 95       	icall
    1a76:	8c 81       	ldd	r24, Y+4	; 0x04
    1a78:	81 30       	cpi	r24, 0x01	; 1
    1a7a:	39 f4       	brne	.+14     	; 0x1a8a <io_output_controller_task_run+0x96>
    1a7c:	f5 01       	movw	r30, r10
    1a7e:	09 95       	icall
    1a80:	6e 83       	std	Y+6, r22	; 0x06
    1a82:	7f 83       	std	Y+7, r23	; 0x07
    1a84:	88 87       	std	Y+8, r24	; 0x08
    1a86:	99 87       	std	Y+9, r25	; 0x09
    1a88:	0c c0       	rjmp	.+24     	; 0x1aa2 <io_output_controller_task_run+0xae>
    1a8a:	1e 82       	std	Y+6, r1	; 0x06
    1a8c:	1f 82       	std	Y+7, r1	; 0x07
    1a8e:	18 86       	std	Y+8, r1	; 0x08
    1a90:	19 86       	std	Y+9, r1	; 0x09
    1a92:	1e 86       	std	Y+14, r1	; 0x0e
    1a94:	1f 86       	std	Y+15, r1	; 0x0f
    1a96:	18 8a       	std	Y+16, r1	; 0x10
    1a98:	19 8a       	std	Y+17, r1	; 0x11
    1a9a:	1a 86       	std	Y+10, r1	; 0x0a
    1a9c:	1b 86       	std	Y+11, r1	; 0x0b
    1a9e:	1c 86       	std	Y+12, r1	; 0x0c
    1aa0:	1d 86       	std	Y+13, r1	; 0x0d
    1aa2:	8a 85       	ldd	r24, Y+10	; 0x0a
    1aa4:	9b 85       	ldd	r25, Y+11	; 0x0b
    1aa6:	ac 85       	ldd	r26, Y+12	; 0x0c
    1aa8:	bd 85       	ldd	r27, Y+13	; 0x0d
    1aaa:	89 2b       	or	r24, r25
    1aac:	8a 2b       	or	r24, r26
    1aae:	8b 2b       	or	r24, r27
    1ab0:	11 f0       	breq	.+4      	; 0x1ab6 <io_output_controller_task_run+0xc2>
    1ab2:	00 93 48 06 	sts	0x0648, r16	; 0x800648 <output_is_active>
    1ab6:	0c 88       	ldd	r0, Y+20	; 0x14
    1ab8:	dd 89       	ldd	r29, Y+21	; 0x15
    1aba:	c0 2d       	mov	r28, r0
    1abc:	b4 cf       	rjmp	.-152    	; 0x1a26 <io_output_controller_task_run+0x32>
    1abe:	cd b7       	in	r28, 0x3d	; 61
    1ac0:	de b7       	in	r29, 0x3e	; 62
    1ac2:	ea e0       	ldi	r30, 0x0A	; 10
    1ac4:	0c 94 77 19 	jmp	0x32ee	; 0x32ee <__epilogue_restores__+0x10>

00001ac8 <io_output_controller_task_background_run>:
    1ac8:	08 95       	ret

00001aca <io_input_controller_init>:
    1aca:	08 95       	ret

00001acc <io_input_controller_check_state>:
    1acc:	1f 93       	push	r17
    1ace:	cf 93       	push	r28
    1ad0:	df 93       	push	r29
    1ad2:	ec 01       	movw	r28, r24
    1ad4:	e0 91 89 03 	lds	r30, 0x0389	; 0x800389 <i_system+0x20>
    1ad8:	f0 91 8a 03 	lds	r31, 0x038A	; 0x80038a <i_system+0x21>
    1adc:	89 81       	ldd	r24, Y+1	; 0x01
    1ade:	9a 81       	ldd	r25, Y+2	; 0x02
    1ae0:	09 95       	icall
    1ae2:	18 2f       	mov	r17, r24
    1ae4:	8c 81       	ldd	r24, Y+4	; 0x04
    1ae6:	11 30       	cpi	r17, 0x01	; 1
    1ae8:	81 f5       	brne	.+96     	; 0x1b4a <io_input_controller_check_state+0x7e>
    1aea:	81 11       	cpse	r24, r1
    1aec:	1b c0       	rjmp	.+54     	; 0x1b24 <io_input_controller_check_state+0x58>
    1aee:	1c 83       	std	Y+4, r17	; 0x04
    1af0:	e0 91 6d 03 	lds	r30, 0x036D	; 0x80036d <i_system+0x4>
    1af4:	f0 91 6e 03 	lds	r31, 0x036E	; 0x80036e <i_system+0x5>
    1af8:	09 95       	icall
    1afa:	6f 83       	std	Y+7, r22	; 0x07
    1afc:	78 87       	std	Y+8, r23	; 0x08
    1afe:	89 87       	std	Y+9, r24	; 0x09
    1b00:	9a 87       	std	Y+10, r25	; 0x0a
    1b02:	1d 83       	std	Y+5, r17	; 0x05
    1b04:	e0 91 6b 03 	lds	r30, 0x036B	; 0x80036b <i_system+0x2>
    1b08:	f0 91 6c 03 	lds	r31, 0x036C	; 0x80036c <i_system+0x3>
    1b0c:	09 95       	icall
    1b0e:	9c 87       	std	Y+12, r25	; 0x0c
    1b10:	8b 87       	std	Y+11, r24	; 0x0b
    1b12:	1e 82       	std	Y+6, r1	; 0x06
    1b14:	1e 86       	std	Y+14, r1	; 0x0e
    1b16:	1d 86       	std	Y+13, r1	; 0x0d
    1b18:	e0 91 75 03 	lds	r30, 0x0375	; 0x800375 <i_system+0xc>
    1b1c:	f0 91 76 03 	lds	r31, 0x0376	; 0x800376 <i_system+0xd>
    1b20:	81 e0       	ldi	r24, 0x01	; 1
    1b22:	09 95       	icall
    1b24:	8c 81       	ldd	r24, Y+4	; 0x04
    1b26:	88 23       	and	r24, r24
    1b28:	e9 f1       	breq	.+122    	; 0x1ba4 <io_input_controller_check_state+0xd8>
    1b2a:	8d 81       	ldd	r24, Y+5	; 0x05
    1b2c:	88 23       	and	r24, r24
    1b2e:	d1 f1       	breq	.+116    	; 0x1ba4 <io_input_controller_check_state+0xd8>
    1b30:	e0 91 71 03 	lds	r30, 0x0371	; 0x800371 <i_system+0x8>
    1b34:	f0 91 72 03 	lds	r31, 0x0372	; 0x800372 <i_system+0x9>
    1b38:	60 e3       	ldi	r22, 0x30	; 48
    1b3a:	75 e7       	ldi	r23, 0x75	; 117
    1b3c:	8b 85       	ldd	r24, Y+11	; 0x0b
    1b3e:	9c 85       	ldd	r25, Y+12	; 0x0c
    1b40:	09 95       	icall
    1b42:	88 23       	and	r24, r24
    1b44:	79 f1       	breq	.+94     	; 0x1ba4 <io_input_controller_check_state+0xd8>
    1b46:	1d 82       	std	Y+5, r1	; 0x05
    1b48:	2d c0       	rjmp	.+90     	; 0x1ba4 <io_input_controller_check_state+0xd8>
    1b4a:	88 23       	and	r24, r24
    1b4c:	99 f0       	breq	.+38     	; 0x1b74 <io_input_controller_check_state+0xa8>
    1b4e:	8e 81       	ldd	r24, Y+6	; 0x06
    1b50:	81 11       	cpse	r24, r1
    1b52:	10 c0       	rjmp	.+32     	; 0x1b74 <io_input_controller_check_state+0xa8>
    1b54:	81 e0       	ldi	r24, 0x01	; 1
    1b56:	8e 83       	std	Y+6, r24	; 0x06
    1b58:	e0 91 6b 03 	lds	r30, 0x036B	; 0x80036b <i_system+0x2>
    1b5c:	f0 91 6c 03 	lds	r31, 0x036C	; 0x80036c <i_system+0x3>
    1b60:	09 95       	icall
    1b62:	9e 87       	std	Y+14, r25	; 0x0e
    1b64:	8d 87       	std	Y+13, r24	; 0x0d
    1b66:	e0 91 75 03 	lds	r30, 0x0375	; 0x800375 <i_system+0xc>
    1b6a:	f0 91 76 03 	lds	r31, 0x0376	; 0x800376 <i_system+0xd>
    1b6e:	81 e0       	ldi	r24, 0x01	; 1
    1b70:	09 95       	icall
    1b72:	10 c0       	rjmp	.+32     	; 0x1b94 <io_input_controller_check_state+0xc8>
    1b74:	8d 85       	ldd	r24, Y+13	; 0x0d
    1b76:	9e 85       	ldd	r25, Y+14	; 0x0e
    1b78:	00 97       	sbiw	r24, 0x00	; 0
    1b7a:	61 f0       	breq	.+24     	; 0x1b94 <io_input_controller_check_state+0xc8>
    1b7c:	e0 91 71 03 	lds	r30, 0x0371	; 0x800371 <i_system+0x8>
    1b80:	f0 91 72 03 	lds	r31, 0x0372	; 0x800372 <i_system+0x9>
    1b84:	60 e3       	ldi	r22, 0x30	; 48
    1b86:	75 e7       	ldi	r23, 0x75	; 117
    1b88:	09 95       	icall
    1b8a:	88 23       	and	r24, r24
    1b8c:	19 f0       	breq	.+6      	; 0x1b94 <io_input_controller_check_state+0xc8>
    1b8e:	1e 82       	std	Y+6, r1	; 0x06
    1b90:	1e 86       	std	Y+14, r1	; 0x0e
    1b92:	1d 86       	std	Y+13, r1	; 0x0d
    1b94:	1c 82       	std	Y+4, r1	; 0x04
    1b96:	1d 82       	std	Y+5, r1	; 0x05
    1b98:	1c 86       	std	Y+12, r1	; 0x0c
    1b9a:	1b 86       	std	Y+11, r1	; 0x0b
    1b9c:	1f 82       	std	Y+7, r1	; 0x07
    1b9e:	18 86       	std	Y+8, r1	; 0x08
    1ba0:	19 86       	std	Y+9, r1	; 0x09
    1ba2:	1a 86       	std	Y+10, r1	; 0x0a
    1ba4:	df 91       	pop	r29
    1ba6:	cf 91       	pop	r28
    1ba8:	1f 91       	pop	r17
    1baa:	08 95       	ret

00001bac <io_input_controller_task_init>:
    1bac:	81 e5       	ldi	r24, 0x51	; 81
    1bae:	96 e0       	ldi	r25, 0x06	; 6
    1bb0:	0c 94 3a 03 	jmp	0x674	; 0x674 <time_mgmnt_start_u16>

00001bb4 <io_input_controller_task_get_schedule_interval>:
    1bb4:	85 e0       	ldi	r24, 0x05	; 5
    1bb6:	90 e0       	ldi	r25, 0x00	; 0
    1bb8:	08 95       	ret

00001bba <io_input_controller_task_get_state>:
    1bba:	6e e1       	ldi	r22, 0x1E	; 30
    1bbc:	70 e0       	ldi	r23, 0x00	; 0
    1bbe:	81 e5       	ldi	r24, 0x51	; 81
    1bc0:	96 e0       	ldi	r25, 0x06	; 6
    1bc2:	0e 94 96 03 	call	0x72c	; 0x72c <time_mgmnt_istimeup_u16>
    1bc6:	81 11       	cpse	r24, r1
    1bc8:	82 e0       	ldi	r24, 0x02	; 2
    1bca:	08 95       	ret

00001bcc <io_input_controller_task_run>:
    1bcc:	cf 93       	push	r28
    1bce:	df 93       	push	r29
    1bd0:	c0 91 4f 06 	lds	r28, 0x064F	; 0x80064f <p_first_button>
    1bd4:	d0 91 50 06 	lds	r29, 0x0650	; 0x800650 <p_first_button+0x1>
    1bd8:	20 97       	sbiw	r28, 0x00	; 0
    1bda:	31 f0       	breq	.+12     	; 0x1be8 <io_input_controller_task_run+0x1c>
    1bdc:	ce 01       	movw	r24, r28
    1bde:	76 df       	rcall	.-276    	; 0x1acc <io_input_controller_check_state>
    1be0:	0f 84       	ldd	r0, Y+15	; 0x0f
    1be2:	d8 89       	ldd	r29, Y+16	; 0x10
    1be4:	c0 2d       	mov	r28, r0
    1be6:	f8 cf       	rjmp	.-16     	; 0x1bd8 <io_input_controller_task_run+0xc>
    1be8:	81 e5       	ldi	r24, 0x51	; 81
    1bea:	96 e0       	ldi	r25, 0x06	; 6
    1bec:	0e 94 3a 03 	call	0x674	; 0x674 <time_mgmnt_start_u16>
    1bf0:	df 91       	pop	r29
    1bf2:	cf 91       	pop	r28
    1bf4:	08 95       	ret

00001bf6 <io_input_controller_task_background_run>:
    1bf6:	08 95       	ret

00001bf8 <command_controller_task_get_schedule_interval>:
    1bf8:	85 e0       	ldi	r24, 0x05	; 5
    1bfa:	90 e0       	ldi	r25, 0x00	; 0
    1bfc:	08 95       	ret

00001bfe <command_controller_task_get_state>:
    1bfe:	80 91 58 06 	lds	r24, 0x0658	; 0x800658 <_first_cmd_handler>
    1c02:	90 91 59 06 	lds	r25, 0x0659	; 0x800659 <_first_cmd_handler+0x1>
    1c06:	90 93 57 06 	sts	0x0657, r25	; 0x800657 <_act_cmd_handler+0x1>
    1c0a:	80 93 56 06 	sts	0x0656, r24	; 0x800656 <_act_cmd_handler>
    1c0e:	e0 91 56 06 	lds	r30, 0x0656	; 0x800656 <_act_cmd_handler>
    1c12:	f0 91 57 06 	lds	r31, 0x0657	; 0x800657 <_act_cmd_handler+0x1>
    1c16:	30 97       	sbiw	r30, 0x00	; 0
    1c18:	69 f0       	breq	.+26     	; 0x1c34 <command_controller_task_get_state+0x36>
    1c1a:	00 84       	ldd	r0, Z+8	; 0x08
    1c1c:	f1 85       	ldd	r31, Z+9	; 0x09
    1c1e:	e0 2d       	mov	r30, r0
    1c20:	09 95       	icall
    1c22:	81 11       	cpse	r24, r1
    1c24:	09 c0       	rjmp	.+18     	; 0x1c38 <command_controller_task_get_state+0x3a>
    1c26:	e0 91 56 06 	lds	r30, 0x0656	; 0x800656 <_act_cmd_handler>
    1c2a:	f0 91 57 06 	lds	r31, 0x0657	; 0x800657 <_act_cmd_handler+0x1>
    1c2e:	82 89       	ldd	r24, Z+18	; 0x12
    1c30:	93 89       	ldd	r25, Z+19	; 0x13
    1c32:	e9 cf       	rjmp	.-46     	; 0x1c06 <command_controller_task_get_state+0x8>
    1c34:	80 e0       	ldi	r24, 0x00	; 0
    1c36:	08 95       	ret
    1c38:	82 e0       	ldi	r24, 0x02	; 2
    1c3a:	08 95       	ret

00001c3c <command_controller_task_run>:
    1c3c:	cf 93       	push	r28
    1c3e:	df 93       	push	r29
    1c40:	e0 91 56 06 	lds	r30, 0x0656	; 0x800656 <_act_cmd_handler>
    1c44:	f0 91 57 06 	lds	r31, 0x0657	; 0x800657 <_act_cmd_handler+0x1>
    1c48:	30 97       	sbiw	r30, 0x00	; 0
    1c4a:	09 f4       	brne	.+2      	; 0x1c4e <command_controller_task_run+0x12>
    1c4c:	46 c0       	rjmp	.+140    	; 0x1cda <command_controller_task_run+0x9e>
    1c4e:	02 84       	ldd	r0, Z+10	; 0x0a
    1c50:	f3 85       	ldd	r31, Z+11	; 0x0b
    1c52:	e0 2d       	mov	r30, r0
    1c54:	09 95       	icall
    1c56:	d8 2f       	mov	r29, r24
    1c58:	c0 e0       	ldi	r28, 0x00	; 0
    1c5a:	e0 91 56 06 	lds	r30, 0x0656	; 0x800656 <_act_cmd_handler>
    1c5e:	f0 91 57 06 	lds	r31, 0x0657	; 0x800657 <_act_cmd_handler+0x1>
    1c62:	04 84       	ldd	r0, Z+12	; 0x0c
    1c64:	f5 85       	ldd	r31, Z+13	; 0x0d
    1c66:	e0 2d       	mov	r30, r0
    1c68:	09 95       	icall
    1c6a:	c8 17       	cp	r28, r24
    1c6c:	d8 f4       	brcc	.+54     	; 0x1ca4 <command_controller_task_run+0x68>
    1c6e:	a0 91 56 06 	lds	r26, 0x0656	; 0x800656 <_act_cmd_handler>
    1c72:	b0 91 57 06 	lds	r27, 0x0657	; 0x800657 <_act_cmd_handler+0x1>
    1c76:	1e 96       	adiw	r26, 0x0e	; 14
    1c78:	ed 91       	ld	r30, X+
    1c7a:	fc 91       	ld	r31, X
    1c7c:	1f 97       	sbiw	r26, 0x0f	; 15
    1c7e:	83 e0       	ldi	r24, 0x03	; 3
    1c80:	c8 9f       	mul	r28, r24
    1c82:	e0 0d       	add	r30, r0
    1c84:	f1 1d       	adc	r31, r1
    1c86:	11 24       	eor	r1, r1
    1c88:	80 81       	ld	r24, Z
    1c8a:	d8 13       	cpse	r29, r24
    1c8c:	18 c0       	rjmp	.+48     	; 0x1cbe <command_controller_task_run+0x82>
    1c8e:	c1 81       	ldd	r28, Z+1	; 0x01
    1c90:	d2 81       	ldd	r29, Z+2	; 0x02
    1c92:	16 96       	adiw	r26, 0x06	; 6
    1c94:	ed 91       	ld	r30, X+
    1c96:	fc 91       	ld	r31, X
    1c98:	17 97       	sbiw	r26, 0x07	; 7
    1c9a:	09 95       	icall
    1c9c:	fe 01       	movw	r30, r28
    1c9e:	09 95       	icall
    1ca0:	8f 3f       	cpi	r24, 0xFF	; 255
    1ca2:	79 f4       	brne	.+30     	; 0x1cc2 <command_controller_task_run+0x86>
    1ca4:	e0 91 56 06 	lds	r30, 0x0656	; 0x800656 <_act_cmd_handler>
    1ca8:	f0 91 57 06 	lds	r31, 0x0657	; 0x800657 <_act_cmd_handler+0x1>
    1cac:	c0 89       	ldd	r28, Z+16	; 0x10
    1cae:	d1 89       	ldd	r29, Z+17	; 0x11
    1cb0:	06 80       	ldd	r0, Z+6	; 0x06
    1cb2:	f7 81       	ldd	r31, Z+7	; 0x07
    1cb4:	e0 2d       	mov	r30, r0
    1cb6:	09 95       	icall
    1cb8:	fe 01       	movw	r30, r28
    1cba:	09 95       	icall
    1cbc:	02 c0       	rjmp	.+4      	; 0x1cc2 <command_controller_task_run+0x86>
    1cbe:	cf 5f       	subi	r28, 0xFF	; 255
    1cc0:	cc cf       	rjmp	.-104    	; 0x1c5a <command_controller_task_run+0x1e>
    1cc2:	e0 91 56 06 	lds	r30, 0x0656	; 0x800656 <_act_cmd_handler>
    1cc6:	f0 91 57 06 	lds	r31, 0x0657	; 0x800657 <_act_cmd_handler+0x1>
    1cca:	04 80       	ldd	r0, Z+4	; 0x04
    1ccc:	f5 81       	ldd	r31, Z+5	; 0x05
    1cce:	e0 2d       	mov	r30, r0
    1cd0:	09 95       	icall
    1cd2:	10 92 57 06 	sts	0x0657, r1	; 0x800657 <_act_cmd_handler+0x1>
    1cd6:	10 92 56 06 	sts	0x0656, r1	; 0x800656 <_act_cmd_handler>
    1cda:	df 91       	pop	r29
    1cdc:	cf 91       	pop	r28
    1cde:	08 95       	ret

00001ce0 <command_controller_task_background_run>:
    1ce0:	08 95       	ret

00001ce2 <command_controller_task_init>:
    1ce2:	08 95       	ret

00001ce4 <command_controller_init>:
    1ce4:	8f e5       	ldi	r24, 0x5F	; 95
    1ce6:	92 e0       	ldi	r25, 0x02	; 2
    1ce8:	0c 94 dc 03 	jmp	0x7b8	; 0x7b8 <mcu_task_controller_register_task>

00001cec <command_controller_register_handler>:
    1cec:	20 91 58 06 	lds	r18, 0x0658	; 0x800658 <_first_cmd_handler>
    1cf0:	30 91 59 06 	lds	r19, 0x0659	; 0x800659 <_first_cmd_handler+0x1>
    1cf4:	23 2b       	or	r18, r19
    1cf6:	29 f4       	brne	.+10     	; 0x1d02 <command_controller_register_handler+0x16>
    1cf8:	90 93 59 06 	sts	0x0659, r25	; 0x800659 <_first_cmd_handler+0x1>
    1cfc:	80 93 58 06 	sts	0x0658, r24	; 0x800658 <_first_cmd_handler>
    1d00:	06 c0       	rjmp	.+12     	; 0x1d0e <command_controller_register_handler+0x22>
    1d02:	e0 91 54 06 	lds	r30, 0x0654	; 0x800654 <_last_cmd_handler>
    1d06:	f0 91 55 06 	lds	r31, 0x0655	; 0x800655 <_last_cmd_handler+0x1>
    1d0a:	93 8b       	std	Z+19, r25	; 0x13
    1d0c:	82 8b       	std	Z+18, r24	; 0x12
    1d0e:	90 93 55 06 	sts	0x0655, r25	; 0x800655 <_last_cmd_handler+0x1>
    1d12:	80 93 54 06 	sts	0x0654, r24	; 0x800654 <_last_cmd_handler>
    1d16:	fc 01       	movw	r30, r24
    1d18:	13 8a       	std	Z+19, r1	; 0x13
    1d1a:	12 8a       	std	Z+18, r1	; 0x12
    1d1c:	08 95       	ret

00001d1e <rpi_cmd_handler_set_request>:
    1d1e:	90 93 5b 06 	sts	0x065B, r25	; 0x80065b <p_act_protocol+0x1>
    1d22:	80 93 5a 06 	sts	0x065A, r24	; 0x80065a <p_act_protocol>
    1d26:	08 95       	ret

00001d28 <rpi_cmd_handler_get_protocol>:
    1d28:	80 91 5a 06 	lds	r24, 0x065A	; 0x80065a <p_act_protocol>
    1d2c:	90 91 5b 06 	lds	r25, 0x065B	; 0x80065b <p_act_protocol+0x1>
    1d30:	08 95       	ret

00001d32 <rpi_cmd_handler_set_unrequested>:
    1d32:	10 92 5b 06 	sts	0x065B, r1	; 0x80065b <p_act_protocol+0x1>
    1d36:	10 92 5a 06 	sts	0x065A, r1	; 0x80065a <p_act_protocol>
    1d3a:	08 95       	ret

00001d3c <rpi_cmd_handler_is_requested>:
    1d3c:	81 e0       	ldi	r24, 0x01	; 1
    1d3e:	20 91 5a 06 	lds	r18, 0x065A	; 0x80065a <p_act_protocol>
    1d42:	30 91 5b 06 	lds	r19, 0x065B	; 0x80065b <p_act_protocol+0x1>
    1d46:	23 2b       	or	r18, r19
    1d48:	09 f4       	brne	.+2      	; 0x1d4c <rpi_cmd_handler_is_requested+0x10>
    1d4a:	80 e0       	ldi	r24, 0x00	; 0
    1d4c:	08 95       	ret

00001d4e <rpi_cmd_handler_get_command_code>:
    1d4e:	e0 91 5a 06 	lds	r30, 0x065A	; 0x80065a <p_act_protocol>
    1d52:	f0 91 5b 06 	lds	r31, 0x065B	; 0x80065b <p_act_protocol+0x1>
    1d56:	30 97       	sbiw	r30, 0x00	; 0
    1d58:	11 f0       	breq	.+4      	; 0x1d5e <rpi_cmd_handler_get_command_code+0x10>
    1d5a:	81 81       	ldd	r24, Z+1	; 0x01
    1d5c:	08 95       	ret
    1d5e:	80 e0       	ldi	r24, 0x00	; 0
    1d60:	08 95       	ret

00001d62 <rpi_cmd_default_handler>:
    1d62:	dc 01       	movw	r26, r24
    1d64:	15 96       	adiw	r26, 0x05	; 5
    1d66:	ed 91       	ld	r30, X+
    1d68:	fc 91       	ld	r31, X
    1d6a:	16 97       	sbiw	r26, 0x06	; 6
    1d6c:	82 e0       	ldi	r24, 0x02	; 2
    1d6e:	09 95       	icall
    1d70:	82 e0       	ldi	r24, 0x02	; 2
    1d72:	08 95       	ret

00001d74 <rpi_command_handler_slot_cmd_received_CALLBACK>:
    1d74:	90 93 5b 06 	sts	0x065B, r25	; 0x80065b <p_act_protocol+0x1>
    1d78:	80 93 5a 06 	sts	0x065A, r24	; 0x80065a <p_act_protocol>
    1d7c:	08 95       	ret

00001d7e <RPI_CMD_HANDLER_SLOT_CMD_RECEIVED_connect>:
    1d7e:	8a eb       	ldi	r24, 0xBA	; 186
    1d80:	9e e0       	ldi	r25, 0x0E	; 14
    1d82:	90 93 5d 06 	sts	0x065D, r25	; 0x80065d <_RPI_CMD_HANDLER_SLOT_CMD_RECEIVED_context+0x1>
    1d86:	80 93 5c 06 	sts	0x065C, r24	; 0x80065c <_RPI_CMD_HANDLER_SLOT_CMD_RECEIVED_context>
    1d8a:	8c e5       	ldi	r24, 0x5C	; 92
    1d8c:	96 e0       	ldi	r25, 0x06	; 6
    1d8e:	e3 cd       	rjmp	.-1082   	; 0x1956 <RPI_PROTOCOL_COMMAND_RECEIVED_SIGNAL_connect>

00001d90 <rpi_cmd_handler_init>:
    1d90:	10 92 5b 06 	sts	0x065B, r1	; 0x80065b <p_act_protocol+0x1>
    1d94:	10 92 5a 06 	sts	0x065A, r1	; 0x80065a <p_act_protocol>
    1d98:	f2 df       	rcall	.-28     	; 0x1d7e <RPI_CMD_HANDLER_SLOT_CMD_RECEIVED_connect>
    1d9a:	88 e7       	ldi	r24, 0x78	; 120
    1d9c:	92 e0       	ldi	r25, 0x02	; 2
    1d9e:	a6 cf       	rjmp	.-180    	; 0x1cec <command_controller_register_handler>

00001da0 <rpi_cmd_handler_table_get_size>:
    1da0:	82 e0       	ldi	r24, 0x02	; 2
    1da2:	08 95       	ret

00001da4 <rpi_cmd_get_version>:
    1da4:	cf 93       	push	r28
    1da6:	df 93       	push	r29
    1da8:	ec 01       	movw	r28, r24
    1daa:	e9 85       	ldd	r30, Y+9	; 0x09
    1dac:	fa 85       	ldd	r31, Y+10	; 0x0a
    1dae:	01 90       	ld	r0, Z+
    1db0:	f0 81       	ld	r31, Z
    1db2:	e0 2d       	mov	r30, r0
    1db4:	09 95       	icall
    1db6:	e9 85       	ldd	r30, Y+9	; 0x09
    1db8:	fa 85       	ldd	r31, Y+10	; 0x0a
    1dba:	02 80       	ldd	r0, Z+2	; 0x02
    1dbc:	f3 81       	ldd	r31, Z+3	; 0x03
    1dbe:	e0 2d       	mov	r30, r0
    1dc0:	81 e0       	ldi	r24, 0x01	; 1
    1dc2:	09 95       	icall
    1dc4:	e9 85       	ldd	r30, Y+9	; 0x09
    1dc6:	fa 85       	ldd	r31, Y+10	; 0x0a
    1dc8:	02 80       	ldd	r0, Z+2	; 0x02
    1dca:	f3 81       	ldd	r31, Z+3	; 0x03
    1dcc:	e0 2d       	mov	r30, r0
    1dce:	87 e0       	ldi	r24, 0x07	; 7
    1dd0:	09 95       	icall
    1dd2:	e9 85       	ldd	r30, Y+9	; 0x09
    1dd4:	fa 85       	ldd	r31, Y+10	; 0x0a
    1dd6:	02 84       	ldd	r0, Z+10	; 0x0a
    1dd8:	f3 85       	ldd	r31, Z+11	; 0x0b
    1dda:	e0 2d       	mov	r30, r0
    1ddc:	09 95       	icall
    1dde:	ed 81       	ldd	r30, Y+5	; 0x05
    1de0:	fe 81       	ldd	r31, Y+6	; 0x06
    1de2:	80 e0       	ldi	r24, 0x00	; 0
    1de4:	09 95       	icall
    1de6:	80 e0       	ldi	r24, 0x00	; 0
    1de8:	df 91       	pop	r29
    1dea:	cf 91       	pop	r28
    1dec:	08 95       	ret

00001dee <rpi_cmd_handler_ir_remote>:
    1dee:	ff 92       	push	r15
    1df0:	0f 93       	push	r16
    1df2:	1f 93       	push	r17
    1df4:	cf 93       	push	r28
    1df6:	df 93       	push	r29
    1df8:	ec 01       	movw	r28, r24
    1dfa:	ef 81       	ldd	r30, Y+7	; 0x07
    1dfc:	f8 85       	ldd	r31, Y+8	; 0x08
    1dfe:	02 80       	ldd	r0, Z+2	; 0x02
    1e00:	f3 81       	ldd	r31, Z+3	; 0x03
    1e02:	e0 2d       	mov	r30, r0
    1e04:	09 95       	icall
    1e06:	81 11       	cpse	r24, r1
    1e08:	06 c0       	rjmp	.+12     	; 0x1e16 <rpi_cmd_handler_ir_remote+0x28>
    1e0a:	ed 81       	ldd	r30, Y+5	; 0x05
    1e0c:	fe 81       	ldd	r31, Y+6	; 0x06
    1e0e:	82 e0       	ldi	r24, 0x02	; 2
    1e10:	09 95       	icall
    1e12:	82 e0       	ldi	r24, 0x02	; 2
    1e14:	3b c0       	rjmp	.+118    	; 0x1e8c <rpi_cmd_handler_ir_remote+0x9e>
    1e16:	ef 81       	ldd	r30, Y+7	; 0x07
    1e18:	f8 85       	ldd	r31, Y+8	; 0x08
    1e1a:	01 90       	ld	r0, Z+
    1e1c:	f0 81       	ld	r31, Z
    1e1e:	e0 2d       	mov	r30, r0
    1e20:	09 95       	icall
    1e22:	ef 81       	ldd	r30, Y+7	; 0x07
    1e24:	f8 85       	ldd	r31, Y+8	; 0x08
    1e26:	04 80       	ldd	r0, Z+4	; 0x04
    1e28:	f5 81       	ldd	r31, Z+5	; 0x05
    1e2a:	e0 2d       	mov	r30, r0
    1e2c:	09 95       	icall
    1e2e:	f8 2e       	mov	r15, r24
    1e30:	ef 81       	ldd	r30, Y+7	; 0x07
    1e32:	f8 85       	ldd	r31, Y+8	; 0x08
    1e34:	04 80       	ldd	r0, Z+4	; 0x04
    1e36:	f5 81       	ldd	r31, Z+5	; 0x05
    1e38:	e0 2d       	mov	r30, r0
    1e3a:	09 95       	icall
    1e3c:	18 2f       	mov	r17, r24
    1e3e:	ef 81       	ldd	r30, Y+7	; 0x07
    1e40:	f8 85       	ldd	r31, Y+8	; 0x08
    1e42:	04 80       	ldd	r0, Z+4	; 0x04
    1e44:	f5 81       	ldd	r31, Z+5	; 0x05
    1e46:	e0 2d       	mov	r30, r0
    1e48:	09 95       	icall
    1e4a:	08 2f       	mov	r16, r24
    1e4c:	ef 81       	ldd	r30, Y+7	; 0x07
    1e4e:	f8 85       	ldd	r31, Y+8	; 0x08
    1e50:	04 84       	ldd	r0, Z+12	; 0x0c
    1e52:	f5 85       	ldd	r31, Z+13	; 0x0d
    1e54:	e0 2d       	mov	r30, r0
    1e56:	09 95       	icall
    1e58:	82 e0       	ldi	r24, 0x02	; 2
    1e5a:	f8 16       	cp	r15, r24
    1e5c:	49 f0       	breq	.+18     	; 0x1e70 <rpi_cmd_handler_ir_remote+0x82>
    1e5e:	83 e0       	ldi	r24, 0x03	; 3
    1e60:	f8 16       	cp	r15, r24
    1e62:	49 f0       	breq	.+18     	; 0x1e76 <rpi_cmd_handler_ir_remote+0x88>
    1e64:	81 e0       	ldi	r24, 0x01	; 1
    1e66:	f8 12       	cpse	r15, r24
    1e68:	0b c0       	rjmp	.+22     	; 0x1e80 <rpi_cmd_handler_ir_remote+0x92>
    1e6a:	60 2f       	mov	r22, r16
    1e6c:	81 2f       	mov	r24, r17
    1e6e:	13 d0       	rcall	.+38     	; 0x1e96 <rpi_cmd_handler_ir_remote_samsung>
    1e70:	60 2f       	mov	r22, r16
    1e72:	81 2f       	mov	r24, r17
    1e74:	c9 d0       	rcall	.+402    	; 0x2008 <rpi_cmd_handler_ir_remote_jvc>
    1e76:	60 2f       	mov	r22, r16
    1e78:	81 2f       	mov	r24, r17
    1e7a:	0b d1       	rcall	.+534    	; 0x2092 <rpi_cmd_handler_ir_remote_sony>
    1e7c:	18 2f       	mov	r17, r24
    1e7e:	01 c0       	rjmp	.+2      	; 0x1e82 <rpi_cmd_handler_ir_remote+0x94>
    1e80:	13 e0       	ldi	r17, 0x03	; 3
    1e82:	ed 81       	ldd	r30, Y+5	; 0x05
    1e84:	fe 81       	ldd	r31, Y+6	; 0x06
    1e86:	81 2f       	mov	r24, r17
    1e88:	09 95       	icall
    1e8a:	81 2f       	mov	r24, r17
    1e8c:	cd b7       	in	r28, 0x3d	; 61
    1e8e:	de b7       	in	r29, 0x3e	; 62
    1e90:	e5 e0       	ldi	r30, 0x05	; 5
    1e92:	0c 94 7c 19 	jmp	0x32f8	; 0x32f8 <__epilogue_restores__+0x1a>

00001e96 <rpi_cmd_handler_ir_remote_samsung>:
    1e96:	a2 e0       	ldi	r26, 0x02	; 2
    1e98:	b0 e0       	ldi	r27, 0x00	; 0
    1e9a:	e1 e5       	ldi	r30, 0x51	; 81
    1e9c:	ff e0       	ldi	r31, 0x0F	; 15
    1e9e:	0c 94 63 19 	jmp	0x32c6	; 0x32c6 <__prologue_saves__+0x20>
    1ea2:	81 30       	cpi	r24, 0x01	; 1
    1ea4:	09 f0       	breq	.+2      	; 0x1ea8 <rpi_cmd_handler_ir_remote_samsung+0x12>
    1ea6:	ab c0       	rjmp	.+342    	; 0x1ffe <rpi_cmd_handler_ir_remote_samsung+0x168>
    1ea8:	86 2f       	mov	r24, r22
    1eaa:	90 e0       	ldi	r25, 0x00	; 0
    1eac:	fc 01       	movw	r30, r24
    1eae:	31 97       	sbiw	r30, 0x01	; 1
    1eb0:	e2 32       	cpi	r30, 0x22	; 34
    1eb2:	f1 05       	cpc	r31, r1
    1eb4:	08 f0       	brcs	.+2      	; 0x1eb8 <rpi_cmd_handler_ir_remote_samsung+0x22>
    1eb6:	a3 c0       	rjmp	.+326    	; 0x1ffe <rpi_cmd_handler_ir_remote_samsung+0x168>
    1eb8:	e2 5b       	subi	r30, 0xB2	; 178
    1eba:	ff 4f       	sbci	r31, 0xFF	; 255
    1ebc:	0c 94 4a 19 	jmp	0x3294	; 0x3294 <__tablejump2__>
    1ec0:	ce 01       	movw	r24, r28
    1ec2:	01 96       	adiw	r24, 0x01	; 1
    1ec4:	0e 94 41 07 	call	0xe82	; 0xe82 <ir_protocol_samsung_cmd_tv_power>
    1ec8:	90 c0       	rjmp	.+288    	; 0x1fea <rpi_cmd_handler_ir_remote_samsung+0x154>
    1eca:	ce 01       	movw	r24, r28
    1ecc:	01 96       	adiw	r24, 0x01	; 1
    1ece:	0e 94 45 07 	call	0xe8a	; 0xe8a <ir_protocol_samsung_cmd_tv_volume_up>
    1ed2:	8b c0       	rjmp	.+278    	; 0x1fea <rpi_cmd_handler_ir_remote_samsung+0x154>
    1ed4:	ce 01       	movw	r24, r28
    1ed6:	01 96       	adiw	r24, 0x01	; 1
    1ed8:	0e 94 49 07 	call	0xe92	; 0xe92 <ir_protocol_samsung_cmd_tv_volume_down>
    1edc:	86 c0       	rjmp	.+268    	; 0x1fea <rpi_cmd_handler_ir_remote_samsung+0x154>
    1ede:	ce 01       	movw	r24, r28
    1ee0:	01 96       	adiw	r24, 0x01	; 1
    1ee2:	0e 94 4d 07 	call	0xe9a	; 0xe9a <ir_protocol_samsung_cmd_tv_volume_mute>
    1ee6:	81 c0       	rjmp	.+258    	; 0x1fea <rpi_cmd_handler_ir_remote_samsung+0x154>
    1ee8:	ce 01       	movw	r24, r28
    1eea:	01 96       	adiw	r24, 0x01	; 1
    1eec:	0e 94 51 07 	call	0xea2	; 0xea2 <ir_protocol_samsung_cmd_tv_channel_up>
    1ef0:	7c c0       	rjmp	.+248    	; 0x1fea <rpi_cmd_handler_ir_remote_samsung+0x154>
    1ef2:	ce 01       	movw	r24, r28
    1ef4:	01 96       	adiw	r24, 0x01	; 1
    1ef6:	0e 94 55 07 	call	0xeaa	; 0xeaa <ir_protocol_samsung_cmd_tv_channel_down>
    1efa:	77 c0       	rjmp	.+238    	; 0x1fea <rpi_cmd_handler_ir_remote_samsung+0x154>
    1efc:	ce 01       	movw	r24, r28
    1efe:	01 96       	adiw	r24, 0x01	; 1
    1f00:	0e 94 59 07 	call	0xeb2	; 0xeb2 <ir_protocol_samsung_cmd_tv_channel_0>
    1f04:	72 c0       	rjmp	.+228    	; 0x1fea <rpi_cmd_handler_ir_remote_samsung+0x154>
    1f06:	ce 01       	movw	r24, r28
    1f08:	01 96       	adiw	r24, 0x01	; 1
    1f0a:	0e 94 5d 07 	call	0xeba	; 0xeba <ir_protocol_samsung_cmd_tv_channel_1>
    1f0e:	6d c0       	rjmp	.+218    	; 0x1fea <rpi_cmd_handler_ir_remote_samsung+0x154>
    1f10:	ce 01       	movw	r24, r28
    1f12:	01 96       	adiw	r24, 0x01	; 1
    1f14:	0e 94 61 07 	call	0xec2	; 0xec2 <ir_protocol_samsung_cmd_tv_channel_2>
    1f18:	68 c0       	rjmp	.+208    	; 0x1fea <rpi_cmd_handler_ir_remote_samsung+0x154>
    1f1a:	ce 01       	movw	r24, r28
    1f1c:	01 96       	adiw	r24, 0x01	; 1
    1f1e:	0e 94 65 07 	call	0xeca	; 0xeca <ir_protocol_samsung_cmd_tv_channel_3>
    1f22:	63 c0       	rjmp	.+198    	; 0x1fea <rpi_cmd_handler_ir_remote_samsung+0x154>
    1f24:	ce 01       	movw	r24, r28
    1f26:	01 96       	adiw	r24, 0x01	; 1
    1f28:	0e 94 69 07 	call	0xed2	; 0xed2 <ir_protocol_samsung_cmd_tv_channel_4>
    1f2c:	5e c0       	rjmp	.+188    	; 0x1fea <rpi_cmd_handler_ir_remote_samsung+0x154>
    1f2e:	ce 01       	movw	r24, r28
    1f30:	01 96       	adiw	r24, 0x01	; 1
    1f32:	0e 94 6d 07 	call	0xeda	; 0xeda <ir_protocol_samsung_cmd_tv_channel_5>
    1f36:	59 c0       	rjmp	.+178    	; 0x1fea <rpi_cmd_handler_ir_remote_samsung+0x154>
    1f38:	ce 01       	movw	r24, r28
    1f3a:	01 96       	adiw	r24, 0x01	; 1
    1f3c:	0e 94 71 07 	call	0xee2	; 0xee2 <ir_protocol_samsung_cmd_tv_channel_6>
    1f40:	54 c0       	rjmp	.+168    	; 0x1fea <rpi_cmd_handler_ir_remote_samsung+0x154>
    1f42:	ce 01       	movw	r24, r28
    1f44:	01 96       	adiw	r24, 0x01	; 1
    1f46:	0e 94 75 07 	call	0xeea	; 0xeea <ir_protocol_samsung_cmd_tv_channel_7>
    1f4a:	4f c0       	rjmp	.+158    	; 0x1fea <rpi_cmd_handler_ir_remote_samsung+0x154>
    1f4c:	ce 01       	movw	r24, r28
    1f4e:	01 96       	adiw	r24, 0x01	; 1
    1f50:	0e 94 79 07 	call	0xef2	; 0xef2 <ir_protocol_samsung_cmd_tv_channel_8>
    1f54:	4a c0       	rjmp	.+148    	; 0x1fea <rpi_cmd_handler_ir_remote_samsung+0x154>
    1f56:	ce 01       	movw	r24, r28
    1f58:	01 96       	adiw	r24, 0x01	; 1
    1f5a:	0e 94 7d 07 	call	0xefa	; 0xefa <ir_protocol_samsung_cmd_tv_channel_9>
    1f5e:	45 c0       	rjmp	.+138    	; 0x1fea <rpi_cmd_handler_ir_remote_samsung+0x154>
    1f60:	ce 01       	movw	r24, r28
    1f62:	01 96       	adiw	r24, 0x01	; 1
    1f64:	0e 94 81 07 	call	0xf02	; 0xf02 <ir_protocol_samsung_cmd_tv_enter>
    1f68:	40 c0       	rjmp	.+128    	; 0x1fea <rpi_cmd_handler_ir_remote_samsung+0x154>
    1f6a:	ce 01       	movw	r24, r28
    1f6c:	01 96       	adiw	r24, 0x01	; 1
    1f6e:	0e 94 85 07 	call	0xf0a	; 0xf0a <ir_protocol_samsung_cmd_tv_exit>
    1f72:	3b c0       	rjmp	.+118    	; 0x1fea <rpi_cmd_handler_ir_remote_samsung+0x154>
    1f74:	ce 01       	movw	r24, r28
    1f76:	01 96       	adiw	r24, 0x01	; 1
    1f78:	0e 94 89 07 	call	0xf12	; 0xf12 <ir_protocol_samsung_cmd_tv_return>
    1f7c:	36 c0       	rjmp	.+108    	; 0x1fea <rpi_cmd_handler_ir_remote_samsung+0x154>
    1f7e:	ce 01       	movw	r24, r28
    1f80:	01 96       	adiw	r24, 0x01	; 1
    1f82:	0e 94 8d 07 	call	0xf1a	; 0xf1a <ir_protocol_samsung_cmd_tv_arrow_up>
    1f86:	31 c0       	rjmp	.+98     	; 0x1fea <rpi_cmd_handler_ir_remote_samsung+0x154>
    1f88:	ce 01       	movw	r24, r28
    1f8a:	01 96       	adiw	r24, 0x01	; 1
    1f8c:	0e 94 91 07 	call	0xf22	; 0xf22 <ir_protocol_samsung_cmd_tv_arrow_down>
    1f90:	2c c0       	rjmp	.+88     	; 0x1fea <rpi_cmd_handler_ir_remote_samsung+0x154>
    1f92:	ce 01       	movw	r24, r28
    1f94:	01 96       	adiw	r24, 0x01	; 1
    1f96:	0e 94 95 07 	call	0xf2a	; 0xf2a <ir_protocol_samsung_cmd_tv_arrow_left>
    1f9a:	27 c0       	rjmp	.+78     	; 0x1fea <rpi_cmd_handler_ir_remote_samsung+0x154>
    1f9c:	ce 01       	movw	r24, r28
    1f9e:	01 96       	adiw	r24, 0x01	; 1
    1fa0:	0e 94 99 07 	call	0xf32	; 0xf32 <ir_protocol_samsung_cmd_tv_arrow_right>
    1fa4:	22 c0       	rjmp	.+68     	; 0x1fea <rpi_cmd_handler_ir_remote_samsung+0x154>
    1fa6:	ce 01       	movw	r24, r28
    1fa8:	01 96       	adiw	r24, 0x01	; 1
    1faa:	0e 94 9d 07 	call	0xf3a	; 0xf3a <ir_protocol_samsung_cmd_tv_play>
    1fae:	1d c0       	rjmp	.+58     	; 0x1fea <rpi_cmd_handler_ir_remote_samsung+0x154>
    1fb0:	ce 01       	movw	r24, r28
    1fb2:	01 96       	adiw	r24, 0x01	; 1
    1fb4:	0e 94 a1 07 	call	0xf42	; 0xf42 <ir_protocol_samsung_cmd_tv_pause>
    1fb8:	18 c0       	rjmp	.+48     	; 0x1fea <rpi_cmd_handler_ir_remote_samsung+0x154>
    1fba:	ce 01       	movw	r24, r28
    1fbc:	01 96       	adiw	r24, 0x01	; 1
    1fbe:	0e 94 a5 07 	call	0xf4a	; 0xf4a <ir_protocol_samsung_cmd_tv_stop>
    1fc2:	13 c0       	rjmp	.+38     	; 0x1fea <rpi_cmd_handler_ir_remote_samsung+0x154>
    1fc4:	ce 01       	movw	r24, r28
    1fc6:	01 96       	adiw	r24, 0x01	; 1
    1fc8:	0e 94 a9 07 	call	0xf52	; 0xf52 <ir_protocol_samsung_cmd_tv_program_guide>
    1fcc:	0e c0       	rjmp	.+28     	; 0x1fea <rpi_cmd_handler_ir_remote_samsung+0x154>
    1fce:	ce 01       	movw	r24, r28
    1fd0:	01 96       	adiw	r24, 0x01	; 1
    1fd2:	0e 94 ad 07 	call	0xf5a	; 0xf5a <ir_protocol_samsung_cmd_tv_home>
    1fd6:	09 c0       	rjmp	.+18     	; 0x1fea <rpi_cmd_handler_ir_remote_samsung+0x154>
    1fd8:	ce 01       	movw	r24, r28
    1fda:	01 96       	adiw	r24, 0x01	; 1
    1fdc:	0e 94 b1 07 	call	0xf62	; 0xf62 <ir_protocol_samsung_cmd_tv_channel_list>
    1fe0:	04 c0       	rjmp	.+8      	; 0x1fea <rpi_cmd_handler_ir_remote_samsung+0x154>
    1fe2:	ce 01       	movw	r24, r28
    1fe4:	01 96       	adiw	r24, 0x01	; 1
    1fe6:	0e 94 b5 07 	call	0xf6a	; 0xf6a <ir_protocol_samsung_cmd_tv_source>
    1fea:	ce 01       	movw	r24, r28
    1fec:	01 96       	adiw	r24, 0x01	; 1
    1fee:	0e 94 3d 07 	call	0xe7a	; 0xe7a <ir_protocol_samsung_address_tv>
    1ff2:	ce 01       	movw	r24, r28
    1ff4:	01 96       	adiw	r24, 0x01	; 1
    1ff6:	0e 94 e1 05 	call	0xbc2	; 0xbc2 <SAMSUNG_IR_CMD_RECEIVED_SIGNAL_send>
    1ffa:	80 e0       	ldi	r24, 0x00	; 0
    1ffc:	01 c0       	rjmp	.+2      	; 0x2000 <rpi_cmd_handler_ir_remote_samsung+0x16a>
    1ffe:	83 e0       	ldi	r24, 0x03	; 3
    2000:	22 96       	adiw	r28, 0x02	; 2
    2002:	e2 e0       	ldi	r30, 0x02	; 2
    2004:	0c 94 7f 19 	jmp	0x32fe	; 0x32fe <__epilogue_restores__+0x20>

00002008 <rpi_cmd_handler_ir_remote_jvc>:
    2008:	a2 e0       	ldi	r26, 0x02	; 2
    200a:	b0 e0       	ldi	r27, 0x00	; 0
    200c:	ea e0       	ldi	r30, 0x0A	; 10
    200e:	f0 e1       	ldi	r31, 0x10	; 16
    2010:	0c 94 63 19 	jmp	0x32c6	; 0x32c6 <__prologue_saves__+0x20>
    2014:	82 30       	cpi	r24, 0x02	; 2
    2016:	09 f0       	breq	.+2      	; 0x201a <rpi_cmd_handler_ir_remote_jvc+0x12>
    2018:	37 c0       	rjmp	.+110    	; 0x2088 <rpi_cmd_handler_ir_remote_jvc+0x80>
    201a:	86 2f       	mov	r24, r22
    201c:	90 e0       	ldi	r25, 0x00	; 0
    201e:	fc 01       	movw	r30, r24
    2020:	31 97       	sbiw	r30, 0x01	; 1
    2022:	ed 31       	cpi	r30, 0x1D	; 29
    2024:	f1 05       	cpc	r31, r1
    2026:	80 f5       	brcc	.+96     	; 0x2088 <rpi_cmd_handler_ir_remote_jvc+0x80>
    2028:	e0 59       	subi	r30, 0x90	; 144
    202a:	ff 4f       	sbci	r31, 0xFF	; 255
    202c:	0c 94 4a 19 	jmp	0x3294	; 0x3294 <__tablejump2__>
    2030:	ce 01       	movw	r24, r28
    2032:	01 96       	adiw	r24, 0x01	; 1
    2034:	ae d8       	rcall	.-3748   	; 0x1192 <ir_protocol_jvc_cmd_radio_power>
    2036:	1f c0       	rjmp	.+62     	; 0x2076 <rpi_cmd_handler_ir_remote_jvc+0x6e>
    2038:	ce 01       	movw	r24, r28
    203a:	01 96       	adiw	r24, 0x01	; 1
    203c:	ad d8       	rcall	.-3750   	; 0x1198 <ir_protocol_jvc_cmd_radio_volume_up>
    203e:	1b c0       	rjmp	.+54     	; 0x2076 <rpi_cmd_handler_ir_remote_jvc+0x6e>
    2040:	ce 01       	movw	r24, r28
    2042:	01 96       	adiw	r24, 0x01	; 1
    2044:	ad d8       	rcall	.-3750   	; 0x11a0 <ir_protocol_jvc_cmd_radio_volume_down>
    2046:	17 c0       	rjmp	.+46     	; 0x2076 <rpi_cmd_handler_ir_remote_jvc+0x6e>
    2048:	ce 01       	movw	r24, r28
    204a:	01 96       	adiw	r24, 0x01	; 1
    204c:	ad d8       	rcall	.-3750   	; 0x11a8 <ir_protocol_jvc_cmd_radio_play>
    204e:	13 c0       	rjmp	.+38     	; 0x2076 <rpi_cmd_handler_ir_remote_jvc+0x6e>
    2050:	ce 01       	movw	r24, r28
    2052:	01 96       	adiw	r24, 0x01	; 1
    2054:	ad d8       	rcall	.-3750   	; 0x11b0 <ir_protocol_jvc_cmd_radio_pause>
    2056:	0f c0       	rjmp	.+30     	; 0x2076 <rpi_cmd_handler_ir_remote_jvc+0x6e>
    2058:	ce 01       	movw	r24, r28
    205a:	01 96       	adiw	r24, 0x01	; 1
    205c:	ad d8       	rcall	.-3750   	; 0x11b8 <ir_protocol_jvc_cmd_radio_stop>
    205e:	0b c0       	rjmp	.+22     	; 0x2076 <rpi_cmd_handler_ir_remote_jvc+0x6e>
    2060:	ce 01       	movw	r24, r28
    2062:	01 96       	adiw	r24, 0x01	; 1
    2064:	ad d8       	rcall	.-3750   	; 0x11c0 <ir_protocol_jvc_cmd_radio_bass_up>
    2066:	07 c0       	rjmp	.+14     	; 0x2076 <rpi_cmd_handler_ir_remote_jvc+0x6e>
    2068:	ce 01       	movw	r24, r28
    206a:	01 96       	adiw	r24, 0x01	; 1
    206c:	ad d8       	rcall	.-3750   	; 0x11c8 <ir_protocol_jvc_cmd_radio_bass_down>
    206e:	03 c0       	rjmp	.+6      	; 0x2076 <rpi_cmd_handler_ir_remote_jvc+0x6e>
    2070:	ce 01       	movw	r24, r28
    2072:	01 96       	adiw	r24, 0x01	; 1
    2074:	ad d8       	rcall	.-3750   	; 0x11d0 <ir_protocol_jvc_cmd_radio_sound_mode>
    2076:	ce 01       	movw	r24, r28
    2078:	01 96       	adiw	r24, 0x01	; 1
    207a:	87 d8       	rcall	.-3826   	; 0x118a <ir_protocol_jvc_address_radio>
    207c:	ce 01       	movw	r24, r28
    207e:	01 96       	adiw	r24, 0x01	; 1
    2080:	0e 94 f5 05 	call	0xbea	; 0xbea <JVC_IR_CMD_RECEIVED_SIGNAL_send>
    2084:	80 e0       	ldi	r24, 0x00	; 0
    2086:	01 c0       	rjmp	.+2      	; 0x208a <rpi_cmd_handler_ir_remote_jvc+0x82>
    2088:	83 e0       	ldi	r24, 0x03	; 3
    208a:	22 96       	adiw	r28, 0x02	; 2
    208c:	e2 e0       	ldi	r30, 0x02	; 2
    208e:	0c 94 7f 19 	jmp	0x32fe	; 0x32fe <__epilogue_restores__+0x20>

00002092 <rpi_cmd_handler_ir_remote_sony>:
    2092:	a3 e0       	ldi	r26, 0x03	; 3
    2094:	b0 e0       	ldi	r27, 0x00	; 0
    2096:	ef e4       	ldi	r30, 0x4F	; 79
    2098:	f0 e1       	ldi	r31, 0x10	; 16
    209a:	0c 94 63 19 	jmp	0x32c6	; 0x32c6 <__prologue_saves__+0x20>
    209e:	83 30       	cpi	r24, 0x03	; 3
    20a0:	09 f0       	breq	.+2      	; 0x20a4 <rpi_cmd_handler_ir_remote_sony+0x12>
    20a2:	58 c0       	rjmp	.+176    	; 0x2154 <rpi_cmd_handler_ir_remote_sony+0xc2>
    20a4:	63 32       	cpi	r22, 0x23	; 35
    20a6:	09 f4       	brne	.+2      	; 0x20aa <rpi_cmd_handler_ir_remote_sony+0x18>
    20a8:	41 c0       	rjmp	.+130    	; 0x212c <rpi_cmd_handler_ir_remote_sony+0x9a>
    20aa:	98 f4       	brcc	.+38     	; 0x20d2 <rpi_cmd_handler_ir_remote_sony+0x40>
    20ac:	63 31       	cpi	r22, 0x13	; 19
    20ae:	91 f1       	breq	.+100    	; 0x2114 <rpi_cmd_handler_ir_remote_sony+0x82>
    20b0:	28 f4       	brcc	.+10     	; 0x20bc <rpi_cmd_handler_ir_remote_sony+0x2a>
    20b2:	61 30       	cpi	r22, 0x01	; 1
    20b4:	19 f1       	breq	.+70     	; 0x20fc <rpi_cmd_handler_ir_remote_sony+0x6a>
    20b6:	62 30       	cpi	r22, 0x02	; 2
    20b8:	09 f1       	breq	.+66     	; 0x20fc <rpi_cmd_handler_ir_remote_sony+0x6a>
    20ba:	4c c0       	rjmp	.+152    	; 0x2154 <rpi_cmd_handler_ir_remote_sony+0xc2>
    20bc:	69 31       	cpi	r22, 0x19	; 25
    20be:	71 f1       	breq	.+92     	; 0x211c <rpi_cmd_handler_ir_remote_sony+0x8a>
    20c0:	6a 31       	cpi	r22, 0x1A	; 26
    20c2:	81 f1       	breq	.+96     	; 0x2124 <rpi_cmd_handler_ir_remote_sony+0x92>
    20c4:	68 31       	cpi	r22, 0x18	; 24
    20c6:	09 f0       	breq	.+2      	; 0x20ca <rpi_cmd_handler_ir_remote_sony+0x38>
    20c8:	45 c0       	rjmp	.+138    	; 0x2154 <rpi_cmd_handler_ir_remote_sony+0xc2>
    20ca:	ce 01       	movw	r24, r28
    20cc:	01 96       	adiw	r24, 0x01	; 1
    20ce:	aa d9       	rcall	.-3244   	; 0x1424 <ir_protocol_sony_cmd_bdplayer_play>
    20d0:	38 c0       	rjmp	.+112    	; 0x2142 <rpi_cmd_handler_ir_remote_sony+0xb0>
    20d2:	66 32       	cpi	r22, 0x26	; 38
    20d4:	b9 f0       	breq	.+46     	; 0x2104 <rpi_cmd_handler_ir_remote_sony+0x72>
    20d6:	48 f4       	brcc	.+18     	; 0x20ea <rpi_cmd_handler_ir_remote_sony+0x58>
    20d8:	64 32       	cpi	r22, 0x24	; 36
    20da:	61 f1       	breq	.+88     	; 0x2134 <rpi_cmd_handler_ir_remote_sony+0xa2>
    20dc:	65 32       	cpi	r22, 0x25	; 37
    20de:	09 f0       	breq	.+2      	; 0x20e2 <rpi_cmd_handler_ir_remote_sony+0x50>
    20e0:	39 c0       	rjmp	.+114    	; 0x2154 <rpi_cmd_handler_ir_remote_sony+0xc2>
    20e2:	ce 01       	movw	r24, r28
    20e4:	01 96       	adiw	r24, 0x01	; 1
    20e6:	b2 d9       	rcall	.-3228   	; 0x144c <ir_protocol_sony_cmd_bdplayer_eject>
    20e8:	2c c0       	rjmp	.+88     	; 0x2142 <rpi_cmd_handler_ir_remote_sony+0xb0>
    20ea:	68 32       	cpi	r22, 0x28	; 40
    20ec:	39 f1       	breq	.+78     	; 0x213c <rpi_cmd_handler_ir_remote_sony+0xaa>
    20ee:	70 f0       	brcs	.+28     	; 0x210c <rpi_cmd_handler_ir_remote_sony+0x7a>
    20f0:	69 32       	cpi	r22, 0x29	; 41
    20f2:	81 f5       	brne	.+96     	; 0x2154 <rpi_cmd_handler_ir_remote_sony+0xc2>
    20f4:	ce 01       	movw	r24, r28
    20f6:	01 96       	adiw	r24, 0x01	; 1
    20f8:	bd d9       	rcall	.-3206   	; 0x1474 <ir_protocol_sony_cmd_bdplayer_previous>
    20fa:	23 c0       	rjmp	.+70     	; 0x2142 <rpi_cmd_handler_ir_remote_sony+0xb0>
    20fc:	ce 01       	movw	r24, r28
    20fe:	01 96       	adiw	r24, 0x01	; 1
    2100:	8d d9       	rcall	.-3302   	; 0x141c <ir_protocol_sony_cmd_bdplayer_power>
    2102:	1f c0       	rjmp	.+62     	; 0x2142 <rpi_cmd_handler_ir_remote_sony+0xb0>
    2104:	ce 01       	movw	r24, r28
    2106:	01 96       	adiw	r24, 0x01	; 1
    2108:	a9 d9       	rcall	.-3246   	; 0x145c <ir_protocol_sony_cmd_bdplayer_top_menu>
    210a:	1b c0       	rjmp	.+54     	; 0x2142 <rpi_cmd_handler_ir_remote_sony+0xb0>
    210c:	ce 01       	movw	r24, r28
    210e:	01 96       	adiw	r24, 0x01	; 1
    2110:	a9 d9       	rcall	.-3246   	; 0x1464 <ir_protocol_sony_cmd_bdplayer_pop_up_menu>
    2112:	17 c0       	rjmp	.+46     	; 0x2142 <rpi_cmd_handler_ir_remote_sony+0xb0>
    2114:	ce 01       	movw	r24, r28
    2116:	01 96       	adiw	r24, 0x01	; 1
    2118:	9d d9       	rcall	.-3270   	; 0x1454 <ir_protocol_sony_cmd_bdplayer_return>
    211a:	13 c0       	rjmp	.+38     	; 0x2142 <rpi_cmd_handler_ir_remote_sony+0xb0>
    211c:	ce 01       	movw	r24, r28
    211e:	01 96       	adiw	r24, 0x01	; 1
    2120:	89 d9       	rcall	.-3310   	; 0x1434 <ir_protocol_sony_cmd_bdplayer_pause>
    2122:	0f c0       	rjmp	.+30     	; 0x2142 <rpi_cmd_handler_ir_remote_sony+0xb0>
    2124:	ce 01       	movw	r24, r28
    2126:	01 96       	adiw	r24, 0x01	; 1
    2128:	81 d9       	rcall	.-3326   	; 0x142c <ir_protocol_sony_cmd_bdplayer_stop>
    212a:	0b c0       	rjmp	.+22     	; 0x2142 <rpi_cmd_handler_ir_remote_sony+0xb0>
    212c:	ce 01       	movw	r24, r28
    212e:	01 96       	adiw	r24, 0x01	; 1
    2130:	85 d9       	rcall	.-3318   	; 0x143c <ir_protocol_sony_cmd_bdplayer_audio_language>
    2132:	07 c0       	rjmp	.+14     	; 0x2142 <rpi_cmd_handler_ir_remote_sony+0xb0>
    2134:	ce 01       	movw	r24, r28
    2136:	01 96       	adiw	r24, 0x01	; 1
    2138:	85 d9       	rcall	.-3318   	; 0x1444 <ir_protocol_sony_cmd_bdplayer_subtitle_language>
    213a:	03 c0       	rjmp	.+6      	; 0x2142 <rpi_cmd_handler_ir_remote_sony+0xb0>
    213c:	ce 01       	movw	r24, r28
    213e:	01 96       	adiw	r24, 0x01	; 1
    2140:	95 d9       	rcall	.-3286   	; 0x146c <ir_protocol_sony_cmd_bdplayer_next>
    2142:	ce 01       	movw	r24, r28
    2144:	01 96       	adiw	r24, 0x01	; 1
    2146:	64 d9       	rcall	.-3384   	; 0x1410 <ir_protocol_sony_address_bdplayer>
    2148:	ce 01       	movw	r24, r28
    214a:	01 96       	adiw	r24, 0x01	; 1
    214c:	0e 94 09 06 	call	0xc12	; 0xc12 <SONY_IR_CMD_RECEIVED_SIGNAL_send>
    2150:	80 e0       	ldi	r24, 0x00	; 0
    2152:	01 c0       	rjmp	.+2      	; 0x2156 <rpi_cmd_handler_ir_remote_sony+0xc4>
    2154:	83 e0       	ldi	r24, 0x03	; 3
    2156:	23 96       	adiw	r28, 0x03	; 3
    2158:	e2 e0       	ldi	r30, 0x02	; 2
    215a:	0c 94 7f 19 	jmp	0x32fe	; 0x32fe <__epilogue_restores__+0x20>

0000215e <rtc_driver_init>:
    215e:	10 92 61 06 	sts	0x0661, r1	; 0x800661 <local_rtc_time>
    2162:	10 92 62 06 	sts	0x0662, r1	; 0x800662 <local_rtc_time+0x1>
    2166:	10 92 63 06 	sts	0x0663, r1	; 0x800663 <local_rtc_time+0x2>
    216a:	10 92 64 06 	sts	0x0664, r1	; 0x800664 <local_rtc_time+0x3>
    216e:	10 92 60 06 	sts	0x0660, r1	; 0x800660 <local_rtc_ticker>
    2172:	10 92 70 00 	sts	0x0070, r1	; 0x800070 <__TEXT_REGION_LENGTH__+0x7e0070>
    2176:	10 92 b2 00 	sts	0x00B2, r1	; 0x8000b2 <__TEXT_REGION_LENGTH__+0x7e00b2>
    217a:	80 e2       	ldi	r24, 0x20	; 32
    217c:	80 93 b6 00 	sts	0x00B6, r24	; 0x8000b6 <__TEXT_REGION_LENGTH__+0x7e00b6>
    2180:	80 91 b6 00 	lds	r24, 0x00B6	; 0x8000b6 <__TEXT_REGION_LENGTH__+0x7e00b6>
    2184:	80 fd       	sbrc	r24, 0
    2186:	fc cf       	rjmp	.-8      	; 0x2180 <rtc_driver_init+0x22>
    2188:	80 91 b6 00 	lds	r24, 0x00B6	; 0x8000b6 <__TEXT_REGION_LENGTH__+0x7e00b6>
    218c:	80 fd       	sbrc	r24, 0
    218e:	fc cf       	rjmp	.-8      	; 0x2188 <rtc_driver_init+0x2a>
    2190:	83 e0       	ldi	r24, 0x03	; 3
    2192:	80 93 b1 00 	sts	0x00B1, r24	; 0x8000b1 <__TEXT_REGION_LENGTH__+0x7e00b1>
    2196:	80 91 b6 00 	lds	r24, 0x00B6	; 0x8000b6 <__TEXT_REGION_LENGTH__+0x7e00b6>
    219a:	81 fd       	sbrc	r24, 1
    219c:	fc cf       	rjmp	.-8      	; 0x2196 <rtc_driver_init+0x38>
    219e:	10 92 b0 00 	sts	0x00B0, r1	; 0x8000b0 <__TEXT_REGION_LENGTH__+0x7e00b0>
    21a2:	80 91 b6 00 	lds	r24, 0x00B6	; 0x8000b6 <__TEXT_REGION_LENGTH__+0x7e00b6>
    21a6:	83 fd       	sbrc	r24, 3
    21a8:	fc cf       	rjmp	.-8      	; 0x21a2 <rtc_driver_init+0x44>
    21aa:	8f e1       	ldi	r24, 0x1F	; 31
    21ac:	80 93 b3 00 	sts	0x00B3, r24	; 0x8000b3 <__TEXT_REGION_LENGTH__+0x7e00b3>
    21b0:	87 e0       	ldi	r24, 0x07	; 7
    21b2:	87 bb       	out	0x17, r24	; 23
    21b4:	82 e0       	ldi	r24, 0x02	; 2
    21b6:	80 93 70 00 	sts	0x0070, r24	; 0x800070 <__TEXT_REGION_LENGTH__+0x7e0070>
    21ba:	08 95       	ret

000021bc <local_rtc_timer_gettime_u32>:
    21bc:	80 91 61 06 	lds	r24, 0x0661	; 0x800661 <local_rtc_time>
    21c0:	90 91 62 06 	lds	r25, 0x0662	; 0x800662 <local_rtc_time+0x1>
    21c4:	a0 91 63 06 	lds	r26, 0x0663	; 0x800663 <local_rtc_time+0x2>
    21c8:	b0 91 64 06 	lds	r27, 0x0664	; 0x800664 <local_rtc_time+0x3>
    21cc:	30 91 60 06 	lds	r19, 0x0660	; 0x800660 <local_rtc_ticker>
    21d0:	20 91 b2 00 	lds	r18, 0x00B2	; 0x8000b2 <__TEXT_REGION_LENGTH__+0x7e00b2>
    21d4:	45 e0       	ldi	r20, 0x05	; 5
    21d6:	88 0f       	add	r24, r24
    21d8:	99 1f       	adc	r25, r25
    21da:	aa 1f       	adc	r26, r26
    21dc:	bb 1f       	adc	r27, r27
    21de:	4a 95       	dec	r20
    21e0:	d1 f7       	brne	.-12     	; 0x21d6 <local_rtc_timer_gettime_u32+0x1a>
    21e2:	83 0f       	add	r24, r19
    21e4:	91 1d       	adc	r25, r1
    21e6:	a1 1d       	adc	r26, r1
    21e8:	b1 1d       	adc	r27, r1
    21ea:	55 e0       	ldi	r21, 0x05	; 5
    21ec:	88 0f       	add	r24, r24
    21ee:	99 1f       	adc	r25, r25
    21f0:	aa 1f       	adc	r26, r26
    21f2:	bb 1f       	adc	r27, r27
    21f4:	5a 95       	dec	r21
    21f6:	d1 f7       	brne	.-12     	; 0x21ec <local_rtc_timer_gettime_u32+0x30>
    21f8:	bc 01       	movw	r22, r24
    21fa:	cd 01       	movw	r24, r26
    21fc:	62 0f       	add	r22, r18
    21fe:	71 1d       	adc	r23, r1
    2200:	81 1d       	adc	r24, r1
    2202:	91 1d       	adc	r25, r1
    2204:	08 95       	ret

00002206 <local_rtc_timer_gettime_u8>:
    2206:	da df       	rcall	.-76     	; 0x21bc <local_rtc_timer_gettime_u32>
    2208:	86 2f       	mov	r24, r22
    220a:	08 95       	ret

0000220c <local_rtc_timer_gettime_u16>:
    220c:	d7 df       	rcall	.-82     	; 0x21bc <local_rtc_timer_gettime_u32>
    220e:	cb 01       	movw	r24, r22
    2210:	08 95       	ret

00002212 <local_rtc_timer_istimeup_u8>:
    2212:	cf 93       	push	r28
    2214:	df 93       	push	r29
    2216:	d8 2f       	mov	r29, r24
    2218:	c6 2f       	mov	r28, r22
    221a:	f5 df       	rcall	.-22     	; 0x2206 <local_rtc_timer_gettime_u8>
    221c:	28 2f       	mov	r18, r24
    221e:	30 e0       	ldi	r19, 0x00	; 0
    2220:	2d 1b       	sub	r18, r29
    2222:	31 09       	sbc	r19, r1
    2224:	6c 2f       	mov	r22, r28
    2226:	70 e0       	ldi	r23, 0x00	; 0
    2228:	81 e0       	ldi	r24, 0x01	; 1
    222a:	62 17       	cp	r22, r18
    222c:	73 07       	cpc	r23, r19
    222e:	0c f0       	brlt	.+2      	; 0x2232 <local_rtc_timer_istimeup_u8+0x20>
    2230:	80 e0       	ldi	r24, 0x00	; 0
    2232:	df 91       	pop	r29
    2234:	cf 91       	pop	r28
    2236:	08 95       	ret

00002238 <local_rtc_timer_istimeup_u16>:
    2238:	0f 93       	push	r16
    223a:	1f 93       	push	r17
    223c:	cf 93       	push	r28
    223e:	df 93       	push	r29
    2240:	8c 01       	movw	r16, r24
    2242:	eb 01       	movw	r28, r22
    2244:	e3 df       	rcall	.-58     	; 0x220c <local_rtc_timer_gettime_u16>
    2246:	9c 01       	movw	r18, r24
    2248:	20 1b       	sub	r18, r16
    224a:	31 0b       	sbc	r19, r17
    224c:	81 e0       	ldi	r24, 0x01	; 1
    224e:	c2 17       	cp	r28, r18
    2250:	d3 07       	cpc	r29, r19
    2252:	08 f0       	brcs	.+2      	; 0x2256 <local_rtc_timer_istimeup_u16+0x1e>
    2254:	80 e0       	ldi	r24, 0x00	; 0
    2256:	df 91       	pop	r29
    2258:	cf 91       	pop	r28
    225a:	1f 91       	pop	r17
    225c:	0f 91       	pop	r16
    225e:	08 95       	ret

00002260 <local_rtc_timer_istimeup_u32>:
    2260:	8f 92       	push	r8
    2262:	9f 92       	push	r9
    2264:	af 92       	push	r10
    2266:	bf 92       	push	r11
    2268:	cf 92       	push	r12
    226a:	df 92       	push	r13
    226c:	ef 92       	push	r14
    226e:	ff 92       	push	r15
    2270:	4b 01       	movw	r8, r22
    2272:	5c 01       	movw	r10, r24
    2274:	69 01       	movw	r12, r18
    2276:	7a 01       	movw	r14, r20
    2278:	a1 df       	rcall	.-190    	; 0x21bc <local_rtc_timer_gettime_u32>
    227a:	dc 01       	movw	r26, r24
    227c:	cb 01       	movw	r24, r22
    227e:	88 19       	sub	r24, r8
    2280:	99 09       	sbc	r25, r9
    2282:	aa 09       	sbc	r26, r10
    2284:	bb 09       	sbc	r27, r11
    2286:	21 e0       	ldi	r18, 0x01	; 1
    2288:	c8 16       	cp	r12, r24
    228a:	d9 06       	cpc	r13, r25
    228c:	ea 06       	cpc	r14, r26
    228e:	fb 06       	cpc	r15, r27
    2290:	08 f0       	brcs	.+2      	; 0x2294 <local_rtc_timer_istimeup_u32+0x34>
    2292:	20 e0       	ldi	r18, 0x00	; 0
    2294:	82 2f       	mov	r24, r18
    2296:	ff 90       	pop	r15
    2298:	ef 90       	pop	r14
    229a:	df 90       	pop	r13
    229c:	cf 90       	pop	r12
    229e:	bf 90       	pop	r11
    22a0:	af 90       	pop	r10
    22a2:	9f 90       	pop	r9
    22a4:	8f 90       	pop	r8
    22a6:	08 95       	ret

000022a8 <__vector_9>:
    22a8:	1f 92       	push	r1
    22aa:	0f 92       	push	r0
    22ac:	0f b6       	in	r0, 0x3f	; 63
    22ae:	0f 92       	push	r0
    22b0:	11 24       	eor	r1, r1
    22b2:	8f 93       	push	r24
    22b4:	9f 93       	push	r25
    22b6:	af 93       	push	r26
    22b8:	bf 93       	push	r27
    22ba:	10 92 b2 00 	sts	0x00B2, r1	; 0x8000b2 <__TEXT_REGION_LENGTH__+0x7e00b2>
    22be:	80 91 60 06 	lds	r24, 0x0660	; 0x800660 <local_rtc_ticker>
    22c2:	8f 5f       	subi	r24, 0xFF	; 255
    22c4:	80 93 60 06 	sts	0x0660, r24	; 0x800660 <local_rtc_ticker>
    22c8:	8f 31       	cpi	r24, 0x1F	; 31
    22ca:	a9 f4       	brne	.+42     	; 0x22f6 <__vector_9+0x4e>
    22cc:	80 91 61 06 	lds	r24, 0x0661	; 0x800661 <local_rtc_time>
    22d0:	90 91 62 06 	lds	r25, 0x0662	; 0x800662 <local_rtc_time+0x1>
    22d4:	a0 91 63 06 	lds	r26, 0x0663	; 0x800663 <local_rtc_time+0x2>
    22d8:	b0 91 64 06 	lds	r27, 0x0664	; 0x800664 <local_rtc_time+0x3>
    22dc:	01 96       	adiw	r24, 0x01	; 1
    22de:	a1 1d       	adc	r26, r1
    22e0:	b1 1d       	adc	r27, r1
    22e2:	80 93 61 06 	sts	0x0661, r24	; 0x800661 <local_rtc_time>
    22e6:	90 93 62 06 	sts	0x0662, r25	; 0x800662 <local_rtc_time+0x1>
    22ea:	a0 93 63 06 	sts	0x0663, r26	; 0x800663 <local_rtc_time+0x2>
    22ee:	b0 93 64 06 	sts	0x0664, r27	; 0x800664 <local_rtc_time+0x3>
    22f2:	10 92 60 06 	sts	0x0660, r1	; 0x800660 <local_rtc_ticker>
    22f6:	bf 91       	pop	r27
    22f8:	af 91       	pop	r26
    22fa:	9f 91       	pop	r25
    22fc:	8f 91       	pop	r24
    22fe:	0f 90       	pop	r0
    2300:	0f be       	out	0x3f, r0	; 63
    2302:	0f 90       	pop	r0
    2304:	1f 90       	pop	r1
    2306:	18 95       	reti

00002308 <clock_driver_init>:
    2308:	f8 94       	cli
    230a:	e1 e6       	ldi	r30, 0x61	; 97
    230c:	f0 e0       	ldi	r31, 0x00	; 0
    230e:	80 e8       	ldi	r24, 0x80	; 128
    2310:	80 83       	st	Z, r24
    2312:	81 e0       	ldi	r24, 0x01	; 1
    2314:	80 83       	st	Z, r24
    2316:	78 94       	sei
    2318:	08 95       	ret

0000231a <gpio_driver_set_direction>:
    231a:	fc 01       	movw	r30, r24
    231c:	91 81       	ldd	r25, Z+1	; 0x01
    231e:	80 81       	ld	r24, Z
    2320:	82 30       	cpi	r24, 0x02	; 2
    2322:	91 f0       	breq	.+36     	; 0x2348 <gpio_driver_set_direction+0x2e>
    2324:	18 f4       	brcc	.+6      	; 0x232c <gpio_driver_set_direction+0x12>
    2326:	81 30       	cpi	r24, 0x01	; 1
    2328:	31 f0       	breq	.+12     	; 0x2336 <gpio_driver_set_direction+0x1c>
    232a:	08 95       	ret
    232c:	83 30       	cpi	r24, 0x03	; 3
    232e:	a9 f0       	breq	.+42     	; 0x235a <gpio_driver_set_direction+0x40>
    2330:	84 30       	cpi	r24, 0x04	; 4
    2332:	e1 f0       	breq	.+56     	; 0x236c <gpio_driver_set_direction+0x52>
    2334:	08 95       	ret
    2336:	81 b1       	in	r24, 0x01	; 1
    2338:	61 11       	cpse	r22, r1
    233a:	03 c0       	rjmp	.+6      	; 0x2342 <gpio_driver_set_direction+0x28>
    233c:	90 95       	com	r25
    233e:	98 23       	and	r25, r24
    2340:	01 c0       	rjmp	.+2      	; 0x2344 <gpio_driver_set_direction+0x2a>
    2342:	98 2b       	or	r25, r24
    2344:	91 b9       	out	0x01, r25	; 1
    2346:	08 95       	ret
    2348:	84 b1       	in	r24, 0x04	; 4
    234a:	61 11       	cpse	r22, r1
    234c:	03 c0       	rjmp	.+6      	; 0x2354 <gpio_driver_set_direction+0x3a>
    234e:	90 95       	com	r25
    2350:	98 23       	and	r25, r24
    2352:	01 c0       	rjmp	.+2      	; 0x2356 <gpio_driver_set_direction+0x3c>
    2354:	98 2b       	or	r25, r24
    2356:	94 b9       	out	0x04, r25	; 4
    2358:	08 95       	ret
    235a:	87 b1       	in	r24, 0x07	; 7
    235c:	61 11       	cpse	r22, r1
    235e:	03 c0       	rjmp	.+6      	; 0x2366 <gpio_driver_set_direction+0x4c>
    2360:	90 95       	com	r25
    2362:	98 23       	and	r25, r24
    2364:	01 c0       	rjmp	.+2      	; 0x2368 <gpio_driver_set_direction+0x4e>
    2366:	98 2b       	or	r25, r24
    2368:	97 b9       	out	0x07, r25	; 7
    236a:	08 95       	ret
    236c:	8a b1       	in	r24, 0x0a	; 10
    236e:	61 11       	cpse	r22, r1
    2370:	03 c0       	rjmp	.+6      	; 0x2378 <gpio_driver_set_direction+0x5e>
    2372:	90 95       	com	r25
    2374:	98 23       	and	r25, r24
    2376:	01 c0       	rjmp	.+2      	; 0x237a <gpio_driver_set_direction+0x60>
    2378:	98 2b       	or	r25, r24
    237a:	9a b9       	out	0x0a, r25	; 10
    237c:	08 95       	ret

0000237e <gpio_driver_set_level>:
    237e:	fc 01       	movw	r30, r24
    2380:	20 81       	ld	r18, Z
    2382:	91 81       	ldd	r25, Z+1	; 0x01
    2384:	82 81       	ldd	r24, Z+2	; 0x02
    2386:	87 ff       	sbrs	r24, 7
    2388:	05 c0       	rjmp	.+10     	; 0x2394 <gpio_driver_set_level+0x16>
    238a:	81 e0       	ldi	r24, 0x01	; 1
    238c:	61 30       	cpi	r22, 0x01	; 1
    238e:	09 f4       	brne	.+2      	; 0x2392 <gpio_driver_set_level+0x14>
    2390:	80 e0       	ldi	r24, 0x00	; 0
    2392:	68 2f       	mov	r22, r24
    2394:	22 30       	cpi	r18, 0x02	; 2
    2396:	d9 f0       	breq	.+54     	; 0x23ce <gpio_driver_set_level+0x50>
    2398:	18 f4       	brcc	.+6      	; 0x23a0 <gpio_driver_set_level+0x22>
    239a:	21 30       	cpi	r18, 0x01	; 1
    239c:	31 f0       	breq	.+12     	; 0x23aa <gpio_driver_set_level+0x2c>
    239e:	08 95       	ret
    23a0:	23 30       	cpi	r18, 0x03	; 3
    23a2:	39 f1       	breq	.+78     	; 0x23f2 <gpio_driver_set_level+0x74>
    23a4:	24 30       	cpi	r18, 0x04	; 4
    23a6:	b9 f1       	breq	.+110    	; 0x2416 <gpio_driver_set_level+0x98>
    23a8:	08 95       	ret
    23aa:	61 30       	cpi	r22, 0x01	; 1
    23ac:	19 f4       	brne	.+6      	; 0x23b4 <gpio_driver_set_level+0x36>
    23ae:	82 b1       	in	r24, 0x02	; 2
    23b0:	98 2b       	or	r25, r24
    23b2:	05 c0       	rjmp	.+10     	; 0x23be <gpio_driver_set_level+0x40>
    23b4:	90 95       	com	r25
    23b6:	82 b1       	in	r24, 0x02	; 2
    23b8:	61 11       	cpse	r22, r1
    23ba:	03 c0       	rjmp	.+6      	; 0x23c2 <gpio_driver_set_level+0x44>
    23bc:	98 23       	and	r25, r24
    23be:	92 b9       	out	0x02, r25	; 2
    23c0:	08 95       	ret
    23c2:	89 23       	and	r24, r25
    23c4:	82 b9       	out	0x02, r24	; 2
    23c6:	81 b1       	in	r24, 0x01	; 1
    23c8:	98 23       	and	r25, r24
    23ca:	91 b9       	out	0x01, r25	; 1
    23cc:	08 95       	ret
    23ce:	61 30       	cpi	r22, 0x01	; 1
    23d0:	19 f4       	brne	.+6      	; 0x23d8 <gpio_driver_set_level+0x5a>
    23d2:	85 b1       	in	r24, 0x05	; 5
    23d4:	98 2b       	or	r25, r24
    23d6:	05 c0       	rjmp	.+10     	; 0x23e2 <gpio_driver_set_level+0x64>
    23d8:	90 95       	com	r25
    23da:	85 b1       	in	r24, 0x05	; 5
    23dc:	61 11       	cpse	r22, r1
    23de:	03 c0       	rjmp	.+6      	; 0x23e6 <gpio_driver_set_level+0x68>
    23e0:	98 23       	and	r25, r24
    23e2:	95 b9       	out	0x05, r25	; 5
    23e4:	08 95       	ret
    23e6:	89 23       	and	r24, r25
    23e8:	85 b9       	out	0x05, r24	; 5
    23ea:	84 b1       	in	r24, 0x04	; 4
    23ec:	98 23       	and	r25, r24
    23ee:	94 b9       	out	0x04, r25	; 4
    23f0:	08 95       	ret
    23f2:	61 30       	cpi	r22, 0x01	; 1
    23f4:	19 f4       	brne	.+6      	; 0x23fc <gpio_driver_set_level+0x7e>
    23f6:	88 b1       	in	r24, 0x08	; 8
    23f8:	98 2b       	or	r25, r24
    23fa:	05 c0       	rjmp	.+10     	; 0x2406 <gpio_driver_set_level+0x88>
    23fc:	90 95       	com	r25
    23fe:	88 b1       	in	r24, 0x08	; 8
    2400:	61 11       	cpse	r22, r1
    2402:	03 c0       	rjmp	.+6      	; 0x240a <gpio_driver_set_level+0x8c>
    2404:	98 23       	and	r25, r24
    2406:	98 b9       	out	0x08, r25	; 8
    2408:	08 95       	ret
    240a:	89 23       	and	r24, r25
    240c:	88 b9       	out	0x08, r24	; 8
    240e:	87 b1       	in	r24, 0x07	; 7
    2410:	98 23       	and	r25, r24
    2412:	97 b9       	out	0x07, r25	; 7
    2414:	08 95       	ret
    2416:	61 30       	cpi	r22, 0x01	; 1
    2418:	19 f4       	brne	.+6      	; 0x2420 <gpio_driver_set_level+0xa2>
    241a:	8b b1       	in	r24, 0x0b	; 11
    241c:	98 2b       	or	r25, r24
    241e:	05 c0       	rjmp	.+10     	; 0x242a <gpio_driver_set_level+0xac>
    2420:	90 95       	com	r25
    2422:	8b b1       	in	r24, 0x0b	; 11
    2424:	61 11       	cpse	r22, r1
    2426:	03 c0       	rjmp	.+6      	; 0x242e <gpio_driver_set_level+0xb0>
    2428:	98 23       	and	r25, r24
    242a:	9b b9       	out	0x0b, r25	; 11
    242c:	08 95       	ret
    242e:	89 23       	and	r24, r25
    2430:	8b b9       	out	0x0b, r24	; 11
    2432:	8a b1       	in	r24, 0x0a	; 10
    2434:	98 23       	and	r25, r24
    2436:	9a b9       	out	0x0a, r25	; 10
    2438:	08 95       	ret

0000243a <gpio_driver_init_pin>:
    243a:	cf 93       	push	r28
    243c:	df 93       	push	r29
    243e:	ec 01       	movw	r28, r24
    2440:	8a 81       	ldd	r24, Y+2	; 0x02
    2442:	83 ff       	sbrs	r24, 3
    2444:	02 c0       	rjmp	.+4      	; 0x244a <gpio_driver_init_pin+0x10>
    2446:	61 e0       	ldi	r22, 0x01	; 1
    2448:	01 c0       	rjmp	.+2      	; 0x244c <gpio_driver_init_pin+0x12>
    244a:	60 e0       	ldi	r22, 0x00	; 0
    244c:	ce 01       	movw	r24, r28
    244e:	65 df       	rcall	.-310    	; 0x231a <gpio_driver_set_direction>
    2450:	8a 81       	ldd	r24, Y+2	; 0x02
    2452:	85 fd       	sbrc	r24, 5
    2454:	04 c0       	rjmp	.+8      	; 0x245e <gpio_driver_init_pin+0x24>
    2456:	86 ff       	sbrs	r24, 6
    2458:	04 c0       	rjmp	.+8      	; 0x2462 <gpio_driver_init_pin+0x28>
    245a:	61 e0       	ldi	r22, 0x01	; 1
    245c:	03 c0       	rjmp	.+6      	; 0x2464 <gpio_driver_init_pin+0x2a>
    245e:	60 e0       	ldi	r22, 0x00	; 0
    2460:	01 c0       	rjmp	.+2      	; 0x2464 <gpio_driver_init_pin+0x2a>
    2462:	62 e0       	ldi	r22, 0x02	; 2
    2464:	ce 01       	movw	r24, r28
    2466:	8b df       	rcall	.-234    	; 0x237e <gpio_driver_set_level>
    2468:	df 91       	pop	r29
    246a:	cf 91       	pop	r28
    246c:	08 95       	ret

0000246e <gpio_driver_init>:
    246e:	80 91 3e 01 	lds	r24, 0x013E	; 0x80013e <p_pin_GPIO_PORT_A_GPIO_PIN_0>
    2472:	90 91 3f 01 	lds	r25, 0x013F	; 0x80013f <p_pin_GPIO_PORT_A_GPIO_PIN_0+0x1>
    2476:	e1 df       	rcall	.-62     	; 0x243a <gpio_driver_init_pin>
    2478:	80 91 3c 01 	lds	r24, 0x013C	; 0x80013c <p_pin_GPIO_PORT_A_GPIO_PIN_1>
    247c:	90 91 3d 01 	lds	r25, 0x013D	; 0x80013d <p_pin_GPIO_PORT_A_GPIO_PIN_1+0x1>
    2480:	dc df       	rcall	.-72     	; 0x243a <gpio_driver_init_pin>
    2482:	80 91 3a 01 	lds	r24, 0x013A	; 0x80013a <p_pin_GPIO_PORT_A_GPIO_PIN_2>
    2486:	90 91 3b 01 	lds	r25, 0x013B	; 0x80013b <p_pin_GPIO_PORT_A_GPIO_PIN_2+0x1>
    248a:	d7 df       	rcall	.-82     	; 0x243a <gpio_driver_init_pin>
    248c:	80 91 38 01 	lds	r24, 0x0138	; 0x800138 <p_pin_GPIO_PORT_A_GPIO_PIN_3>
    2490:	90 91 39 01 	lds	r25, 0x0139	; 0x800139 <p_pin_GPIO_PORT_A_GPIO_PIN_3+0x1>
    2494:	d2 df       	rcall	.-92     	; 0x243a <gpio_driver_init_pin>
    2496:	80 91 36 01 	lds	r24, 0x0136	; 0x800136 <p_pin_GPIO_PORT_A_GPIO_PIN_4>
    249a:	90 91 37 01 	lds	r25, 0x0137	; 0x800137 <p_pin_GPIO_PORT_A_GPIO_PIN_4+0x1>
    249e:	cd df       	rcall	.-102    	; 0x243a <gpio_driver_init_pin>
    24a0:	80 91 34 01 	lds	r24, 0x0134	; 0x800134 <p_pin_GPIO_PORT_A_GPIO_PIN_5>
    24a4:	90 91 35 01 	lds	r25, 0x0135	; 0x800135 <p_pin_GPIO_PORT_A_GPIO_PIN_5+0x1>
    24a8:	c8 df       	rcall	.-112    	; 0x243a <gpio_driver_init_pin>
    24aa:	80 91 32 01 	lds	r24, 0x0132	; 0x800132 <p_pin_GPIO_PORT_A_GPIO_PIN_6>
    24ae:	90 91 33 01 	lds	r25, 0x0133	; 0x800133 <p_pin_GPIO_PORT_A_GPIO_PIN_6+0x1>
    24b2:	c3 df       	rcall	.-122    	; 0x243a <gpio_driver_init_pin>
    24b4:	80 91 30 01 	lds	r24, 0x0130	; 0x800130 <p_pin_GPIO_PORT_A_GPIO_PIN_7>
    24b8:	90 91 31 01 	lds	r25, 0x0131	; 0x800131 <p_pin_GPIO_PORT_A_GPIO_PIN_7+0x1>
    24bc:	be df       	rcall	.-132    	; 0x243a <gpio_driver_init_pin>
    24be:	80 91 2e 01 	lds	r24, 0x012E	; 0x80012e <p_pin_GPIO_PORT_B_GPIO_PIN_0>
    24c2:	90 91 2f 01 	lds	r25, 0x012F	; 0x80012f <p_pin_GPIO_PORT_B_GPIO_PIN_0+0x1>
    24c6:	b9 df       	rcall	.-142    	; 0x243a <gpio_driver_init_pin>
    24c8:	80 91 2c 01 	lds	r24, 0x012C	; 0x80012c <p_pin_GPIO_PORT_B_GPIO_PIN_1>
    24cc:	90 91 2d 01 	lds	r25, 0x012D	; 0x80012d <p_pin_GPIO_PORT_B_GPIO_PIN_1+0x1>
    24d0:	b4 df       	rcall	.-152    	; 0x243a <gpio_driver_init_pin>
    24d2:	80 91 2a 01 	lds	r24, 0x012A	; 0x80012a <p_pin_GPIO_PORT_B_GPIO_PIN_2>
    24d6:	90 91 2b 01 	lds	r25, 0x012B	; 0x80012b <p_pin_GPIO_PORT_B_GPIO_PIN_2+0x1>
    24da:	af df       	rcall	.-162    	; 0x243a <gpio_driver_init_pin>
    24dc:	80 91 28 01 	lds	r24, 0x0128	; 0x800128 <p_pin_GPIO_PORT_B_GPIO_PIN_3>
    24e0:	90 91 29 01 	lds	r25, 0x0129	; 0x800129 <p_pin_GPIO_PORT_B_GPIO_PIN_3+0x1>
    24e4:	aa df       	rcall	.-172    	; 0x243a <gpio_driver_init_pin>
    24e6:	80 91 26 01 	lds	r24, 0x0126	; 0x800126 <p_pin_GPIO_PORT_B_GPIO_PIN_4>
    24ea:	90 91 27 01 	lds	r25, 0x0127	; 0x800127 <p_pin_GPIO_PORT_B_GPIO_PIN_4+0x1>
    24ee:	a5 df       	rcall	.-182    	; 0x243a <gpio_driver_init_pin>
    24f0:	80 91 24 01 	lds	r24, 0x0124	; 0x800124 <p_pin_GPIO_PORT_B_GPIO_PIN_5>
    24f4:	90 91 25 01 	lds	r25, 0x0125	; 0x800125 <p_pin_GPIO_PORT_B_GPIO_PIN_5+0x1>
    24f8:	a0 df       	rcall	.-192    	; 0x243a <gpio_driver_init_pin>
    24fa:	80 91 22 01 	lds	r24, 0x0122	; 0x800122 <p_pin_GPIO_PORT_B_GPIO_PIN_6>
    24fe:	90 91 23 01 	lds	r25, 0x0123	; 0x800123 <p_pin_GPIO_PORT_B_GPIO_PIN_6+0x1>
    2502:	9b df       	rcall	.-202    	; 0x243a <gpio_driver_init_pin>
    2504:	80 91 20 01 	lds	r24, 0x0120	; 0x800120 <p_pin_GPIO_PORT_B_GPIO_PIN_7>
    2508:	90 91 21 01 	lds	r25, 0x0121	; 0x800121 <p_pin_GPIO_PORT_B_GPIO_PIN_7+0x1>
    250c:	96 df       	rcall	.-212    	; 0x243a <gpio_driver_init_pin>
    250e:	80 91 1e 01 	lds	r24, 0x011E	; 0x80011e <p_pin_GPIO_PORT_C_GPIO_PIN_0>
    2512:	90 91 1f 01 	lds	r25, 0x011F	; 0x80011f <p_pin_GPIO_PORT_C_GPIO_PIN_0+0x1>
    2516:	91 df       	rcall	.-222    	; 0x243a <gpio_driver_init_pin>
    2518:	80 91 1c 01 	lds	r24, 0x011C	; 0x80011c <p_pin_GPIO_PORT_C_GPIO_PIN_1>
    251c:	90 91 1d 01 	lds	r25, 0x011D	; 0x80011d <p_pin_GPIO_PORT_C_GPIO_PIN_1+0x1>
    2520:	8c df       	rcall	.-232    	; 0x243a <gpio_driver_init_pin>
    2522:	80 91 1a 01 	lds	r24, 0x011A	; 0x80011a <p_pin_GPIO_PORT_C_GPIO_PIN_2>
    2526:	90 91 1b 01 	lds	r25, 0x011B	; 0x80011b <p_pin_GPIO_PORT_C_GPIO_PIN_2+0x1>
    252a:	87 df       	rcall	.-242    	; 0x243a <gpio_driver_init_pin>
    252c:	80 91 18 01 	lds	r24, 0x0118	; 0x800118 <p_pin_GPIO_PORT_C_GPIO_PIN_3>
    2530:	90 91 19 01 	lds	r25, 0x0119	; 0x800119 <p_pin_GPIO_PORT_C_GPIO_PIN_3+0x1>
    2534:	82 df       	rcall	.-252    	; 0x243a <gpio_driver_init_pin>
    2536:	80 91 16 01 	lds	r24, 0x0116	; 0x800116 <p_pin_GPIO_PORT_C_GPIO_PIN_4>
    253a:	90 91 17 01 	lds	r25, 0x0117	; 0x800117 <p_pin_GPIO_PORT_C_GPIO_PIN_4+0x1>
    253e:	7d df       	rcall	.-262    	; 0x243a <gpio_driver_init_pin>
    2540:	80 91 14 01 	lds	r24, 0x0114	; 0x800114 <p_pin_GPIO_PORT_C_GPIO_PIN_5>
    2544:	90 91 15 01 	lds	r25, 0x0115	; 0x800115 <p_pin_GPIO_PORT_C_GPIO_PIN_5+0x1>
    2548:	78 df       	rcall	.-272    	; 0x243a <gpio_driver_init_pin>
    254a:	80 91 12 01 	lds	r24, 0x0112	; 0x800112 <p_pin_GPIO_PORT_C_GPIO_PIN_6>
    254e:	90 91 13 01 	lds	r25, 0x0113	; 0x800113 <p_pin_GPIO_PORT_C_GPIO_PIN_6+0x1>
    2552:	73 df       	rcall	.-282    	; 0x243a <gpio_driver_init_pin>
    2554:	80 91 10 01 	lds	r24, 0x0110	; 0x800110 <p_pin_GPIO_PORT_C_GPIO_PIN_7>
    2558:	90 91 11 01 	lds	r25, 0x0111	; 0x800111 <p_pin_GPIO_PORT_C_GPIO_PIN_7+0x1>
    255c:	6e df       	rcall	.-292    	; 0x243a <gpio_driver_init_pin>
    255e:	80 91 0e 01 	lds	r24, 0x010E	; 0x80010e <p_pin_GPIO_PORT_D_GPIO_PIN_0>
    2562:	90 91 0f 01 	lds	r25, 0x010F	; 0x80010f <p_pin_GPIO_PORT_D_GPIO_PIN_0+0x1>
    2566:	69 df       	rcall	.-302    	; 0x243a <gpio_driver_init_pin>
    2568:	80 91 0c 01 	lds	r24, 0x010C	; 0x80010c <p_pin_GPIO_PORT_D_GPIO_PIN_1>
    256c:	90 91 0d 01 	lds	r25, 0x010D	; 0x80010d <p_pin_GPIO_PORT_D_GPIO_PIN_1+0x1>
    2570:	64 df       	rcall	.-312    	; 0x243a <gpio_driver_init_pin>
    2572:	80 91 0a 01 	lds	r24, 0x010A	; 0x80010a <p_pin_GPIO_PORT_D_GPIO_PIN_2>
    2576:	90 91 0b 01 	lds	r25, 0x010B	; 0x80010b <p_pin_GPIO_PORT_D_GPIO_PIN_2+0x1>
    257a:	5f df       	rcall	.-322    	; 0x243a <gpio_driver_init_pin>
    257c:	80 91 08 01 	lds	r24, 0x0108	; 0x800108 <p_pin_GPIO_PORT_D_GPIO_PIN_3>
    2580:	90 91 09 01 	lds	r25, 0x0109	; 0x800109 <p_pin_GPIO_PORT_D_GPIO_PIN_3+0x1>
    2584:	5a df       	rcall	.-332    	; 0x243a <gpio_driver_init_pin>
    2586:	80 91 06 01 	lds	r24, 0x0106	; 0x800106 <p_pin_GPIO_PORT_D_GPIO_PIN_4>
    258a:	90 91 07 01 	lds	r25, 0x0107	; 0x800107 <p_pin_GPIO_PORT_D_GPIO_PIN_4+0x1>
    258e:	55 df       	rcall	.-342    	; 0x243a <gpio_driver_init_pin>
    2590:	80 91 04 01 	lds	r24, 0x0104	; 0x800104 <p_pin_GPIO_PORT_D_GPIO_PIN_5>
    2594:	90 91 05 01 	lds	r25, 0x0105	; 0x800105 <p_pin_GPIO_PORT_D_GPIO_PIN_5+0x1>
    2598:	50 df       	rcall	.-352    	; 0x243a <gpio_driver_init_pin>
    259a:	80 91 02 01 	lds	r24, 0x0102	; 0x800102 <p_pin_GPIO_PORT_D_GPIO_PIN_6>
    259e:	90 91 03 01 	lds	r25, 0x0103	; 0x800103 <p_pin_GPIO_PORT_D_GPIO_PIN_6+0x1>
    25a2:	4b df       	rcall	.-362    	; 0x243a <gpio_driver_init_pin>
    25a4:	80 91 00 01 	lds	r24, 0x0100	; 0x800100 <__data_start>
    25a8:	90 91 01 01 	lds	r25, 0x0101	; 0x800101 <__data_start+0x1>
    25ac:	46 cf       	rjmp	.-372    	; 0x243a <gpio_driver_init_pin>

000025ae <gpio_driver_toggle_level>:
    25ae:	fc 01       	movw	r30, r24
    25b0:	91 81       	ldd	r25, Z+1	; 0x01
    25b2:	80 81       	ld	r24, Z
    25b4:	82 30       	cpi	r24, 0x02	; 2
    25b6:	69 f0       	breq	.+26     	; 0x25d2 <gpio_driver_toggle_level+0x24>
    25b8:	18 f4       	brcc	.+6      	; 0x25c0 <gpio_driver_toggle_level+0x12>
    25ba:	81 30       	cpi	r24, 0x01	; 1
    25bc:	31 f0       	breq	.+12     	; 0x25ca <gpio_driver_toggle_level+0x1c>
    25be:	08 95       	ret
    25c0:	83 30       	cpi	r24, 0x03	; 3
    25c2:	59 f0       	breq	.+22     	; 0x25da <gpio_driver_toggle_level+0x2c>
    25c4:	84 30       	cpi	r24, 0x04	; 4
    25c6:	69 f0       	breq	.+26     	; 0x25e2 <gpio_driver_toggle_level+0x34>
    25c8:	08 95       	ret
    25ca:	82 b1       	in	r24, 0x02	; 2
    25cc:	98 27       	eor	r25, r24
    25ce:	92 b9       	out	0x02, r25	; 2
    25d0:	08 95       	ret
    25d2:	85 b1       	in	r24, 0x05	; 5
    25d4:	98 27       	eor	r25, r24
    25d6:	95 b9       	out	0x05, r25	; 5
    25d8:	08 95       	ret
    25da:	88 b1       	in	r24, 0x08	; 8
    25dc:	98 27       	eor	r25, r24
    25de:	98 b9       	out	0x08, r25	; 8
    25e0:	08 95       	ret
    25e2:	8b b1       	in	r24, 0x0b	; 11
    25e4:	98 27       	eor	r25, r24
    25e6:	9b b9       	out	0x0b, r25	; 11
    25e8:	08 95       	ret

000025ea <gpio_driver_get_level>:
    25ea:	fc 01       	movw	r30, r24
    25ec:	21 81       	ldd	r18, Z+1	; 0x01
    25ee:	90 81       	ld	r25, Z
    25f0:	92 30       	cpi	r25, 0x02	; 2
    25f2:	59 f0       	breq	.+22     	; 0x260a <gpio_driver_get_level+0x20>
    25f4:	20 f4       	brcc	.+8      	; 0x25fe <gpio_driver_get_level+0x14>
    25f6:	91 30       	cpi	r25, 0x01	; 1
    25f8:	71 f4       	brne	.+28     	; 0x2616 <gpio_driver_get_level+0x2c>
    25fa:	80 b1       	in	r24, 0x00	; 0
    25fc:	09 c0       	rjmp	.+18     	; 0x2610 <gpio_driver_get_level+0x26>
    25fe:	93 30       	cpi	r25, 0x03	; 3
    2600:	31 f0       	breq	.+12     	; 0x260e <gpio_driver_get_level+0x24>
    2602:	94 30       	cpi	r25, 0x04	; 4
    2604:	41 f4       	brne	.+16     	; 0x2616 <gpio_driver_get_level+0x2c>
    2606:	89 b1       	in	r24, 0x09	; 9
    2608:	03 c0       	rjmp	.+6      	; 0x2610 <gpio_driver_get_level+0x26>
    260a:	83 b1       	in	r24, 0x03	; 3
    260c:	01 c0       	rjmp	.+2      	; 0x2610 <gpio_driver_get_level+0x26>
    260e:	86 b1       	in	r24, 0x06	; 6
    2610:	28 23       	and	r18, r24
    2612:	81 e0       	ldi	r24, 0x01	; 1
    2614:	09 f4       	brne	.+2      	; 0x2618 <gpio_driver_get_level+0x2e>
    2616:	80 e0       	ldi	r24, 0x00	; 0
    2618:	92 81       	ldd	r25, Z+2	; 0x02
    261a:	97 ff       	sbrs	r25, 7
    261c:	02 c0       	rjmp	.+4      	; 0x2622 <gpio_driver_get_level+0x38>
    261e:	91 e0       	ldi	r25, 0x01	; 1
    2620:	89 27       	eor	r24, r25
    2622:	08 95       	ret

00002624 <I2C0_STATUS_set>:
    2624:	e8 2f       	mov	r30, r24
    2626:	f0 e0       	ldi	r31, 0x00	; 0
    2628:	e6 57       	subi	r30, 0x76	; 118
    262a:	f7 4f       	sbci	r31, 0xF7	; 247
    262c:	81 e0       	ldi	r24, 0x01	; 1
    262e:	80 83       	st	Z, r24
    2630:	08 95       	ret

00002632 <I2C0_STATUS_is_set>:
    2632:	e8 2f       	mov	r30, r24
    2634:	f0 e0       	ldi	r31, 0x00	; 0
    2636:	e6 57       	subi	r30, 0x76	; 118
    2638:	f7 4f       	sbci	r31, 0xF7	; 247
    263a:	90 81       	ld	r25, Z
    263c:	81 e0       	ldi	r24, 0x01	; 1
    263e:	91 11       	cpse	r25, r1
    2640:	01 c0       	rjmp	.+2      	; 0x2644 <I2C0_STATUS_is_set+0x12>
    2642:	80 e0       	ldi	r24, 0x00	; 0
    2644:	08 95       	ret

00002646 <I2C0_STATUS_unset>:
    2646:	e8 2f       	mov	r30, r24
    2648:	f0 e0       	ldi	r31, 0x00	; 0
    264a:	e6 57       	subi	r30, 0x76	; 118
    264c:	f7 4f       	sbci	r31, 0xF7	; 247
    264e:	10 82       	st	Z, r1
    2650:	08 95       	ret

00002652 <I2C0_TX_BUFFER_init>:
    2652:	8d e9       	ldi	r24, 0x9D	; 157
    2654:	92 e0       	ldi	r25, 0x02	; 2
    2656:	0c 94 88 01 	jmp	0x310	; 0x310 <local_msg_buffer_init>

0000265a <I2C0_TX_BUFFER_bytes_available>:
    265a:	8d e9       	ldi	r24, 0x9D	; 157
    265c:	92 e0       	ldi	r25, 0x02	; 2
    265e:	0c 94 17 02 	jmp	0x42e	; 0x42e <local_msg_buffer_bytes_available>

00002662 <I2C0_TX_BUFFER_clear_all>:
    2662:	8d e9       	ldi	r24, 0x9D	; 157
    2664:	92 e0       	ldi	r25, 0x02	; 2
    2666:	0c 94 ad 02 	jmp	0x55a	; 0x55a <local_msg_buffer_clear_all>

0000266a <I2C0_TX_BUFFER_start_write>:
    266a:	8d e9       	ldi	r24, 0x9D	; 157
    266c:	92 e0       	ldi	r25, 0x02	; 2
    266e:	0c 94 91 01 	jmp	0x322	; 0x322 <local_msg_buffer_start_write>

00002672 <I2C0_TX_BUFFER_add_N_bytes>:
    2672:	ab 01       	movw	r20, r22
    2674:	bc 01       	movw	r22, r24
    2676:	8d e9       	ldi	r24, 0x9D	; 157
    2678:	92 e0       	ldi	r25, 0x02	; 2
    267a:	0c 94 f0 01 	jmp	0x3e0	; 0x3e0 <local_msg_buffer_add_N_bytes>

0000267e <I2C0_TX_BUFFER_stop_write>:
    267e:	8d e9       	ldi	r24, 0x9D	; 157
    2680:	92 e0       	ldi	r25, 0x02	; 2
    2682:	0c 94 07 02 	jmp	0x40e	; 0x40e <local_msg_buffer_stop_write>

00002686 <I2C0_TX_BUFFER_start_read>:
    2686:	8d e9       	ldi	r24, 0x9D	; 157
    2688:	92 e0       	ldi	r25, 0x02	; 2
    268a:	0c 94 0c 02 	jmp	0x418	; 0x418 <local_msg_buffer_start_read>

0000268e <I2C0_TX_BUFFER_get_byte>:
    268e:	8d e9       	ldi	r24, 0x9D	; 157
    2690:	92 e0       	ldi	r25, 0x02	; 2
    2692:	0c 94 23 02 	jmp	0x446	; 0x446 <local_msg_buffer_get_byte>

00002696 <I2C0_TX_BUFFER_stop_read>:
    2696:	8d e9       	ldi	r24, 0x9D	; 157
    2698:	92 e0       	ldi	r25, 0x02	; 2
    269a:	0c 94 a8 02 	jmp	0x550	; 0x550 <local_msg_buffer_stop_read>

0000269e <I2C0_RX_BUFFER_init>:
    269e:	82 e9       	ldi	r24, 0x92	; 146
    26a0:	92 e0       	ldi	r25, 0x02	; 2
    26a2:	0c 94 88 01 	jmp	0x310	; 0x310 <local_msg_buffer_init>

000026a6 <I2C0_RX_BUFFER_bytes_available>:
    26a6:	82 e9       	ldi	r24, 0x92	; 146
    26a8:	92 e0       	ldi	r25, 0x02	; 2
    26aa:	0c 94 17 02 	jmp	0x42e	; 0x42e <local_msg_buffer_bytes_available>

000026ae <I2C0_RX_BUFFER_clear_all>:
    26ae:	82 e9       	ldi	r24, 0x92	; 146
    26b0:	92 e0       	ldi	r25, 0x02	; 2
    26b2:	0c 94 ad 02 	jmp	0x55a	; 0x55a <local_msg_buffer_clear_all>

000026b6 <I2C0_RX_BUFFER_start_write>:
    26b6:	82 e9       	ldi	r24, 0x92	; 146
    26b8:	92 e0       	ldi	r25, 0x02	; 2
    26ba:	0c 94 91 01 	jmp	0x322	; 0x322 <local_msg_buffer_start_write>

000026be <I2C0_RX_BUFFER_add_byte>:
    26be:	68 2f       	mov	r22, r24
    26c0:	82 e9       	ldi	r24, 0x92	; 146
    26c2:	92 e0       	ldi	r25, 0x02	; 2
    26c4:	0c 94 9c 01 	jmp	0x338	; 0x338 <local_msg_buffer_add_byte>

000026c8 <I2C0_RX_BUFFER_stop_write>:
    26c8:	82 e9       	ldi	r24, 0x92	; 146
    26ca:	92 e0       	ldi	r25, 0x02	; 2
    26cc:	0c 94 07 02 	jmp	0x40e	; 0x40e <local_msg_buffer_stop_write>

000026d0 <I2C0_RX_BUFFER_start_read>:
    26d0:	82 e9       	ldi	r24, 0x92	; 146
    26d2:	92 e0       	ldi	r25, 0x02	; 2
    26d4:	0c 94 0c 02 	jmp	0x418	; 0x418 <local_msg_buffer_start_read>

000026d8 <I2C0_RX_BUFFER_get_N_bytes>:
    26d8:	ab 01       	movw	r20, r22
    26da:	bc 01       	movw	r22, r24
    26dc:	82 e9       	ldi	r24, 0x92	; 146
    26de:	92 e0       	ldi	r25, 0x02	; 2
    26e0:	0c 94 86 02 	jmp	0x50c	; 0x50c <local_msg_buffer_get_N_bytes>

000026e4 <I2C0_RX_BUFFER_stop_read>:
    26e4:	82 e9       	ldi	r24, 0x92	; 146
    26e6:	92 e0       	ldi	r25, 0x02	; 2
    26e8:	0c 94 a8 02 	jmp	0x550	; 0x550 <local_msg_buffer_stop_read>

000026ec <i2c0_driver_initialize>:
    26ec:	d8 df       	rcall	.-80     	; 0x269e <I2C0_RX_BUFFER_init>
    26ee:	b1 cf       	rjmp	.-158    	; 0x2652 <I2C0_TX_BUFFER_init>

000026f0 <i2c0_driver_configure>:
    26f0:	cf 93       	push	r28
    26f2:	df 93       	push	r29
    26f4:	ec 01       	movw	r28, r24
    26f6:	88 81       	ld	r24, Y
    26f8:	88 23       	and	r24, r24
    26fa:	49 f0       	breq	.+18     	; 0x270e <i2c0_driver_configure+0x1e>
    26fc:	83 e0       	ldi	r24, 0x03	; 3
    26fe:	92 df       	rcall	.-220    	; 0x2624 <I2C0_STATUS_set>
    2700:	0e 94 ef 00 	call	0x1de	; 0x1de <I2C_SCL_drive_high>
    2704:	0e 94 0d 01 	call	0x21a	; 0x21a <I2C_SDA_drive_high>
    2708:	10 92 69 06 	sts	0x0669, r1	; 0x800669 <i2c_cfg_slaveaddr_reg>
    270c:	15 c0       	rjmp	.+42     	; 0x2738 <i2c0_driver_configure+0x48>
    270e:	10 92 bc 00 	sts	0x00BC, r1	; 0x8000bc <__TEXT_REGION_LENGTH__+0x7e00bc>
    2712:	10 92 6a 06 	sts	0x066A, r1	; 0x80066a <i2c_cfg_control_reg>
    2716:	83 e0       	ldi	r24, 0x03	; 3
    2718:	96 df       	rcall	.-212    	; 0x2646 <I2C0_STATUS_unset>
    271a:	0e 94 f9 00 	call	0x1f2	; 0x1f2 <I2C_SCL_pull_up>
    271e:	0e 94 17 01 	call	0x22e	; 0x22e <I2C_SDA_pull_up>
    2722:	8d 81       	ldd	r24, Y+5	; 0x05
    2724:	98 2f       	mov	r25, r24
    2726:	99 0f       	add	r25, r25
    2728:	80 91 69 06 	lds	r24, 0x0669	; 0x800669 <i2c_cfg_slaveaddr_reg>
    272c:	81 70       	andi	r24, 0x01	; 1
    272e:	89 2b       	or	r24, r25
    2730:	80 93 69 06 	sts	0x0669, r24	; 0x800669 <i2c_cfg_slaveaddr_reg>
    2734:	81 e0       	ldi	r24, 0x01	; 1
    2736:	8a 83       	std	Y+2, r24	; 0x02
    2738:	9c 81       	ldd	r25, Y+4	; 0x04
    273a:	80 91 69 06 	lds	r24, 0x0669	; 0x800669 <i2c_cfg_slaveaddr_reg>
    273e:	99 23       	and	r25, r25
    2740:	11 f0       	breq	.+4      	; 0x2746 <i2c0_driver_configure+0x56>
    2742:	81 60       	ori	r24, 0x01	; 1
    2744:	01 c0       	rjmp	.+2      	; 0x2748 <i2c0_driver_configure+0x58>
    2746:	8e 7f       	andi	r24, 0xFE	; 254
    2748:	80 93 69 06 	sts	0x0669, r24	; 0x800669 <i2c_cfg_slaveaddr_reg>
    274c:	9a 81       	ldd	r25, Y+2	; 0x02
    274e:	80 91 6a 06 	lds	r24, 0x066A	; 0x80066a <i2c_cfg_control_reg>
    2752:	99 23       	and	r25, r25
    2754:	11 f0       	breq	.+4      	; 0x275a <i2c0_driver_configure+0x6a>
    2756:	80 64       	ori	r24, 0x40	; 64
    2758:	01 c0       	rjmp	.+2      	; 0x275c <i2c0_driver_configure+0x6c>
    275a:	8f 7b       	andi	r24, 0xBF	; 191
    275c:	80 93 6a 06 	sts	0x066A, r24	; 0x80066a <i2c_cfg_control_reg>
    2760:	9b 81       	ldd	r25, Y+3	; 0x03
    2762:	80 91 6a 06 	lds	r24, 0x066A	; 0x80066a <i2c_cfg_control_reg>
    2766:	99 23       	and	r25, r25
    2768:	11 f0       	breq	.+4      	; 0x276e <i2c0_driver_configure+0x7e>
    276a:	81 60       	ori	r24, 0x01	; 1
    276c:	01 c0       	rjmp	.+2      	; 0x2770 <i2c0_driver_configure+0x80>
    276e:	8e 7f       	andi	r24, 0xFE	; 254
    2770:	80 93 6a 06 	sts	0x066A, r24	; 0x80066a <i2c_cfg_control_reg>
    2774:	10 92 68 06 	sts	0x0668, r1	; 0x800668 <i2c_cfg_bitrate_reg>
    2778:	80 91 69 06 	lds	r24, 0x0669	; 0x800669 <i2c_cfg_slaveaddr_reg>
    277c:	80 93 ba 00 	sts	0x00BA, r24	; 0x8000ba <__TEXT_REGION_LENGTH__+0x7e00ba>
    2780:	80 91 68 06 	lds	r24, 0x0668	; 0x800668 <i2c_cfg_bitrate_reg>
    2784:	80 93 b8 00 	sts	0x00B8, r24	; 0x8000b8 <__TEXT_REGION_LENGTH__+0x7e00b8>
    2788:	80 91 6a 06 	lds	r24, 0x066A	; 0x80066a <i2c_cfg_control_reg>
    278c:	84 60       	ori	r24, 0x04	; 4
    278e:	80 93 bc 00 	sts	0x00BC, r24	; 0x8000bc <__TEXT_REGION_LENGTH__+0x7e00bc>
    2792:	80 91 67 06 	lds	r24, 0x0667	; 0x800667 <i2c_status_reg>
    2796:	83 60       	ori	r24, 0x03	; 3
    2798:	80 93 67 06 	sts	0x0667, r24	; 0x800667 <i2c_status_reg>
    279c:	89 e3       	ldi	r24, 0x39	; 57
    279e:	80 93 68 06 	sts	0x0668, r24	; 0x800668 <i2c_cfg_bitrate_reg>
    27a2:	df 91       	pop	r29
    27a4:	cf 91       	pop	r28
    27a6:	08 95       	ret

000027a8 <i2c0_driver_power_off>:
    27a8:	0e 94 03 01 	call	0x206	; 0x206 <I2C_SCL_no_pull>
    27ac:	0e 94 21 01 	call	0x242	; 0x242 <I2C_SDA_no_pull>
    27b0:	ec eb       	ldi	r30, 0xBC	; 188
    27b2:	f0 e0       	ldi	r31, 0x00	; 0
    27b4:	80 81       	ld	r24, Z
    27b6:	80 68       	ori	r24, 0x80	; 128
    27b8:	80 83       	st	Z, r24
    27ba:	80 81       	ld	r24, Z
    27bc:	84 70       	andi	r24, 0x04	; 4
    27be:	80 83       	st	Z, r24
    27c0:	08 95       	ret

000027c2 <i2c0_driver_bytes_available>:
    27c2:	71 cf       	rjmp	.-286    	; 0x26a6 <I2C0_RX_BUFFER_bytes_available>
    27c4:	08 95       	ret

000027c6 <i2c0_driver_get_N_bytes>:
    27c6:	0f 93       	push	r16
    27c8:	1f 93       	push	r17
    27ca:	cf 93       	push	r28
    27cc:	df 93       	push	r29
    27ce:	d8 2f       	mov	r29, r24
    27d0:	8b 01       	movw	r16, r22
    27d2:	69 df       	rcall	.-302    	; 0x26a6 <I2C0_RX_BUFFER_bytes_available>
    27d4:	c8 2f       	mov	r28, r24
    27d6:	d8 17       	cp	r29, r24
    27d8:	08 f4       	brcc	.+2      	; 0x27dc <i2c0_driver_get_N_bytes+0x16>
    27da:	cd 2f       	mov	r28, r29
    27dc:	79 df       	rcall	.-270    	; 0x26d0 <I2C0_RX_BUFFER_start_read>
    27de:	b8 01       	movw	r22, r16
    27e0:	8c 2f       	mov	r24, r28
    27e2:	90 e0       	ldi	r25, 0x00	; 0
    27e4:	79 df       	rcall	.-270    	; 0x26d8 <I2C0_RX_BUFFER_get_N_bytes>
    27e6:	7e df       	rcall	.-260    	; 0x26e4 <I2C0_RX_BUFFER_stop_read>
    27e8:	8c 2f       	mov	r24, r28
    27ea:	df 91       	pop	r29
    27ec:	cf 91       	pop	r28
    27ee:	1f 91       	pop	r17
    27f0:	0f 91       	pop	r16
    27f2:	08 95       	ret

000027f4 <i2c0_driver_set_N_bytes>:
    27f4:	0f 93       	push	r16
    27f6:	1f 93       	push	r17
    27f8:	cf 93       	push	r28
    27fa:	8b 01       	movw	r16, r22
    27fc:	c8 2f       	mov	r28, r24
    27fe:	81 38       	cpi	r24, 0x81	; 129
    2800:	08 f0       	brcs	.+2      	; 0x2804 <i2c0_driver_set_N_bytes+0x10>
    2802:	c0 e8       	ldi	r28, 0x80	; 128
    2804:	32 df       	rcall	.-412    	; 0x266a <I2C0_TX_BUFFER_start_write>
    2806:	b8 01       	movw	r22, r16
    2808:	8c 2f       	mov	r24, r28
    280a:	90 e0       	ldi	r25, 0x00	; 0
    280c:	32 df       	rcall	.-412    	; 0x2672 <I2C0_TX_BUFFER_add_N_bytes>
    280e:	37 df       	rcall	.-402    	; 0x267e <I2C0_TX_BUFFER_stop_write>
    2810:	8c 2f       	mov	r24, r28
    2812:	cf 91       	pop	r28
    2814:	1f 91       	pop	r17
    2816:	0f 91       	pop	r16
    2818:	08 95       	ret

0000281a <i2c0_driver_is_ready_for_rx>:
    281a:	82 e0       	ldi	r24, 0x02	; 2
    281c:	0a df       	rcall	.-492    	; 0x2632 <I2C0_STATUS_is_set>
    281e:	81 11       	cpse	r24, r1
    2820:	04 c0       	rjmp	.+8      	; 0x282a <i2c0_driver_is_ready_for_rx+0x10>
    2822:	81 e0       	ldi	r24, 0x01	; 1
    2824:	06 df       	rcall	.-500    	; 0x2632 <I2C0_STATUS_is_set>
    2826:	91 e0       	ldi	r25, 0x01	; 1
    2828:	81 11       	cpse	r24, r1
    282a:	90 e0       	ldi	r25, 0x00	; 0
    282c:	89 2f       	mov	r24, r25
    282e:	08 95       	ret

00002830 <i2c0_driver_is_ready_for_tx>:
    2830:	f4 cf       	rjmp	.-24     	; 0x281a <i2c0_driver_is_ready_for_rx>
    2832:	08 95       	ret

00002834 <i2c0_driver_start_rx>:
    2834:	80 93 65 06 	sts	0x0665, r24	; 0x800665 <_i2c_rx_counter>
    2838:	3e df       	rcall	.-388    	; 0x26b6 <I2C0_RX_BUFFER_start_write>
    283a:	81 e0       	ldi	r24, 0x01	; 1
    283c:	f3 de       	rcall	.-538    	; 0x2624 <I2C0_STATUS_set>
    283e:	83 e0       	ldi	r24, 0x03	; 3
    2840:	f8 de       	rcall	.-528    	; 0x2632 <I2C0_STATUS_is_set>
    2842:	88 23       	and	r24, r24
    2844:	51 f0       	breq	.+20     	; 0x285a <i2c0_driver_start_rx+0x26>
    2846:	80 91 66 06 	lds	r24, 0x0666	; 0x800666 <i2c0_driver_destination_addr>
    284a:	81 60       	ori	r24, 0x01	; 1
    284c:	80 93 66 06 	sts	0x0666, r24	; 0x800666 <i2c0_driver_destination_addr>
    2850:	80 91 6a 06 	lds	r24, 0x066A	; 0x80066a <i2c_cfg_control_reg>
    2854:	84 6a       	ori	r24, 0xA4	; 164
    2856:	80 93 bc 00 	sts	0x00BC, r24	; 0x8000bc <__TEXT_REGION_LENGTH__+0x7e00bc>
    285a:	08 95       	ret

0000285c <i2c0_driver_wait_for_rx>:
    285c:	0f 93       	push	r16
    285e:	1f 93       	push	r17
    2860:	cf 93       	push	r28
    2862:	c8 2f       	mov	r28, r24
    2864:	8b 01       	movw	r16, r22
    2866:	8d e6       	ldi	r24, 0x6D	; 109
    2868:	96 e0       	ldi	r25, 0x06	; 6
    286a:	0e 94 3a 03 	call	0x674	; 0x674 <time_mgmnt_start_u16>
    286e:	81 e0       	ldi	r24, 0x01	; 1
    2870:	e0 de       	rcall	.-576    	; 0x2632 <I2C0_STATUS_is_set>
    2872:	88 23       	and	r24, r24
    2874:	51 f0       	breq	.+20     	; 0x288a <i2c0_driver_wait_for_rx+0x2e>
    2876:	b8 01       	movw	r22, r16
    2878:	8d e6       	ldi	r24, 0x6D	; 109
    287a:	96 e0       	ldi	r25, 0x06	; 6
    287c:	0e 94 96 03 	call	0x72c	; 0x72c <time_mgmnt_istimeup_u16>
    2880:	81 11       	cpse	r24, r1
    2882:	03 c0       	rjmp	.+6      	; 0x288a <i2c0_driver_wait_for_rx+0x2e>
    2884:	10 df       	rcall	.-480    	; 0x26a6 <I2C0_RX_BUFFER_bytes_available>
    2886:	8c 17       	cp	r24, r28
    2888:	90 f3       	brcs	.-28     	; 0x286e <i2c0_driver_wait_for_rx+0x12>
    288a:	cf 91       	pop	r28
    288c:	1f 91       	pop	r17
    288e:	0f 91       	pop	r16
    2890:	08 95       	ret

00002892 <i2c0_driver_stop_rx>:
    2892:	83 e0       	ldi	r24, 0x03	; 3
    2894:	ce de       	rcall	.-612    	; 0x2632 <I2C0_STATUS_is_set>
    2896:	81 e0       	ldi	r24, 0x01	; 1
    2898:	d6 de       	rcall	.-596    	; 0x2646 <I2C0_STATUS_unset>
    289a:	16 cf       	rjmp	.-468    	; 0x26c8 <I2C0_RX_BUFFER_stop_write>

0000289c <i2c0_driver_start_tx>:
    289c:	80 91 66 06 	lds	r24, 0x0666	; 0x800666 <i2c0_driver_destination_addr>
    28a0:	8e 7f       	andi	r24, 0xFE	; 254
    28a2:	80 93 66 06 	sts	0x0666, r24	; 0x800666 <i2c0_driver_destination_addr>
    28a6:	82 e0       	ldi	r24, 0x02	; 2
    28a8:	bd de       	rcall	.-646    	; 0x2624 <I2C0_STATUS_set>
    28aa:	ed de       	rcall	.-550    	; 0x2686 <I2C0_TX_BUFFER_start_read>
    28ac:	83 e0       	ldi	r24, 0x03	; 3
    28ae:	c1 de       	rcall	.-638    	; 0x2632 <I2C0_STATUS_is_set>
    28b0:	88 23       	and	r24, r24
    28b2:	29 f0       	breq	.+10     	; 0x28be <i2c0_driver_start_tx+0x22>
    28b4:	80 91 6a 06 	lds	r24, 0x066A	; 0x80066a <i2c_cfg_control_reg>
    28b8:	84 6a       	ori	r24, 0xA4	; 164
    28ba:	80 93 bc 00 	sts	0x00BC, r24	; 0x8000bc <__TEXT_REGION_LENGTH__+0x7e00bc>
    28be:	08 95       	ret

000028c0 <i2c0_driver_wait_for_tx>:
    28c0:	08 95       	ret

000028c2 <i2c0_driver_stop_tx>:
    28c2:	83 e0       	ldi	r24, 0x03	; 3
    28c4:	b6 de       	rcall	.-660    	; 0x2632 <I2C0_STATUS_is_set>
    28c6:	e7 de       	rcall	.-562    	; 0x2696 <I2C0_TX_BUFFER_stop_read>
    28c8:	82 e0       	ldi	r24, 0x02	; 2
    28ca:	bd ce       	rjmp	.-646    	; 0x2646 <I2C0_STATUS_unset>

000028cc <i2c0_driver_clear_rx_buffer>:
    28cc:	f0 ce       	rjmp	.-544    	; 0x26ae <I2C0_RX_BUFFER_clear_all>
    28ce:	08 95       	ret

000028d0 <i2c0_driver_clear_tx_buffer>:
    28d0:	c8 ce       	rjmp	.-624    	; 0x2662 <I2C0_TX_BUFFER_clear_all>
    28d2:	08 95       	ret

000028d4 <i2c0_driver_set_address>:
    28d4:	88 0f       	add	r24, r24
    28d6:	80 93 66 06 	sts	0x0666, r24	; 0x800666 <i2c0_driver_destination_addr>
    28da:	08 95       	ret

000028dc <i2c0_driver_mutex_request>:
    28dc:	8b e6       	ldi	r24, 0x6B	; 107
    28de:	96 e0       	ldi	r25, 0x06	; 6
    28e0:	0e 94 80 01 	call	0x300	; 0x300 <mutex_is_requested>
    28e4:	81 11       	cpse	r24, r1
    28e6:	04 c0       	rjmp	.+8      	; 0x28f0 <i2c0_driver_mutex_request+0x14>
    28e8:	8b e6       	ldi	r24, 0x6B	; 107
    28ea:	96 e0       	ldi	r25, 0x06	; 6
    28ec:	0c 94 62 01 	jmp	0x2c4	; 0x2c4 <mutex_request>
    28f0:	80 e0       	ldi	r24, 0x00	; 0
    28f2:	08 95       	ret

000028f4 <i2c0_driver_mutex_release>:
    28f4:	68 2f       	mov	r22, r24
    28f6:	8b e6       	ldi	r24, 0x6B	; 107
    28f8:	96 e0       	ldi	r25, 0x06	; 6
    28fa:	0c 94 71 01 	jmp	0x2e2	; 0x2e2 <mutex_release>

000028fe <__vector_26>:
    28fe:	1f 92       	push	r1
    2900:	0f 92       	push	r0
    2902:	0f b6       	in	r0, 0x3f	; 63
    2904:	0f 92       	push	r0
    2906:	11 24       	eor	r1, r1
    2908:	0b b6       	in	r0, 0x3b	; 59
    290a:	0f 92       	push	r0
    290c:	2f 93       	push	r18
    290e:	3f 93       	push	r19
    2910:	4f 93       	push	r20
    2912:	5f 93       	push	r21
    2914:	6f 93       	push	r22
    2916:	7f 93       	push	r23
    2918:	8f 93       	push	r24
    291a:	9f 93       	push	r25
    291c:	af 93       	push	r26
    291e:	bf 93       	push	r27
    2920:	ef 93       	push	r30
    2922:	ff 93       	push	r31
    2924:	80 91 b9 00 	lds	r24, 0x00B9	; 0x8000b9 <__TEXT_REGION_LENGTH__+0x7e00b9>
    2928:	88 7f       	andi	r24, 0xF8	; 248
    292a:	80 35       	cpi	r24, 0x50	; 80
    292c:	09 f4       	brne	.+2      	; 0x2930 <__vector_26+0x32>
    292e:	60 c0       	rjmp	.+192    	; 0x29f0 <__vector_26+0xf2>
    2930:	10 f5       	brcc	.+68     	; 0x2976 <__vector_26+0x78>
    2932:	80 32       	cpi	r24, 0x20	; 32
    2934:	09 f4       	brne	.+2      	; 0x2938 <__vector_26+0x3a>
    2936:	8f c0       	rjmp	.+286    	; 0x2a56 <__vector_26+0x158>
    2938:	68 f4       	brcc	.+26     	; 0x2954 <__vector_26+0x56>
    293a:	88 30       	cpi	r24, 0x08	; 8
    293c:	09 f4       	brne	.+2      	; 0x2940 <__vector_26+0x42>
    293e:	40 c0       	rjmp	.+128    	; 0x29c0 <__vector_26+0xc2>
    2940:	20 f4       	brcc	.+8      	; 0x294a <__vector_26+0x4c>
    2942:	88 23       	and	r24, r24
    2944:	09 f4       	brne	.+2      	; 0x2948 <__vector_26+0x4a>
    2946:	77 c0       	rjmp	.+238    	; 0x2a36 <__vector_26+0x138>
    2948:	b8 c0       	rjmp	.+368    	; 0x2aba <__vector_26+0x1bc>
    294a:	80 31       	cpi	r24, 0x10	; 16
    294c:	c9 f1       	breq	.+114    	; 0x29c0 <__vector_26+0xc2>
    294e:	88 31       	cpi	r24, 0x18	; 24
    2950:	f1 f1       	breq	.+124    	; 0x29ce <__vector_26+0xd0>
    2952:	b3 c0       	rjmp	.+358    	; 0x2aba <__vector_26+0x1bc>
    2954:	88 33       	cpi	r24, 0x38	; 56
    2956:	09 f4       	brne	.+2      	; 0x295a <__vector_26+0x5c>
    2958:	6e c0       	rjmp	.+220    	; 0x2a36 <__vector_26+0x138>
    295a:	30 f4       	brcc	.+12     	; 0x2968 <__vector_26+0x6a>
    295c:	88 32       	cpi	r24, 0x28	; 40
    295e:	b9 f1       	breq	.+110    	; 0x29ce <__vector_26+0xd0>
    2960:	80 33       	cpi	r24, 0x30	; 48
    2962:	09 f4       	brne	.+2      	; 0x2966 <__vector_26+0x68>
    2964:	78 c0       	rjmp	.+240    	; 0x2a56 <__vector_26+0x158>
    2966:	a9 c0       	rjmp	.+338    	; 0x2aba <__vector_26+0x1bc>
    2968:	80 34       	cpi	r24, 0x40	; 64
    296a:	09 f4       	brne	.+2      	; 0x296e <__vector_26+0x70>
    296c:	5b c0       	rjmp	.+182    	; 0x2a24 <__vector_26+0x126>
    296e:	88 34       	cpi	r24, 0x48	; 72
    2970:	09 f4       	brne	.+2      	; 0x2974 <__vector_26+0x76>
    2972:	71 c0       	rjmp	.+226    	; 0x2a56 <__vector_26+0x158>
    2974:	a2 c0       	rjmp	.+324    	; 0x2aba <__vector_26+0x1bc>
    2976:	88 38       	cpi	r24, 0x88	; 136
    2978:	09 f4       	brne	.+2      	; 0x297c <__vector_26+0x7e>
    297a:	7e c0       	rjmp	.+252    	; 0x2a78 <__vector_26+0x17a>
    297c:	78 f4       	brcc	.+30     	; 0x299c <__vector_26+0x9e>
    297e:	80 36       	cpi	r24, 0x60	; 96
    2980:	09 f4       	brne	.+2      	; 0x2984 <__vector_26+0x86>
    2982:	72 c0       	rjmp	.+228    	; 0x2a68 <__vector_26+0x16a>
    2984:	20 f4       	brcc	.+8      	; 0x298e <__vector_26+0x90>
    2986:	88 35       	cpi	r24, 0x58	; 88
    2988:	09 f4       	brne	.+2      	; 0x298c <__vector_26+0x8e>
    298a:	57 c0       	rjmp	.+174    	; 0x2a3a <__vector_26+0x13c>
    298c:	96 c0       	rjmp	.+300    	; 0x2aba <__vector_26+0x1bc>
    298e:	80 37       	cpi	r24, 0x70	; 112
    2990:	09 f4       	brne	.+2      	; 0x2994 <__vector_26+0x96>
    2992:	8d c0       	rjmp	.+282    	; 0x2aae <__vector_26+0x1b0>
    2994:	80 38       	cpi	r24, 0x80	; 128
    2996:	09 f4       	brne	.+2      	; 0x299a <__vector_26+0x9c>
    2998:	6f c0       	rjmp	.+222    	; 0x2a78 <__vector_26+0x17a>
    299a:	8f c0       	rjmp	.+286    	; 0x2aba <__vector_26+0x1bc>
    299c:	88 3b       	cpi	r24, 0xB8	; 184
    299e:	09 f4       	brne	.+2      	; 0x29a2 <__vector_26+0xa4>
    29a0:	71 c0       	rjmp	.+226    	; 0x2a84 <__vector_26+0x186>
    29a2:	38 f4       	brcc	.+14     	; 0x29b2 <__vector_26+0xb4>
    29a4:	80 3a       	cpi	r24, 0xA0	; 160
    29a6:	09 f4       	brne	.+2      	; 0x29aa <__vector_26+0xac>
    29a8:	6b c0       	rjmp	.+214    	; 0x2a80 <__vector_26+0x182>
    29aa:	88 3a       	cpi	r24, 0xA8	; 168
    29ac:	09 f4       	brne	.+2      	; 0x29b0 <__vector_26+0xb2>
    29ae:	6a c0       	rjmp	.+212    	; 0x2a84 <__vector_26+0x186>
    29b0:	84 c0       	rjmp	.+264    	; 0x2aba <__vector_26+0x1bc>
    29b2:	80 3c       	cpi	r24, 0xC0	; 192
    29b4:	09 f4       	brne	.+2      	; 0x29b8 <__vector_26+0xba>
    29b6:	7b c0       	rjmp	.+246    	; 0x2aae <__vector_26+0x1b0>
    29b8:	88 3c       	cpi	r24, 0xC8	; 200
    29ba:	09 f4       	brne	.+2      	; 0x29be <__vector_26+0xc0>
    29bc:	78 c0       	rjmp	.+240    	; 0x2aae <__vector_26+0x1b0>
    29be:	7d c0       	rjmp	.+250    	; 0x2aba <__vector_26+0x1bc>
    29c0:	80 91 66 06 	lds	r24, 0x0666	; 0x800666 <i2c0_driver_destination_addr>
    29c4:	80 93 bb 00 	sts	0x00BB, r24	; 0x8000bb <__TEXT_REGION_LENGTH__+0x7e00bb>
    29c8:	80 91 6a 06 	lds	r24, 0x066A	; 0x80066a <i2c_cfg_control_reg>
    29cc:	6e c0       	rjmp	.+220    	; 0x2aaa <__vector_26+0x1ac>
    29ce:	45 de       	rcall	.-886    	; 0x265a <I2C0_TX_BUFFER_bytes_available>
    29d0:	88 23       	and	r24, r24
    29d2:	21 f0       	breq	.+8      	; 0x29dc <__vector_26+0xde>
    29d4:	5c de       	rcall	.-840    	; 0x268e <I2C0_TX_BUFFER_get_byte>
    29d6:	80 93 bb 00 	sts	0x00BB, r24	; 0x8000bb <__TEXT_REGION_LENGTH__+0x7e00bb>
    29da:	64 c0       	rjmp	.+200    	; 0x2aa4 <__vector_26+0x1a6>
    29dc:	80 91 6a 06 	lds	r24, 0x066A	; 0x80066a <i2c_cfg_control_reg>
    29e0:	81 70       	andi	r24, 0x01	; 1
    29e2:	84 69       	ori	r24, 0x94	; 148
    29e4:	80 93 bc 00 	sts	0x00BC, r24	; 0x8000bc <__TEXT_REGION_LENGTH__+0x7e00bc>
    29e8:	82 e0       	ldi	r24, 0x02	; 2
    29ea:	2d de       	rcall	.-934    	; 0x2646 <I2C0_STATUS_unset>
    29ec:	54 de       	rcall	.-856    	; 0x2696 <I2C0_TX_BUFFER_stop_read>
    29ee:	65 c0       	rjmp	.+202    	; 0x2aba <__vector_26+0x1bc>
    29f0:	81 e0       	ldi	r24, 0x01	; 1
    29f2:	1f de       	rcall	.-962    	; 0x2632 <I2C0_STATUS_is_set>
    29f4:	88 23       	and	r24, r24
    29f6:	19 f0       	breq	.+6      	; 0x29fe <__vector_26+0x100>
    29f8:	80 91 bb 00 	lds	r24, 0x00BB	; 0x8000bb <__TEXT_REGION_LENGTH__+0x7e00bb>
    29fc:	60 de       	rcall	.-832    	; 0x26be <I2C0_RX_BUFFER_add_byte>
    29fe:	80 91 65 06 	lds	r24, 0x0665	; 0x800665 <_i2c_rx_counter>
    2a02:	88 23       	and	r24, r24
    2a04:	19 f0       	breq	.+6      	; 0x2a0c <__vector_26+0x10e>
    2a06:	81 50       	subi	r24, 0x01	; 1
    2a08:	80 93 65 06 	sts	0x0665, r24	; 0x800665 <_i2c_rx_counter>
    2a0c:	90 91 65 06 	lds	r25, 0x0665	; 0x800665 <_i2c_rx_counter>
    2a10:	80 91 6a 06 	lds	r24, 0x066A	; 0x80066a <i2c_cfg_control_reg>
    2a14:	81 70       	andi	r24, 0x01	; 1
    2a16:	91 11       	cpse	r25, r1
    2a18:	4d c0       	rjmp	.+154    	; 0x2ab4 <__vector_26+0x1b6>
    2a1a:	84 68       	ori	r24, 0x84	; 132
    2a1c:	80 93 bc 00 	sts	0x00BC, r24	; 0x8000bc <__TEXT_REGION_LENGTH__+0x7e00bc>
    2a20:	81 e0       	ldi	r24, 0x01	; 1
    2a22:	20 c0       	rjmp	.+64     	; 0x2a64 <__vector_26+0x166>
    2a24:	90 91 65 06 	lds	r25, 0x0665	; 0x800665 <_i2c_rx_counter>
    2a28:	80 91 6a 06 	lds	r24, 0x066A	; 0x80066a <i2c_cfg_control_reg>
    2a2c:	81 70       	andi	r24, 0x01	; 1
    2a2e:	91 30       	cpi	r25, 0x01	; 1
    2a30:	09 f0       	breq	.+2      	; 0x2a34 <__vector_26+0x136>
    2a32:	40 c0       	rjmp	.+128    	; 0x2ab4 <__vector_26+0x1b6>
    2a34:	3a c0       	rjmp	.+116    	; 0x2aaa <__vector_26+0x1ac>
    2a36:	80 e9       	ldi	r24, 0x90	; 144
    2a38:	3e c0       	rjmp	.+124    	; 0x2ab6 <__vector_26+0x1b8>
    2a3a:	81 e0       	ldi	r24, 0x01	; 1
    2a3c:	fa dd       	rcall	.-1036   	; 0x2632 <I2C0_STATUS_is_set>
    2a3e:	88 23       	and	r24, r24
    2a40:	51 f0       	breq	.+20     	; 0x2a56 <__vector_26+0x158>
    2a42:	80 91 bb 00 	lds	r24, 0x00BB	; 0x8000bb <__TEXT_REGION_LENGTH__+0x7e00bb>
    2a46:	3b de       	rcall	.-906    	; 0x26be <I2C0_RX_BUFFER_add_byte>
    2a48:	80 91 65 06 	lds	r24, 0x0665	; 0x800665 <_i2c_rx_counter>
    2a4c:	81 50       	subi	r24, 0x01	; 1
    2a4e:	80 93 65 06 	sts	0x0665, r24	; 0x800665 <_i2c_rx_counter>
    2a52:	81 e0       	ldi	r24, 0x01	; 1
    2a54:	f8 dd       	rcall	.-1040   	; 0x2646 <I2C0_STATUS_unset>
    2a56:	80 91 6a 06 	lds	r24, 0x066A	; 0x80066a <i2c_cfg_control_reg>
    2a5a:	81 70       	andi	r24, 0x01	; 1
    2a5c:	84 69       	ori	r24, 0x94	; 148
    2a5e:	80 93 bc 00 	sts	0x00BC, r24	; 0x8000bc <__TEXT_REGION_LENGTH__+0x7e00bc>
    2a62:	82 e0       	ldi	r24, 0x02	; 2
    2a64:	f0 dd       	rcall	.-1056   	; 0x2646 <I2C0_STATUS_unset>
    2a66:	29 c0       	rjmp	.+82     	; 0x2aba <__vector_26+0x1bc>
    2a68:	80 91 6a 06 	lds	r24, 0x066A	; 0x80066a <i2c_cfg_control_reg>
    2a6c:	81 70       	andi	r24, 0x01	; 1
    2a6e:	84 6c       	ori	r24, 0xC4	; 196
    2a70:	80 93 bc 00 	sts	0x00BC, r24	; 0x8000bc <__TEXT_REGION_LENGTH__+0x7e00bc>
    2a74:	20 de       	rcall	.-960    	; 0x26b6 <I2C0_RX_BUFFER_start_write>
    2a76:	21 c0       	rjmp	.+66     	; 0x2aba <__vector_26+0x1bc>
    2a78:	80 91 bb 00 	lds	r24, 0x00BB	; 0x8000bb <__TEXT_REGION_LENGTH__+0x7e00bb>
    2a7c:	20 de       	rcall	.-960    	; 0x26be <I2C0_RX_BUFFER_add_byte>
    2a7e:	17 c0       	rjmp	.+46     	; 0x2aae <__vector_26+0x1b0>
    2a80:	23 de       	rcall	.-954    	; 0x26c8 <I2C0_RX_BUFFER_stop_write>
    2a82:	15 c0       	rjmp	.+42     	; 0x2aae <__vector_26+0x1b0>
    2a84:	82 e0       	ldi	r24, 0x02	; 2
    2a86:	d5 dd       	rcall	.-1110   	; 0x2632 <I2C0_STATUS_is_set>
    2a88:	81 11       	cpse	r24, r1
    2a8a:	03 c0       	rjmp	.+6      	; 0x2a92 <__vector_26+0x194>
    2a8c:	10 92 bb 00 	sts	0x00BB, r1	; 0x8000bb <__TEXT_REGION_LENGTH__+0x7e00bb>
    2a90:	09 c0       	rjmp	.+18     	; 0x2aa4 <__vector_26+0x1a6>
    2a92:	fd dd       	rcall	.-1030   	; 0x268e <I2C0_TX_BUFFER_get_byte>
    2a94:	80 93 bb 00 	sts	0x00BB, r24	; 0x8000bb <__TEXT_REGION_LENGTH__+0x7e00bb>
    2a98:	e0 dd       	rcall	.-1088   	; 0x265a <I2C0_TX_BUFFER_bytes_available>
    2a9a:	81 11       	cpse	r24, r1
    2a9c:	08 c0       	rjmp	.+16     	; 0x2aae <__vector_26+0x1b0>
    2a9e:	fb dd       	rcall	.-1034   	; 0x2696 <I2C0_TX_BUFFER_stop_read>
    2aa0:	82 e0       	ldi	r24, 0x02	; 2
    2aa2:	d1 dd       	rcall	.-1118   	; 0x2646 <I2C0_STATUS_unset>
    2aa4:	80 91 6a 06 	lds	r24, 0x066A	; 0x80066a <i2c_cfg_control_reg>
    2aa8:	81 70       	andi	r24, 0x01	; 1
    2aaa:	84 68       	ori	r24, 0x84	; 132
    2aac:	04 c0       	rjmp	.+8      	; 0x2ab6 <__vector_26+0x1b8>
    2aae:	80 91 6a 06 	lds	r24, 0x066A	; 0x80066a <i2c_cfg_control_reg>
    2ab2:	81 70       	andi	r24, 0x01	; 1
    2ab4:	84 6c       	ori	r24, 0xC4	; 196
    2ab6:	80 93 bc 00 	sts	0x00BC, r24	; 0x8000bc <__TEXT_REGION_LENGTH__+0x7e00bc>
    2aba:	ff 91       	pop	r31
    2abc:	ef 91       	pop	r30
    2abe:	bf 91       	pop	r27
    2ac0:	af 91       	pop	r26
    2ac2:	9f 91       	pop	r25
    2ac4:	8f 91       	pop	r24
    2ac6:	7f 91       	pop	r23
    2ac8:	6f 91       	pop	r22
    2aca:	5f 91       	pop	r21
    2acc:	4f 91       	pop	r20
    2ace:	3f 91       	pop	r19
    2ad0:	2f 91       	pop	r18
    2ad2:	0f 90       	pop	r0
    2ad4:	0b be       	out	0x3b, r0	; 59
    2ad6:	0f 90       	pop	r0
    2ad8:	0f be       	out	0x3f, r0	; 63
    2ada:	0f 90       	pop	r0
    2adc:	1f 90       	pop	r1
    2ade:	18 95       	reti

00002ae0 <usart0_driver_initialize>:
    2ae0:	08 95       	ret

00002ae2 <usart0_driver_configure>:
    2ae2:	cf 93       	push	r28
    2ae4:	df 93       	push	r29
    2ae6:	ec 01       	movw	r28, r24
    2ae8:	88 ea       	ldi	r24, 0xA8	; 168
    2aea:	92 e0       	ldi	r25, 0x02	; 2
    2aec:	0e 94 88 01 	call	0x310	; 0x310 <local_msg_buffer_init>
    2af0:	83 eb       	ldi	r24, 0xB3	; 179
    2af2:	92 e0       	ldi	r25, 0x02	; 2
    2af4:	0e 94 88 01 	call	0x310	; 0x310 <local_msg_buffer_init>
    2af8:	10 92 c4 00 	sts	0x00C4, r1	; 0x8000c4 <__TEXT_REGION_LENGTH__+0x7e00c4>
    2afc:	10 92 c5 00 	sts	0x00C5, r1	; 0x8000c5 <__TEXT_REGION_LENGTH__+0x7e00c5>
    2b00:	10 92 c2 00 	sts	0x00C2, r1	; 0x8000c2 <__TEXT_REGION_LENGTH__+0x7e00c2>
    2b04:	10 92 c1 00 	sts	0x00C1, r1	; 0x8000c1 <__TEXT_REGION_LENGTH__+0x7e00c1>
    2b08:	88 81       	ld	r24, Y
    2b0a:	82 30       	cpi	r24, 0x02	; 2
    2b0c:	61 f0       	breq	.+24     	; 0x2b26 <usart0_driver_configure+0x44>
    2b0e:	18 f4       	brcc	.+6      	; 0x2b16 <usart0_driver_configure+0x34>
    2b10:	81 30       	cpi	r24, 0x01	; 1
    2b12:	39 f0       	breq	.+14     	; 0x2b22 <usart0_driver_configure+0x40>
    2b14:	04 c0       	rjmp	.+8      	; 0x2b1e <usart0_driver_configure+0x3c>
    2b16:	83 30       	cpi	r24, 0x03	; 3
    2b18:	49 f0       	breq	.+18     	; 0x2b2c <usart0_driver_configure+0x4a>
    2b1a:	84 30       	cpi	r24, 0x04	; 4
    2b1c:	31 f0       	breq	.+12     	; 0x2b2a <usart0_driver_configure+0x48>
    2b1e:	8f e2       	ldi	r24, 0x2F	; 47
    2b20:	05 c0       	rjmp	.+10     	; 0x2b2c <usart0_driver_configure+0x4a>
    2b22:	87 e1       	ldi	r24, 0x17	; 23
    2b24:	03 c0       	rjmp	.+6      	; 0x2b2c <usart0_driver_configure+0x4a>
    2b26:	8b e0       	ldi	r24, 0x0B	; 11
    2b28:	01 c0       	rjmp	.+2      	; 0x2b2c <usart0_driver_configure+0x4a>
    2b2a:	81 e0       	ldi	r24, 0x01	; 1
    2b2c:	80 93 c4 00 	sts	0x00C4, r24	; 0x8000c4 <__TEXT_REGION_LENGTH__+0x7e00c4>
    2b30:	10 92 c5 00 	sts	0x00C5, r1	; 0x8000c5 <__TEXT_REGION_LENGTH__+0x7e00c5>
    2b34:	89 81       	ldd	r24, Y+1	; 0x01
    2b36:	82 30       	cpi	r24, 0x02	; 2
    2b38:	79 f0       	breq	.+30     	; 0x2b58 <usart0_driver_configure+0x76>
    2b3a:	18 f4       	brcc	.+6      	; 0x2b42 <usart0_driver_configure+0x60>
    2b3c:	81 30       	cpi	r24, 0x01	; 1
    2b3e:	49 f0       	breq	.+18     	; 0x2b52 <usart0_driver_configure+0x70>
    2b40:	04 c0       	rjmp	.+8      	; 0x2b4a <usart0_driver_configure+0x68>
    2b42:	83 30       	cpi	r24, 0x03	; 3
    2b44:	69 f0       	breq	.+26     	; 0x2b60 <usart0_driver_configure+0x7e>
    2b46:	84 30       	cpi	r24, 0x04	; 4
    2b48:	79 f0       	breq	.+30     	; 0x2b68 <usart0_driver_configure+0x86>
    2b4a:	80 91 c2 00 	lds	r24, 0x00C2	; 0x8000c2 <__TEXT_REGION_LENGTH__+0x7e00c2>
    2b4e:	86 60       	ori	r24, 0x06	; 6
    2b50:	0e c0       	rjmp	.+28     	; 0x2b6e <usart0_driver_configure+0x8c>
    2b52:	80 91 c2 00 	lds	r24, 0x00C2	; 0x8000c2 <__TEXT_REGION_LENGTH__+0x7e00c2>
    2b56:	0b c0       	rjmp	.+22     	; 0x2b6e <usart0_driver_configure+0x8c>
    2b58:	80 91 c2 00 	lds	r24, 0x00C2	; 0x8000c2 <__TEXT_REGION_LENGTH__+0x7e00c2>
    2b5c:	82 60       	ori	r24, 0x02	; 2
    2b5e:	07 c0       	rjmp	.+14     	; 0x2b6e <usart0_driver_configure+0x8c>
    2b60:	80 91 c2 00 	lds	r24, 0x00C2	; 0x8000c2 <__TEXT_REGION_LENGTH__+0x7e00c2>
    2b64:	84 60       	ori	r24, 0x04	; 4
    2b66:	03 c0       	rjmp	.+6      	; 0x2b6e <usart0_driver_configure+0x8c>
    2b68:	80 91 c2 00 	lds	r24, 0x00C2	; 0x8000c2 <__TEXT_REGION_LENGTH__+0x7e00c2>
    2b6c:	8e 60       	ori	r24, 0x0E	; 14
    2b6e:	80 93 c2 00 	sts	0x00C2, r24	; 0x8000c2 <__TEXT_REGION_LENGTH__+0x7e00c2>
    2b72:	8a 81       	ldd	r24, Y+2	; 0x02
    2b74:	81 30       	cpi	r24, 0x01	; 1
    2b76:	19 f0       	breq	.+6      	; 0x2b7e <usart0_driver_configure+0x9c>
    2b78:	80 91 c2 00 	lds	r24, 0x00C2	; 0x8000c2 <__TEXT_REGION_LENGTH__+0x7e00c2>
    2b7c:	03 c0       	rjmp	.+6      	; 0x2b84 <usart0_driver_configure+0xa2>
    2b7e:	80 91 c2 00 	lds	r24, 0x00C2	; 0x8000c2 <__TEXT_REGION_LENGTH__+0x7e00c2>
    2b82:	88 60       	ori	r24, 0x08	; 8
    2b84:	80 93 c2 00 	sts	0x00C2, r24	; 0x8000c2 <__TEXT_REGION_LENGTH__+0x7e00c2>
    2b88:	8b 81       	ldd	r24, Y+3	; 0x03
    2b8a:	81 30       	cpi	r24, 0x01	; 1
    2b8c:	29 f0       	breq	.+10     	; 0x2b98 <usart0_driver_configure+0xb6>
    2b8e:	82 30       	cpi	r24, 0x02	; 2
    2b90:	39 f0       	breq	.+14     	; 0x2ba0 <usart0_driver_configure+0xbe>
    2b92:	80 91 c2 00 	lds	r24, 0x00C2	; 0x8000c2 <__TEXT_REGION_LENGTH__+0x7e00c2>
    2b96:	07 c0       	rjmp	.+14     	; 0x2ba6 <usart0_driver_configure+0xc4>
    2b98:	80 91 c2 00 	lds	r24, 0x00C2	; 0x8000c2 <__TEXT_REGION_LENGTH__+0x7e00c2>
    2b9c:	80 62       	ori	r24, 0x20	; 32
    2b9e:	03 c0       	rjmp	.+6      	; 0x2ba6 <usart0_driver_configure+0xc4>
    2ba0:	80 91 c2 00 	lds	r24, 0x00C2	; 0x8000c2 <__TEXT_REGION_LENGTH__+0x7e00c2>
    2ba4:	80 63       	ori	r24, 0x30	; 48
    2ba6:	80 93 c2 00 	sts	0x00C2, r24	; 0x8000c2 <__TEXT_REGION_LENGTH__+0x7e00c2>
    2baa:	80 91 c1 00 	lds	r24, 0x00C1	; 0x8000c1 <__TEXT_REGION_LENGTH__+0x7e00c1>
    2bae:	88 60       	ori	r24, 0x08	; 8
    2bb0:	80 93 c1 00 	sts	0x00C1, r24	; 0x8000c1 <__TEXT_REGION_LENGTH__+0x7e00c1>
    2bb4:	80 91 c1 00 	lds	r24, 0x00C1	; 0x8000c1 <__TEXT_REGION_LENGTH__+0x7e00c1>
    2bb8:	80 61       	ori	r24, 0x10	; 16
    2bba:	80 93 c1 00 	sts	0x00C1, r24	; 0x8000c1 <__TEXT_REGION_LENGTH__+0x7e00c1>
    2bbe:	df 91       	pop	r29
    2bc0:	cf 91       	pop	r28
    2bc2:	08 95       	ret

00002bc4 <usart0_driver_power_off>:
    2bc4:	88 ea       	ldi	r24, 0xA8	; 168
    2bc6:	92 e0       	ldi	r25, 0x02	; 2
    2bc8:	0e 94 ad 02 	call	0x55a	; 0x55a <local_msg_buffer_clear_all>
    2bcc:	83 eb       	ldi	r24, 0xB3	; 179
    2bce:	92 e0       	ldi	r25, 0x02	; 2
    2bd0:	0c 94 ad 02 	jmp	0x55a	; 0x55a <local_msg_buffer_clear_all>

00002bd4 <usart0_driver_bytes_available>:
    2bd4:	88 ea       	ldi	r24, 0xA8	; 168
    2bd6:	92 e0       	ldi	r25, 0x02	; 2
    2bd8:	0c 94 17 02 	jmp	0x42e	; 0x42e <local_msg_buffer_bytes_available>

00002bdc <usart0_driver_get_N_bytes>:
    2bdc:	0f 93       	push	r16
    2bde:	1f 93       	push	r17
    2be0:	cf 93       	push	r28
    2be2:	df 93       	push	r29
    2be4:	d8 2f       	mov	r29, r24
    2be6:	8b 01       	movw	r16, r22
    2be8:	88 ea       	ldi	r24, 0xA8	; 168
    2bea:	92 e0       	ldi	r25, 0x02	; 2
    2bec:	0e 94 17 02 	call	0x42e	; 0x42e <local_msg_buffer_bytes_available>
    2bf0:	c8 2f       	mov	r28, r24
    2bf2:	d8 17       	cp	r29, r24
    2bf4:	08 f4       	brcc	.+2      	; 0x2bf8 <usart0_driver_get_N_bytes+0x1c>
    2bf6:	cd 2f       	mov	r28, r29
    2bf8:	88 ea       	ldi	r24, 0xA8	; 168
    2bfa:	92 e0       	ldi	r25, 0x02	; 2
    2bfc:	0e 94 0c 02 	call	0x418	; 0x418 <local_msg_buffer_start_read>
    2c00:	6c 2f       	mov	r22, r28
    2c02:	70 e0       	ldi	r23, 0x00	; 0
    2c04:	a8 01       	movw	r20, r16
    2c06:	88 ea       	ldi	r24, 0xA8	; 168
    2c08:	92 e0       	ldi	r25, 0x02	; 2
    2c0a:	0e 94 86 02 	call	0x50c	; 0x50c <local_msg_buffer_get_N_bytes>
    2c0e:	88 ea       	ldi	r24, 0xA8	; 168
    2c10:	92 e0       	ldi	r25, 0x02	; 2
    2c12:	0e 94 a8 02 	call	0x550	; 0x550 <local_msg_buffer_stop_read>
    2c16:	8c 2f       	mov	r24, r28
    2c18:	df 91       	pop	r29
    2c1a:	cf 91       	pop	r28
    2c1c:	1f 91       	pop	r17
    2c1e:	0f 91       	pop	r16
    2c20:	08 95       	ret

00002c22 <usart0_driver_set_N_bytes>:
    2c22:	0f 93       	push	r16
    2c24:	1f 93       	push	r17
    2c26:	cf 93       	push	r28
    2c28:	8b 01       	movw	r16, r22
    2c2a:	c8 2f       	mov	r28, r24
    2c2c:	81 38       	cpi	r24, 0x81	; 129
    2c2e:	08 f0       	brcs	.+2      	; 0x2c32 <usart0_driver_set_N_bytes+0x10>
    2c30:	c0 e8       	ldi	r28, 0x80	; 128
    2c32:	83 eb       	ldi	r24, 0xB3	; 179
    2c34:	92 e0       	ldi	r25, 0x02	; 2
    2c36:	0e 94 91 01 	call	0x322	; 0x322 <local_msg_buffer_start_write>
    2c3a:	6c 2f       	mov	r22, r28
    2c3c:	70 e0       	ldi	r23, 0x00	; 0
    2c3e:	a8 01       	movw	r20, r16
    2c40:	83 eb       	ldi	r24, 0xB3	; 179
    2c42:	92 e0       	ldi	r25, 0x02	; 2
    2c44:	0e 94 f0 01 	call	0x3e0	; 0x3e0 <local_msg_buffer_add_N_bytes>
    2c48:	83 eb       	ldi	r24, 0xB3	; 179
    2c4a:	92 e0       	ldi	r25, 0x02	; 2
    2c4c:	0e 94 07 02 	call	0x40e	; 0x40e <local_msg_buffer_stop_write>
    2c50:	8c 2f       	mov	r24, r28
    2c52:	cf 91       	pop	r28
    2c54:	1f 91       	pop	r17
    2c56:	0f 91       	pop	r16
    2c58:	08 95       	ret

00002c5a <usart0_driver_is_ready_for_rx>:
    2c5a:	81 e0       	ldi	r24, 0x01	; 1
    2c5c:	08 95       	ret

00002c5e <usart0_driver_start_rx>:
    2c5e:	90 93 71 07 	sts	0x0771, r25	; 0x800771 <remote_usart_rx_bytes+0x1>
    2c62:	80 93 70 07 	sts	0x0770, r24	; 0x800770 <remote_usart_rx_bytes>
    2c66:	88 ea       	ldi	r24, 0xA8	; 168
    2c68:	92 e0       	ldi	r25, 0x02	; 2
    2c6a:	0e 94 91 01 	call	0x322	; 0x322 <local_msg_buffer_start_write>
    2c6e:	81 e0       	ldi	r24, 0x01	; 1
    2c70:	80 93 8d 08 	sts	0x088D, r24	; 0x80088d <__local_usart_status_module_status>
    2c74:	08 95       	ret

00002c76 <usart0_driver_wait_for_rx>:
    2c76:	08 95       	ret

00002c78 <usart0_driver_stop_rx>:
    2c78:	10 92 8d 08 	sts	0x088D, r1	; 0x80088d <__local_usart_status_module_status>
    2c7c:	88 ea       	ldi	r24, 0xA8	; 168
    2c7e:	92 e0       	ldi	r25, 0x02	; 2
    2c80:	0c 94 07 02 	jmp	0x40e	; 0x40e <local_msg_buffer_stop_write>

00002c84 <usart0_driver_is_ready_for_tx>:
    2c84:	90 91 8e 08 	lds	r25, 0x088E	; 0x80088e <__local_usart_status_module_status+0x1>
    2c88:	81 e0       	ldi	r24, 0x01	; 1
    2c8a:	91 11       	cpse	r25, r1
    2c8c:	80 e0       	ldi	r24, 0x00	; 0
    2c8e:	08 95       	ret

00002c90 <usart0_driver_start_tx>:
    2c90:	81 e0       	ldi	r24, 0x01	; 1
    2c92:	80 93 8e 08 	sts	0x088E, r24	; 0x80088e <__local_usart_status_module_status+0x1>
    2c96:	83 eb       	ldi	r24, 0xB3	; 179
    2c98:	92 e0       	ldi	r25, 0x02	; 2
    2c9a:	0e 94 0c 02 	call	0x418	; 0x418 <local_msg_buffer_start_read>
    2c9e:	83 eb       	ldi	r24, 0xB3	; 179
    2ca0:	92 e0       	ldi	r25, 0x02	; 2
    2ca2:	0e 94 17 02 	call	0x42e	; 0x42e <local_msg_buffer_bytes_available>
    2ca6:	88 23       	and	r24, r24
    2ca8:	59 f0       	breq	.+22     	; 0x2cc0 <usart0_driver_start_tx+0x30>
    2caa:	80 91 c0 00 	lds	r24, 0x00C0	; 0x8000c0 <__TEXT_REGION_LENGTH__+0x7e00c0>
    2cae:	85 ff       	sbrs	r24, 5
    2cb0:	fc cf       	rjmp	.-8      	; 0x2caa <usart0_driver_start_tx+0x1a>
    2cb2:	83 eb       	ldi	r24, 0xB3	; 179
    2cb4:	92 e0       	ldi	r25, 0x02	; 2
    2cb6:	0e 94 23 02 	call	0x446	; 0x446 <local_msg_buffer_get_byte>
    2cba:	80 93 c6 00 	sts	0x00C6, r24	; 0x8000c6 <__TEXT_REGION_LENGTH__+0x7e00c6>
    2cbe:	ef cf       	rjmp	.-34     	; 0x2c9e <usart0_driver_start_tx+0xe>
    2cc0:	83 eb       	ldi	r24, 0xB3	; 179
    2cc2:	92 e0       	ldi	r25, 0x02	; 2
    2cc4:	0c 94 a8 02 	jmp	0x550	; 0x550 <local_msg_buffer_stop_read>

00002cc8 <usart0_driver_wait_for_tx>:
    2cc8:	08 95       	ret

00002cca <usart0_driver_stop_tx>:
    2cca:	83 eb       	ldi	r24, 0xB3	; 179
    2ccc:	92 e0       	ldi	r25, 0x02	; 2
    2cce:	0e 94 a8 02 	call	0x550	; 0x550 <local_msg_buffer_stop_read>
    2cd2:	10 92 8e 08 	sts	0x088E, r1	; 0x80088e <__local_usart_status_module_status+0x1>
    2cd6:	08 95       	ret

00002cd8 <usart0_driver_clear_rx_buffer>:
    2cd8:	88 ea       	ldi	r24, 0xA8	; 168
    2cda:	92 e0       	ldi	r25, 0x02	; 2
    2cdc:	0c 94 ad 02 	jmp	0x55a	; 0x55a <local_msg_buffer_clear_all>

00002ce0 <usart0_driver_clear_tx_buffer>:
    2ce0:	83 eb       	ldi	r24, 0xB3	; 179
    2ce2:	92 e0       	ldi	r25, 0x02	; 2
    2ce4:	0c 94 ad 02 	jmp	0x55a	; 0x55a <local_msg_buffer_clear_all>

00002ce8 <usart0_driver_set_address>:
    2ce8:	08 95       	ret

00002cea <usart0_driver_mutex_request>:
    2cea:	81 e0       	ldi	r24, 0x01	; 1
    2cec:	08 95       	ret

00002cee <usart0_driver_mutex_release>:
    2cee:	08 95       	ret

00002cf0 <__vector_22>:
    2cf0:	1f 92       	push	r1
    2cf2:	0f 92       	push	r0
    2cf4:	0f b6       	in	r0, 0x3f	; 63
    2cf6:	0f 92       	push	r0
    2cf8:	11 24       	eor	r1, r1
    2cfa:	0b b6       	in	r0, 0x3b	; 59
    2cfc:	0f 92       	push	r0
    2cfe:	2f 93       	push	r18
    2d00:	3f 93       	push	r19
    2d02:	4f 93       	push	r20
    2d04:	5f 93       	push	r21
    2d06:	6f 93       	push	r22
    2d08:	7f 93       	push	r23
    2d0a:	8f 93       	push	r24
    2d0c:	9f 93       	push	r25
    2d0e:	af 93       	push	r26
    2d10:	bf 93       	push	r27
    2d12:	ef 93       	push	r30
    2d14:	ff 93       	push	r31
    2d16:	83 eb       	ldi	r24, 0xB3	; 179
    2d18:	92 e0       	ldi	r25, 0x02	; 2
    2d1a:	0e 94 17 02 	call	0x42e	; 0x42e <local_msg_buffer_bytes_available>
    2d1e:	88 23       	and	r24, r24
    2d20:	39 f0       	breq	.+14     	; 0x2d30 <__vector_22+0x40>
    2d22:	83 eb       	ldi	r24, 0xB3	; 179
    2d24:	92 e0       	ldi	r25, 0x02	; 2
    2d26:	0e 94 23 02 	call	0x446	; 0x446 <local_msg_buffer_get_byte>
    2d2a:	80 93 c6 00 	sts	0x00C6, r24	; 0x8000c6 <__TEXT_REGION_LENGTH__+0x7e00c6>
    2d2e:	01 c0       	rjmp	.+2      	; 0x2d32 <__vector_22+0x42>
    2d30:	cc df       	rcall	.-104    	; 0x2cca <usart0_driver_stop_tx>
    2d32:	ff 91       	pop	r31
    2d34:	ef 91       	pop	r30
    2d36:	bf 91       	pop	r27
    2d38:	af 91       	pop	r26
    2d3a:	9f 91       	pop	r25
    2d3c:	8f 91       	pop	r24
    2d3e:	7f 91       	pop	r23
    2d40:	6f 91       	pop	r22
    2d42:	5f 91       	pop	r21
    2d44:	4f 91       	pop	r20
    2d46:	3f 91       	pop	r19
    2d48:	2f 91       	pop	r18
    2d4a:	0f 90       	pop	r0
    2d4c:	0b be       	out	0x3b, r0	; 59
    2d4e:	0f 90       	pop	r0
    2d50:	0f be       	out	0x3f, r0	; 63
    2d52:	0f 90       	pop	r0
    2d54:	1f 90       	pop	r1
    2d56:	18 95       	reti

00002d58 <__vector_20>:
    2d58:	1f 92       	push	r1
    2d5a:	0f 92       	push	r0
    2d5c:	0f b6       	in	r0, 0x3f	; 63
    2d5e:	0f 92       	push	r0
    2d60:	11 24       	eor	r1, r1
    2d62:	0b b6       	in	r0, 0x3b	; 59
    2d64:	0f 92       	push	r0
    2d66:	2f 93       	push	r18
    2d68:	3f 93       	push	r19
    2d6a:	4f 93       	push	r20
    2d6c:	5f 93       	push	r21
    2d6e:	6f 93       	push	r22
    2d70:	7f 93       	push	r23
    2d72:	8f 93       	push	r24
    2d74:	9f 93       	push	r25
    2d76:	af 93       	push	r26
    2d78:	bf 93       	push	r27
    2d7a:	ef 93       	push	r30
    2d7c:	ff 93       	push	r31
    2d7e:	80 91 70 07 	lds	r24, 0x0770	; 0x800770 <remote_usart_rx_bytes>
    2d82:	90 91 71 07 	lds	r25, 0x0771	; 0x800771 <remote_usart_rx_bytes+0x1>
    2d86:	89 2b       	or	r24, r25
    2d88:	c1 f0       	breq	.+48     	; 0x2dba <__vector_20+0x62>
    2d8a:	60 91 c6 00 	lds	r22, 0x00C6	; 0x8000c6 <__TEXT_REGION_LENGTH__+0x7e00c6>
    2d8e:	88 ea       	ldi	r24, 0xA8	; 168
    2d90:	92 e0       	ldi	r25, 0x02	; 2
    2d92:	0e 94 9c 01 	call	0x338	; 0x338 <local_msg_buffer_add_byte>
    2d96:	80 91 70 07 	lds	r24, 0x0770	; 0x800770 <remote_usart_rx_bytes>
    2d9a:	90 91 71 07 	lds	r25, 0x0771	; 0x800771 <remote_usart_rx_bytes+0x1>
    2d9e:	8f 3f       	cpi	r24, 0xFF	; 255
    2da0:	2f ef       	ldi	r18, 0xFF	; 255
    2da2:	92 07       	cpc	r25, r18
    2da4:	51 f0       	breq	.+20     	; 0x2dba <__vector_20+0x62>
    2da6:	9c 01       	movw	r18, r24
    2da8:	21 50       	subi	r18, 0x01	; 1
    2daa:	31 09       	sbc	r19, r1
    2dac:	30 93 71 07 	sts	0x0771, r19	; 0x800771 <remote_usart_rx_bytes+0x1>
    2db0:	20 93 70 07 	sts	0x0770, r18	; 0x800770 <remote_usart_rx_bytes>
    2db4:	89 2b       	or	r24, r25
    2db6:	09 f4       	brne	.+2      	; 0x2dba <__vector_20+0x62>
    2db8:	5f df       	rcall	.-322    	; 0x2c78 <usart0_driver_stop_rx>
    2dba:	ff 91       	pop	r31
    2dbc:	ef 91       	pop	r30
    2dbe:	bf 91       	pop	r27
    2dc0:	af 91       	pop	r26
    2dc2:	9f 91       	pop	r25
    2dc4:	8f 91       	pop	r24
    2dc6:	7f 91       	pop	r23
    2dc8:	6f 91       	pop	r22
    2dca:	5f 91       	pop	r21
    2dcc:	4f 91       	pop	r20
    2dce:	3f 91       	pop	r19
    2dd0:	2f 91       	pop	r18
    2dd2:	0f 90       	pop	r0
    2dd4:	0b be       	out	0x3b, r0	; 59
    2dd6:	0f 90       	pop	r0
    2dd8:	0f be       	out	0x3f, r0	; 63
    2dda:	0f 90       	pop	r0
    2ddc:	1f 90       	pop	r1
    2dde:	18 95       	reti

00002de0 <timer0_driver_start>:
    2de0:	16 bc       	out	0x26, r1	; 38
    2de2:	80 91 74 08 	lds	r24, 0x0874	; 0x800874 <TIMSK0_backup>
    2de6:	80 93 6e 00 	sts	0x006E, r24	; 0x80006e <__TEXT_REGION_LENGTH__+0x7e006e>
    2dea:	80 91 75 08 	lds	r24, 0x0875	; 0x800875 <OCR0A_backup>
    2dee:	87 bd       	out	0x27, r24	; 39
    2df0:	18 bc       	out	0x28, r1	; 40
    2df2:	80 91 77 08 	lds	r24, 0x0877	; 0x800877 <TCCR0A_backup>
    2df6:	84 bd       	out	0x24, r24	; 36
    2df8:	80 91 76 08 	lds	r24, 0x0876	; 0x800876 <TCCR0B_backup>
    2dfc:	85 bd       	out	0x25, r24	; 37
    2dfe:	08 95       	ret

00002e00 <timer0_driver_stop>:
    2e00:	15 bc       	out	0x25, r1	; 37
    2e02:	14 bc       	out	0x24, r1	; 36
    2e04:	17 bc       	out	0x27, r1	; 39
    2e06:	18 bc       	out	0x28, r1	; 40
    2e08:	16 bc       	out	0x26, r1	; 38
    2e0a:	08 95       	ret

00002e0c <timer0_driver_init>:
    2e0c:	f9 cf       	rjmp	.-14     	; 0x2e00 <timer0_driver_stop>
    2e0e:	08 95       	ret

00002e10 <timer0_driver_configure>:
    2e10:	cf 93       	push	r28
    2e12:	df 93       	push	r29
    2e14:	ec 01       	movw	r28, r24
    2e16:	f4 df       	rcall	.-24     	; 0x2e00 <timer0_driver_stop>
    2e18:	8a 81       	ldd	r24, Y+2	; 0x02
    2e1a:	83 30       	cpi	r24, 0x03	; 3
    2e1c:	61 f0       	breq	.+24     	; 0x2e36 <timer0_driver_configure+0x26>
    2e1e:	18 f4       	brcc	.+6      	; 0x2e26 <timer0_driver_configure+0x16>
    2e20:	82 30       	cpi	r24, 0x02	; 2
    2e22:	39 f0       	breq	.+14     	; 0x2e32 <timer0_driver_configure+0x22>
    2e24:	04 c0       	rjmp	.+8      	; 0x2e2e <timer0_driver_configure+0x1e>
    2e26:	84 30       	cpi	r24, 0x04	; 4
    2e28:	41 f0       	breq	.+16     	; 0x2e3a <timer0_driver_configure+0x2a>
    2e2a:	85 30       	cpi	r24, 0x05	; 5
    2e2c:	41 f0       	breq	.+16     	; 0x2e3e <timer0_driver_configure+0x2e>
    2e2e:	86 e6       	ldi	r24, 0x66	; 102
    2e30:	07 c0       	rjmp	.+14     	; 0x2e40 <timer0_driver_configure+0x30>
    2e32:	80 e6       	ldi	r24, 0x60	; 96
    2e34:	05 c0       	rjmp	.+10     	; 0x2e40 <timer0_driver_configure+0x30>
    2e36:	8e e5       	ldi	r24, 0x5E	; 94
    2e38:	03 c0       	rjmp	.+6      	; 0x2e40 <timer0_driver_configure+0x30>
    2e3a:	8a e5       	ldi	r24, 0x5A	; 90
    2e3c:	01 c0       	rjmp	.+2      	; 0x2e40 <timer0_driver_configure+0x30>
    2e3e:	88 e5       	ldi	r24, 0x58	; 88
    2e40:	80 93 75 08 	sts	0x0875, r24	; 0x800875 <OCR0A_backup>
    2e44:	80 91 74 08 	lds	r24, 0x0874	; 0x800874 <TIMSK0_backup>
    2e48:	82 60       	ori	r24, 0x02	; 2
    2e4a:	80 93 74 08 	sts	0x0874, r24	; 0x800874 <TIMSK0_backup>
    2e4e:	8d 81       	ldd	r24, Y+5	; 0x05
    2e50:	81 30       	cpi	r24, 0x01	; 1
    2e52:	39 f0       	breq	.+14     	; 0x2e62 <timer0_driver_configure+0x52>
    2e54:	83 e4       	ldi	r24, 0x43	; 67
    2e56:	80 93 77 08 	sts	0x0877, r24	; 0x800877 <TCCR0A_backup>
    2e5a:	80 91 76 08 	lds	r24, 0x0876	; 0x800876 <TCCR0B_backup>
    2e5e:	88 60       	ori	r24, 0x08	; 8
    2e60:	03 c0       	rjmp	.+6      	; 0x2e68 <timer0_driver_configure+0x58>
    2e62:	92 e4       	ldi	r25, 0x42	; 66
    2e64:	90 93 77 08 	sts	0x0877, r25	; 0x800877 <TCCR0A_backup>
    2e68:	80 93 76 08 	sts	0x0876, r24	; 0x800876 <TCCR0B_backup>
    2e6c:	88 81       	ld	r24, Y
    2e6e:	99 81       	ldd	r25, Y+1	; 0x01
    2e70:	00 97       	sbiw	r24, 0x00	; 0
    2e72:	29 f0       	breq	.+10     	; 0x2e7e <timer0_driver_configure+0x6e>
    2e74:	90 93 73 08 	sts	0x0873, r25	; 0x800873 <p_irq_callback+0x1>
    2e78:	80 93 72 08 	sts	0x0872, r24	; 0x800872 <p_irq_callback>
    2e7c:	04 c0       	rjmp	.+8      	; 0x2e86 <timer0_driver_configure+0x76>
    2e7e:	10 92 73 08 	sts	0x0873, r1	; 0x800873 <p_irq_callback+0x1>
    2e82:	10 92 72 08 	sts	0x0872, r1	; 0x800872 <p_irq_callback>
    2e86:	df 91       	pop	r29
    2e88:	cf 91       	pop	r28
    2e8a:	08 95       	ret

00002e8c <__vector_16>:
    2e8c:	1f 92       	push	r1
    2e8e:	0f 92       	push	r0
    2e90:	0f b6       	in	r0, 0x3f	; 63
    2e92:	0f 92       	push	r0
    2e94:	11 24       	eor	r1, r1
    2e96:	0b b6       	in	r0, 0x3b	; 59
    2e98:	0f 92       	push	r0
    2e9a:	2f 93       	push	r18
    2e9c:	3f 93       	push	r19
    2e9e:	4f 93       	push	r20
    2ea0:	5f 93       	push	r21
    2ea2:	6f 93       	push	r22
    2ea4:	7f 93       	push	r23
    2ea6:	8f 93       	push	r24
    2ea8:	9f 93       	push	r25
    2eaa:	af 93       	push	r26
    2eac:	bf 93       	push	r27
    2eae:	ef 93       	push	r30
    2eb0:	ff 93       	push	r31
    2eb2:	e0 91 72 08 	lds	r30, 0x0872	; 0x800872 <p_irq_callback>
    2eb6:	f0 91 73 08 	lds	r31, 0x0873	; 0x800873 <p_irq_callback+0x1>
    2eba:	30 97       	sbiw	r30, 0x00	; 0
    2ebc:	09 f0       	breq	.+2      	; 0x2ec0 <__vector_16+0x34>
    2ebe:	09 95       	icall
    2ec0:	ff 91       	pop	r31
    2ec2:	ef 91       	pop	r30
    2ec4:	bf 91       	pop	r27
    2ec6:	af 91       	pop	r26
    2ec8:	9f 91       	pop	r25
    2eca:	8f 91       	pop	r24
    2ecc:	7f 91       	pop	r23
    2ece:	6f 91       	pop	r22
    2ed0:	5f 91       	pop	r21
    2ed2:	4f 91       	pop	r20
    2ed4:	3f 91       	pop	r19
    2ed6:	2f 91       	pop	r18
    2ed8:	0f 90       	pop	r0
    2eda:	0b be       	out	0x3b, r0	; 59
    2edc:	0f 90       	pop	r0
    2ede:	0f be       	out	0x3f, r0	; 63
    2ee0:	0f 90       	pop	r0
    2ee2:	1f 90       	pop	r1
    2ee4:	18 95       	reti

00002ee6 <__vector_18>:
    2ee6:	1f 92       	push	r1
    2ee8:	0f 92       	push	r0
    2eea:	0f b6       	in	r0, 0x3f	; 63
    2eec:	0f 92       	push	r0
    2eee:	11 24       	eor	r1, r1
    2ef0:	0f 90       	pop	r0
    2ef2:	0f be       	out	0x3f, r0	; 63
    2ef4:	0f 90       	pop	r0
    2ef6:	1f 90       	pop	r1
    2ef8:	18 95       	reti

00002efa <__vector_17>:
    2efa:	1f 92       	push	r1
    2efc:	0f 92       	push	r0
    2efe:	0f b6       	in	r0, 0x3f	; 63
    2f00:	0f 92       	push	r0
    2f02:	11 24       	eor	r1, r1
    2f04:	0f 90       	pop	r0
    2f06:	0f be       	out	0x3f, r0	; 63
    2f08:	0f 90       	pop	r0
    2f0a:	1f 90       	pop	r1
    2f0c:	18 95       	reti

00002f0e <timer1_driver_init>:
    2f0e:	10 92 81 00 	sts	0x0081, r1	; 0x800081 <__TEXT_REGION_LENGTH__+0x7e0081>
    2f12:	08 95       	ret

00002f14 <timer1_driver_configure>:
    2f14:	dc 01       	movw	r26, r24
    2f16:	10 92 81 00 	sts	0x0081, r1	; 0x800081 <__TEXT_REGION_LENGTH__+0x7e0081>
    2f1a:	10 92 89 08 	sts	0x0889, r1	; 0x800889 <TCCRA_backup>
    2f1e:	10 92 88 08 	sts	0x0888, r1	; 0x800888 <TCCRB_backup>
    2f22:	10 92 87 08 	sts	0x0887, r1	; 0x800887 <TCCRC_backup>
    2f26:	10 92 86 08 	sts	0x0886, r1	; 0x800886 <OCRA_backup+0x1>
    2f2a:	10 92 85 08 	sts	0x0885, r1	; 0x800885 <OCRA_backup>
    2f2e:	10 92 84 08 	sts	0x0884, r1	; 0x800884 <OCRB_backup+0x1>
    2f32:	10 92 83 08 	sts	0x0883, r1	; 0x800883 <OCRB_backup>
    2f36:	10 92 82 08 	sts	0x0882, r1	; 0x800882 <TIMSK_backup>
    2f3a:	15 96       	adiw	r26, 0x05	; 5
    2f3c:	8c 91       	ld	r24, X
    2f3e:	15 97       	sbiw	r26, 0x05	; 5
    2f40:	81 11       	cpse	r24, r1
    2f42:	80 c0       	rjmp	.+256    	; 0x3044 <timer1_driver_configure+0x130>
    2f44:	12 96       	adiw	r26, 0x02	; 2
    2f46:	1c 92       	st	X, r1
    2f48:	12 97       	sbiw	r26, 0x02	; 2
    2f4a:	81 e0       	ldi	r24, 0x01	; 1
    2f4c:	80 93 88 08 	sts	0x0888, r24	; 0x800888 <TCCRB_backup>
    2f50:	13 96       	adiw	r26, 0x03	; 3
    2f52:	ec 91       	ld	r30, X
    2f54:	13 97       	sbiw	r26, 0x03	; 3
    2f56:	4e 2f       	mov	r20, r30
    2f58:	50 e0       	ldi	r21, 0x00	; 0
    2f5a:	47 30       	cpi	r20, 0x07	; 7
    2f5c:	51 05       	cpc	r21, r1
    2f5e:	20 f4       	brcc	.+8      	; 0x2f68 <timer1_driver_configure+0x54>
    2f60:	fa 01       	movw	r30, r20
    2f62:	e3 57       	subi	r30, 0x73	; 115
    2f64:	ff 4f       	sbci	r31, 0xFF	; 255
    2f66:	96 c1       	rjmp	.+812    	; 0x3294 <__tablejump2__>
    2f68:	85 e0       	ldi	r24, 0x05	; 5
    2f6a:	80 93 88 08 	sts	0x0888, r24	; 0x800888 <TCCRB_backup>
    2f6e:	88 e0       	ldi	r24, 0x08	; 8
    2f70:	97 e0       	ldi	r25, 0x07	; 7
    2f72:	90 93 86 08 	sts	0x0886, r25	; 0x800886 <OCRA_backup+0x1>
    2f76:	80 93 85 08 	sts	0x0885, r24	; 0x800885 <OCRA_backup>
    2f7a:	40 e9       	ldi	r20, 0x90	; 144
    2f7c:	50 ed       	ldi	r21, 0xD0	; 208
    2f7e:	63 e0       	ldi	r22, 0x03	; 3
    2f80:	70 e0       	ldi	r23, 0x00	; 0
    2f82:	4f c0       	rjmp	.+158    	; 0x3022 <timer1_driver_configure+0x10e>
    2f84:	83 e0       	ldi	r24, 0x03	; 3
    2f86:	80 93 88 08 	sts	0x0888, r24	; 0x800888 <TCCRB_backup>
    2f8a:	83 e7       	ldi	r24, 0x73	; 115
    2f8c:	90 e0       	ldi	r25, 0x00	; 0
    2f8e:	90 93 86 08 	sts	0x0886, r25	; 0x800886 <OCRA_backup+0x1>
    2f92:	80 93 85 08 	sts	0x0885, r24	; 0x800885 <OCRA_backup>
    2f96:	48 ee       	ldi	r20, 0xE8	; 232
    2f98:	53 e0       	ldi	r21, 0x03	; 3
    2f9a:	60 e0       	ldi	r22, 0x00	; 0
    2f9c:	70 e0       	ldi	r23, 0x00	; 0
    2f9e:	41 c0       	rjmp	.+130    	; 0x3022 <timer1_driver_configure+0x10e>
    2fa0:	8b ed       	ldi	r24, 0xDB	; 219
    2fa2:	90 e1       	ldi	r25, 0x10	; 16
    2fa4:	90 93 86 08 	sts	0x0886, r25	; 0x800886 <OCRA_backup+0x1>
    2fa8:	80 93 85 08 	sts	0x0885, r24	; 0x800885 <OCRA_backup>
    2fac:	48 e5       	ldi	r20, 0x58	; 88
    2fae:	52 e0       	ldi	r21, 0x02	; 2
    2fb0:	60 e0       	ldi	r22, 0x00	; 0
    2fb2:	70 e0       	ldi	r23, 0x00	; 0
    2fb4:	36 c0       	rjmp	.+108    	; 0x3022 <timer1_driver_configure+0x10e>
    2fb6:	80 e4       	ldi	r24, 0x40	; 64
    2fb8:	90 e1       	ldi	r25, 0x10	; 16
    2fba:	90 93 86 08 	sts	0x0886, r25	; 0x800886 <OCRA_backup+0x1>
    2fbe:	80 93 85 08 	sts	0x0885, r24	; 0x800885 <OCRA_backup>
    2fc2:	40 e3       	ldi	r20, 0x30	; 48
    2fc4:	52 e0       	ldi	r21, 0x02	; 2
    2fc6:	60 e0       	ldi	r22, 0x00	; 0
    2fc8:	70 e0       	ldi	r23, 0x00	; 0
    2fca:	2b c0       	rjmp	.+86     	; 0x3022 <timer1_driver_configure+0x10e>
    2fcc:	8c e1       	ldi	r24, 0x1C	; 28
    2fce:	9f e0       	ldi	r25, 0x0F	; 15
    2fd0:	90 93 86 08 	sts	0x0886, r25	; 0x800886 <OCRA_backup+0x1>
    2fd4:	80 93 85 08 	sts	0x0885, r24	; 0x800885 <OCRA_backup>
    2fd8:	4f e0       	ldi	r20, 0x0F	; 15
    2fda:	52 e0       	ldi	r21, 0x02	; 2
    2fdc:	60 e0       	ldi	r22, 0x00	; 0
    2fde:	70 e0       	ldi	r23, 0x00	; 0
    2fe0:	20 c0       	rjmp	.+64     	; 0x3022 <timer1_driver_configure+0x10e>
    2fe2:	89 e3       	ldi	r24, 0x39	; 57
    2fe4:	92 e0       	ldi	r25, 0x02	; 2
    2fe6:	90 93 86 08 	sts	0x0886, r25	; 0x800886 <OCRA_backup+0x1>
    2fea:	80 93 85 08 	sts	0x0885, r24	; 0x800885 <OCRA_backup>
    2fee:	40 e5       	ldi	r20, 0x50	; 80
    2ff0:	50 e0       	ldi	r21, 0x00	; 0
    2ff2:	60 e0       	ldi	r22, 0x00	; 0
    2ff4:	70 e0       	ldi	r23, 0x00	; 0
    2ff6:	15 c0       	rjmp	.+42     	; 0x3022 <timer1_driver_configure+0x10e>
    2ff8:	8d e1       	ldi	r24, 0x1D	; 29
    2ffa:	91 e0       	ldi	r25, 0x01	; 1
    2ffc:	90 93 86 08 	sts	0x0886, r25	; 0x800886 <OCRA_backup+0x1>
    3000:	80 93 85 08 	sts	0x0885, r24	; 0x800885 <OCRA_backup>
    3004:	48 e2       	ldi	r20, 0x28	; 40
    3006:	50 e0       	ldi	r21, 0x00	; 0
    3008:	60 e0       	ldi	r22, 0x00	; 0
    300a:	70 e0       	ldi	r23, 0x00	; 0
    300c:	0a c0       	rjmp	.+20     	; 0x3022 <timer1_driver_configure+0x10e>
    300e:	87 e4       	ldi	r24, 0x47	; 71
    3010:	90 e0       	ldi	r25, 0x00	; 0
    3012:	90 93 86 08 	sts	0x0886, r25	; 0x800886 <OCRA_backup+0x1>
    3016:	80 93 85 08 	sts	0x0885, r24	; 0x800885 <OCRA_backup>
    301a:	4a e0       	ldi	r20, 0x0A	; 10
    301c:	50 e0       	ldi	r21, 0x00	; 0
    301e:	60 e0       	ldi	r22, 0x00	; 0
    3020:	70 e0       	ldi	r23, 0x00	; 0
    3022:	40 93 7a 08 	sts	0x087A, r20	; 0x80087a <interval_time_us>
    3026:	50 93 7b 08 	sts	0x087B, r21	; 0x80087b <interval_time_us+0x1>
    302a:	60 93 7c 08 	sts	0x087C, r22	; 0x80087c <interval_time_us+0x2>
    302e:	70 93 7d 08 	sts	0x087D, r23	; 0x80087d <interval_time_us+0x3>
    3032:	80 91 88 08 	lds	r24, 0x0888	; 0x800888 <TCCRB_backup>
    3036:	88 60       	ori	r24, 0x08	; 8
    3038:	80 93 88 08 	sts	0x0888, r24	; 0x800888 <TCCRB_backup>
    303c:	82 e2       	ldi	r24, 0x22	; 34
    303e:	80 93 82 08 	sts	0x0882, r24	; 0x800882 <TIMSK_backup>
    3042:	23 c0       	rjmp	.+70     	; 0x308a <timer1_driver_configure+0x176>
    3044:	81 30       	cpi	r24, 0x01	; 1
    3046:	09 f5       	brne	.+66     	; 0x308a <timer1_driver_configure+0x176>
    3048:	83 e4       	ldi	r24, 0x43	; 67
    304a:	80 93 89 08 	sts	0x0889, r24	; 0x800889 <TCCRA_backup>
    304e:	89 e0       	ldi	r24, 0x09	; 9
    3050:	80 93 88 08 	sts	0x0888, r24	; 0x800888 <TCCRB_backup>
    3054:	12 96       	adiw	r26, 0x02	; 2
    3056:	8c 91       	ld	r24, X
    3058:	12 97       	sbiw	r26, 0x02	; 2
    305a:	83 30       	cpi	r24, 0x03	; 3
    305c:	69 f0       	breq	.+26     	; 0x3078 <timer1_driver_configure+0x164>
    305e:	28 f4       	brcc	.+10     	; 0x306a <timer1_driver_configure+0x156>
    3060:	81 30       	cpi	r24, 0x01	; 1
    3062:	99 f4       	brne	.+38     	; 0x308a <timer1_driver_configure+0x176>
    3064:	86 e6       	ldi	r24, 0x66	; 102
    3066:	90 e0       	ldi	r25, 0x00	; 0
    3068:	0c c0       	rjmp	.+24     	; 0x3082 <timer1_driver_configure+0x16e>
    306a:	84 30       	cpi	r24, 0x04	; 4
    306c:	41 f0       	breq	.+16     	; 0x307e <timer1_driver_configure+0x16a>
    306e:	85 30       	cpi	r24, 0x05	; 5
    3070:	61 f4       	brne	.+24     	; 0x308a <timer1_driver_configure+0x176>
    3072:	88 e5       	ldi	r24, 0x58	; 88
    3074:	90 e0       	ldi	r25, 0x00	; 0
    3076:	05 c0       	rjmp	.+10     	; 0x3082 <timer1_driver_configure+0x16e>
    3078:	81 e6       	ldi	r24, 0x61	; 97
    307a:	90 e0       	ldi	r25, 0x00	; 0
    307c:	02 c0       	rjmp	.+4      	; 0x3082 <timer1_driver_configure+0x16e>
    307e:	8b e5       	ldi	r24, 0x5B	; 91
    3080:	90 e0       	ldi	r25, 0x00	; 0
    3082:	90 93 86 08 	sts	0x0886, r25	; 0x800886 <OCRA_backup+0x1>
    3086:	80 93 85 08 	sts	0x0885, r24	; 0x800885 <OCRA_backup>
    308a:	8d 91       	ld	r24, X+
    308c:	9c 91       	ld	r25, X
    308e:	00 97       	sbiw	r24, 0x00	; 0
    3090:	29 f0       	breq	.+10     	; 0x309c <timer1_driver_configure+0x188>
    3092:	90 93 79 08 	sts	0x0879, r25	; 0x800879 <p_irq_callback+0x1>
    3096:	80 93 78 08 	sts	0x0878, r24	; 0x800878 <p_irq_callback>
    309a:	08 95       	ret
    309c:	10 92 79 08 	sts	0x0879, r1	; 0x800879 <p_irq_callback+0x1>
    30a0:	10 92 78 08 	sts	0x0878, r1	; 0x800878 <p_irq_callback>
    30a4:	08 95       	ret

000030a6 <timer1_driver_start>:
    30a6:	60 93 7e 08 	sts	0x087E, r22	; 0x80087e <run_time_us>
    30aa:	70 93 7f 08 	sts	0x087F, r23	; 0x80087f <run_time_us+0x1>
    30ae:	80 93 80 08 	sts	0x0880, r24	; 0x800880 <run_time_us+0x2>
    30b2:	90 93 81 08 	sts	0x0881, r25	; 0x800881 <run_time_us+0x3>
    30b6:	10 92 84 00 	sts	0x0084, r1	; 0x800084 <__TEXT_REGION_LENGTH__+0x7e0084>
    30ba:	10 92 85 00 	sts	0x0085, r1	; 0x800085 <__TEXT_REGION_LENGTH__+0x7e0085>
    30be:	80 91 82 08 	lds	r24, 0x0882	; 0x800882 <TIMSK_backup>
    30c2:	80 93 6f 00 	sts	0x006F, r24	; 0x80006f <__TEXT_REGION_LENGTH__+0x7e006f>
    30c6:	80 91 86 08 	lds	r24, 0x0886	; 0x800886 <OCRA_backup+0x1>
    30ca:	80 93 89 00 	sts	0x0089, r24	; 0x800089 <__TEXT_REGION_LENGTH__+0x7e0089>
    30ce:	80 91 85 08 	lds	r24, 0x0885	; 0x800885 <OCRA_backup>
    30d2:	80 93 88 00 	sts	0x0088, r24	; 0x800088 <__TEXT_REGION_LENGTH__+0x7e0088>
    30d6:	80 91 84 08 	lds	r24, 0x0884	; 0x800884 <OCRB_backup+0x1>
    30da:	80 93 8b 00 	sts	0x008B, r24	; 0x80008b <__TEXT_REGION_LENGTH__+0x7e008b>
    30de:	80 91 83 08 	lds	r24, 0x0883	; 0x800883 <OCRB_backup>
    30e2:	80 93 8a 00 	sts	0x008A, r24	; 0x80008a <__TEXT_REGION_LENGTH__+0x7e008a>
    30e6:	80 91 89 08 	lds	r24, 0x0889	; 0x800889 <TCCRA_backup>
    30ea:	80 93 80 00 	sts	0x0080, r24	; 0x800080 <__TEXT_REGION_LENGTH__+0x7e0080>
    30ee:	80 91 88 08 	lds	r24, 0x0888	; 0x800888 <TCCRB_backup>
    30f2:	80 93 81 00 	sts	0x0081, r24	; 0x800081 <__TEXT_REGION_LENGTH__+0x7e0081>
    30f6:	80 91 87 08 	lds	r24, 0x0887	; 0x800887 <TCCRC_backup>
    30fa:	80 93 82 00 	sts	0x0082, r24	; 0x800082 <__TEXT_REGION_LENGTH__+0x7e0082>
    30fe:	08 95       	ret

00003100 <timer1_driver_stop>:
    3100:	10 92 81 00 	sts	0x0081, r1	; 0x800081 <__TEXT_REGION_LENGTH__+0x7e0081>
    3104:	08 95       	ret

00003106 <__vector_13>:
    3106:	1f 92       	push	r1
    3108:	0f 92       	push	r0
    310a:	0f b6       	in	r0, 0x3f	; 63
    310c:	0f 92       	push	r0
    310e:	11 24       	eor	r1, r1
    3110:	0b b6       	in	r0, 0x3b	; 59
    3112:	0f 92       	push	r0
    3114:	2f 93       	push	r18
    3116:	3f 93       	push	r19
    3118:	4f 93       	push	r20
    311a:	5f 93       	push	r21
    311c:	6f 93       	push	r22
    311e:	7f 93       	push	r23
    3120:	8f 93       	push	r24
    3122:	9f 93       	push	r25
    3124:	af 93       	push	r26
    3126:	bf 93       	push	r27
    3128:	ef 93       	push	r30
    312a:	ff 93       	push	r31
    312c:	80 91 7e 08 	lds	r24, 0x087E	; 0x80087e <run_time_us>
    3130:	90 91 7f 08 	lds	r25, 0x087F	; 0x80087f <run_time_us+0x1>
    3134:	a0 91 80 08 	lds	r26, 0x0880	; 0x800880 <run_time_us+0x2>
    3138:	b0 91 81 08 	lds	r27, 0x0881	; 0x800881 <run_time_us+0x3>
    313c:	8f 3f       	cpi	r24, 0xFF	; 255
    313e:	2f ef       	ldi	r18, 0xFF	; 255
    3140:	92 07       	cpc	r25, r18
    3142:	a2 07       	cpc	r26, r18
    3144:	b2 07       	cpc	r27, r18
    3146:	71 f1       	breq	.+92     	; 0x31a4 <__vector_13+0x9e>
    3148:	40 91 7a 08 	lds	r20, 0x087A	; 0x80087a <interval_time_us>
    314c:	50 91 7b 08 	lds	r21, 0x087B	; 0x80087b <interval_time_us+0x1>
    3150:	60 91 7c 08 	lds	r22, 0x087C	; 0x80087c <interval_time_us+0x2>
    3154:	70 91 7d 08 	lds	r23, 0x087D	; 0x80087d <interval_time_us+0x3>
    3158:	48 17       	cp	r20, r24
    315a:	59 07       	cpc	r21, r25
    315c:	6a 07       	cpc	r22, r26
    315e:	7b 07       	cpc	r23, r27
    3160:	68 f4       	brcc	.+26     	; 0x317c <__vector_13+0x76>
    3162:	84 1b       	sub	r24, r20
    3164:	95 0b       	sbc	r25, r21
    3166:	a6 0b       	sbc	r26, r22
    3168:	b7 0b       	sbc	r27, r23
    316a:	80 93 7e 08 	sts	0x087E, r24	; 0x80087e <run_time_us>
    316e:	90 93 7f 08 	sts	0x087F, r25	; 0x80087f <run_time_us+0x1>
    3172:	a0 93 80 08 	sts	0x0880, r26	; 0x800880 <run_time_us+0x2>
    3176:	b0 93 81 08 	sts	0x0881, r27	; 0x800881 <run_time_us+0x3>
    317a:	08 c0       	rjmp	.+16     	; 0x318c <__vector_13+0x86>
    317c:	10 92 7e 08 	sts	0x087E, r1	; 0x80087e <run_time_us>
    3180:	10 92 7f 08 	sts	0x087F, r1	; 0x80087f <run_time_us+0x1>
    3184:	10 92 80 08 	sts	0x0880, r1	; 0x800880 <run_time_us+0x2>
    3188:	10 92 81 08 	sts	0x0881, r1	; 0x800881 <run_time_us+0x3>
    318c:	80 91 7e 08 	lds	r24, 0x087E	; 0x80087e <run_time_us>
    3190:	90 91 7f 08 	lds	r25, 0x087F	; 0x80087f <run_time_us+0x1>
    3194:	a0 91 80 08 	lds	r26, 0x0880	; 0x800880 <run_time_us+0x2>
    3198:	b0 91 81 08 	lds	r27, 0x0881	; 0x800881 <run_time_us+0x3>
    319c:	89 2b       	or	r24, r25
    319e:	8a 2b       	or	r24, r26
    31a0:	8b 2b       	or	r24, r27
    31a2:	39 f4       	brne	.+14     	; 0x31b2 <__vector_13+0xac>
    31a4:	e0 91 78 08 	lds	r30, 0x0878	; 0x800878 <p_irq_callback>
    31a8:	f0 91 79 08 	lds	r31, 0x0879	; 0x800879 <p_irq_callback+0x1>
    31ac:	30 97       	sbiw	r30, 0x00	; 0
    31ae:	09 f0       	breq	.+2      	; 0x31b2 <__vector_13+0xac>
    31b0:	09 95       	icall
    31b2:	ff 91       	pop	r31
    31b4:	ef 91       	pop	r30
    31b6:	bf 91       	pop	r27
    31b8:	af 91       	pop	r26
    31ba:	9f 91       	pop	r25
    31bc:	8f 91       	pop	r24
    31be:	7f 91       	pop	r23
    31c0:	6f 91       	pop	r22
    31c2:	5f 91       	pop	r21
    31c4:	4f 91       	pop	r20
    31c6:	3f 91       	pop	r19
    31c8:	2f 91       	pop	r18
    31ca:	0f 90       	pop	r0
    31cc:	0b be       	out	0x3b, r0	; 59
    31ce:	0f 90       	pop	r0
    31d0:	0f be       	out	0x3f, r0	; 63
    31d2:	0f 90       	pop	r0
    31d4:	1f 90       	pop	r1
    31d6:	18 95       	reti

000031d8 <__vector_15>:
    31d8:	1f 92       	push	r1
    31da:	0f 92       	push	r0
    31dc:	0f b6       	in	r0, 0x3f	; 63
    31de:	0f 92       	push	r0
    31e0:	11 24       	eor	r1, r1
    31e2:	0f 90       	pop	r0
    31e4:	0f be       	out	0x3f, r0	; 63
    31e6:	0f 90       	pop	r0
    31e8:	1f 90       	pop	r1
    31ea:	18 95       	reti

000031ec <__vector_14>:
    31ec:	1f 92       	push	r1
    31ee:	0f 92       	push	r0
    31f0:	0f b6       	in	r0, 0x3f	; 63
    31f2:	0f 92       	push	r0
    31f4:	11 24       	eor	r1, r1
    31f6:	0f 90       	pop	r0
    31f8:	0f be       	out	0x3f, r0	; 63
    31fa:	0f 90       	pop	r0
    31fc:	1f 90       	pop	r1
    31fe:	18 95       	reti

00003200 <sensor_initialization>:
    3200:	08 95       	ret

00003202 <button_initialization>:
    3202:	0c 94 65 0d 	jmp	0x1aca	; 0x1aca <io_input_controller_init>
    3206:	08 95       	ret

00003208 <output_initialization>:
    3208:	08 95       	ret

0000320a <protocol_initialization>:
    320a:	80 91 91 03 	lds	r24, 0x0391	; 0x800391 <i_system+0x28>
    320e:	90 91 92 03 	lds	r25, 0x0392	; 0x800392 <i_system+0x29>
    3212:	0c 94 b0 0c 	jmp	0x1960	; 0x1960 <rpi_protocol_init>

00003216 <command_initialization>:
    3216:	0e 94 72 0e 	call	0x1ce4	; 0x1ce4 <command_controller_init>
    321a:	0c 94 c8 0e 	jmp	0x1d90	; 0x1d90 <rpi_cmd_handler_init>

0000321e <task_initialization>:
    321e:	0e 94 d3 03 	call	0x7a6	; 0x7a6 <mcu_task_controller_init>
    3222:	80 ef       	ldi	r24, 0xF0	; 240
    3224:	92 e0       	ldi	r25, 0x02	; 2
    3226:	0e 94 dc 03 	call	0x7b8	; 0x7b8 <mcu_task_controller_register_task>
    322a:	0e 94 1a 06 	call	0xc34	; 0xc34 <ir_remote_app_task_init>
    322e:	8e eb       	ldi	r24, 0xBE	; 190
    3230:	92 e0       	ldi	r25, 0x02	; 2
    3232:	0e 94 dc 03 	call	0x7b8	; 0x7b8 <mcu_task_controller_register_task>
    3236:	87 ed       	ldi	r24, 0xD7	; 215
    3238:	92 e0       	ldi	r25, 0x02	; 2
    323a:	0c 94 dc 03 	jmp	0x7b8	; 0x7b8 <mcu_task_controller_register_task>

0000323e <system_initialization>:
    323e:	cf 93       	push	r28
    3240:	df 93       	push	r29
    3242:	15 d9       	rcall	.-3542   	; 0x246e <gpio_driver_init>
    3244:	61 d8       	rcall	.-3902   	; 0x2308 <clock_driver_init>
    3246:	0e 94 af 10 	call	0x215e	; 0x215e <rtc_driver_init>
    324a:	c9 e6       	ldi	r28, 0x69	; 105
    324c:	d3 e0       	ldi	r29, 0x03	; 3
    324e:	ec a1       	ldd	r30, Y+36	; 0x24
    3250:	fd a1       	ldd	r31, Y+37	; 0x25
    3252:	01 80       	ldd	r0, Z+1	; 0x01
    3254:	f2 81       	ldd	r31, Z+2	; 0x02
    3256:	e0 2d       	mov	r30, r0
    3258:	09 95       	icall
    325a:	e8 a5       	ldd	r30, Y+40	; 0x28
    325c:	f9 a5       	ldd	r31, Y+41	; 0x29
    325e:	01 80       	ldd	r0, Z+1	; 0x01
    3260:	f2 81       	ldd	r31, Z+2	; 0x02
    3262:	e0 2d       	mov	r30, r0
    3264:	09 95       	icall
    3266:	df 91       	pop	r29
    3268:	cf 91       	pop	r28
    326a:	08 95       	ret

0000326c <power_initialization>:
    326c:	08 95       	ret

0000326e <initialization>:
    326e:	99 e2       	ldi	r25, 0x29	; 41
    3270:	88 e1       	ldi	r24, 0x18	; 24
    3272:	0f b6       	in	r0, 0x3f	; 63
    3274:	f8 94       	cli
    3276:	a8 95       	wdr
    3278:	80 93 60 00 	sts	0x0060, r24	; 0x800060 <__TEXT_REGION_LENGTH__+0x7e0060>
    327c:	0f be       	out	0x3f, r0	; 63
    327e:	90 93 60 00 	sts	0x0060, r25	; 0x800060 <__TEXT_REGION_LENGTH__+0x7e0060>
    3282:	a8 95       	wdr
    3284:	dc df       	rcall	.-72     	; 0x323e <system_initialization>
    3286:	f2 df       	rcall	.-28     	; 0x326c <power_initialization>
    3288:	bb df       	rcall	.-138    	; 0x3200 <sensor_initialization>
    328a:	bb df       	rcall	.-138    	; 0x3202 <button_initialization>
    328c:	bd df       	rcall	.-134    	; 0x3208 <output_initialization>
    328e:	c7 df       	rcall	.-114    	; 0x321e <task_initialization>
    3290:	bc df       	rcall	.-136    	; 0x320a <protocol_initialization>
    3292:	c1 cf       	rjmp	.-126    	; 0x3216 <command_initialization>

00003294 <__tablejump2__>:
    3294:	ee 0f       	add	r30, r30
    3296:	ff 1f       	adc	r31, r31
    3298:	00 24       	eor	r0, r0
    329a:	00 1c       	adc	r0, r0
    329c:	0b be       	out	0x3b, r0	; 59
    329e:	07 90       	elpm	r0, Z+
    32a0:	f6 91       	elpm	r31, Z
    32a2:	e0 2d       	mov	r30, r0
    32a4:	09 94       	ijmp

000032a6 <__prologue_saves__>:
    32a6:	2f 92       	push	r2
    32a8:	3f 92       	push	r3
    32aa:	4f 92       	push	r4
    32ac:	5f 92       	push	r5
    32ae:	6f 92       	push	r6
    32b0:	7f 92       	push	r7
    32b2:	8f 92       	push	r8
    32b4:	9f 92       	push	r9
    32b6:	af 92       	push	r10
    32b8:	bf 92       	push	r11
    32ba:	cf 92       	push	r12
    32bc:	df 92       	push	r13
    32be:	ef 92       	push	r14
    32c0:	ff 92       	push	r15
    32c2:	0f 93       	push	r16
    32c4:	1f 93       	push	r17
    32c6:	cf 93       	push	r28
    32c8:	df 93       	push	r29
    32ca:	cd b7       	in	r28, 0x3d	; 61
    32cc:	de b7       	in	r29, 0x3e	; 62
    32ce:	ca 1b       	sub	r28, r26
    32d0:	db 0b       	sbc	r29, r27
    32d2:	0f b6       	in	r0, 0x3f	; 63
    32d4:	f8 94       	cli
    32d6:	de bf       	out	0x3e, r29	; 62
    32d8:	0f be       	out	0x3f, r0	; 63
    32da:	cd bf       	out	0x3d, r28	; 61
    32dc:	09 94       	ijmp

000032de <__epilogue_restores__>:
    32de:	2a 88       	ldd	r2, Y+18	; 0x12
    32e0:	39 88       	ldd	r3, Y+17	; 0x11
    32e2:	48 88       	ldd	r4, Y+16	; 0x10
    32e4:	5f 84       	ldd	r5, Y+15	; 0x0f
    32e6:	6e 84       	ldd	r6, Y+14	; 0x0e
    32e8:	7d 84       	ldd	r7, Y+13	; 0x0d
    32ea:	8c 84       	ldd	r8, Y+12	; 0x0c
    32ec:	9b 84       	ldd	r9, Y+11	; 0x0b
    32ee:	aa 84       	ldd	r10, Y+10	; 0x0a
    32f0:	b9 84       	ldd	r11, Y+9	; 0x09
    32f2:	c8 84       	ldd	r12, Y+8	; 0x08
    32f4:	df 80       	ldd	r13, Y+7	; 0x07
    32f6:	ee 80       	ldd	r14, Y+6	; 0x06
    32f8:	fd 80       	ldd	r15, Y+5	; 0x05
    32fa:	0c 81       	ldd	r16, Y+4	; 0x04
    32fc:	1b 81       	ldd	r17, Y+3	; 0x03
    32fe:	aa 81       	ldd	r26, Y+2	; 0x02
    3300:	b9 81       	ldd	r27, Y+1	; 0x01
    3302:	ce 0f       	add	r28, r30
    3304:	d1 1d       	adc	r29, r1
    3306:	0f b6       	in	r0, 0x3f	; 63
    3308:	f8 94       	cli
    330a:	de bf       	out	0x3e, r29	; 62
    330c:	0f be       	out	0x3f, r0	; 63
    330e:	cd bf       	out	0x3d, r28	; 61
    3310:	ed 01       	movw	r28, r26
    3312:	08 95       	ret

00003314 <_exit>:
    3314:	f8 94       	cli

00003316 <__stop_program>:
    3316:	ff cf       	rjmp	.-2      	; 0x3316 <__stop_program>
