
obj/spiHelper.elf:     file format elf32-littlearm

Sections:
Idx Name          Size      VMA       LMA       File off  Algn
  0 .interp       00000019  00010154  00010154  00000154  2**0
                  CONTENTS, ALLOC, LOAD, READONLY, DATA
  1 .note.ABI-tag 00000020  00010170  00010170  00000170  2**2
                  CONTENTS, ALLOC, LOAD, READONLY, DATA
  2 .note.gnu.build-id 00000024  00010190  00010190  00000190  2**2
                  CONTENTS, ALLOC, LOAD, READONLY, DATA
  3 .gnu.hash     0000015c  000101b4  000101b4  000001b4  2**2
                  CONTENTS, ALLOC, LOAD, READONLY, DATA
  4 .dynsym       000002a0  00010310  00010310  00000310  2**2
                  CONTENTS, ALLOC, LOAD, READONLY, DATA
  5 .dynstr       000001a2  000105b0  000105b0  000005b0  2**0
                  CONTENTS, ALLOC, LOAD, READONLY, DATA
  6 .gnu.version  00000054  00010752  00010752  00000752  2**1
                  CONTENTS, ALLOC, LOAD, READONLY, DATA
  7 .gnu.version_r 00000040  000107a8  000107a8  000007a8  2**2
                  CONTENTS, ALLOC, LOAD, READONLY, DATA
  8 .rel.dyn      00000008  000107e8  000107e8  000007e8  2**2
                  CONTENTS, ALLOC, LOAD, READONLY, DATA
  9 .rel.plt      00000100  000107f0  000107f0  000007f0  2**2
                  CONTENTS, ALLOC, LOAD, READONLY, DATA
 10 .init         0000000c  000108f0  000108f0  000008f0  2**2
                  CONTENTS, ALLOC, LOAD, READONLY, CODE
 11 .plt          00000194  000108fc  000108fc  000008fc  2**2
                  CONTENTS, ALLOC, LOAD, READONLY, CODE
 12 .text         00005a64  00010a90  00010a90  00000a90  2**3
                  CONTENTS, ALLOC, LOAD, READONLY, CODE
 13 .fini         00000008  000164f4  000164f4  000064f4  2**2
                  CONTENTS, ALLOC, LOAD, READONLY, CODE
 14 .rodata       00000666  000164fc  000164fc  000064fc  2**2
                  CONTENTS, ALLOC, LOAD, READONLY, DATA
 15 .ARM.exidx    00000008  00016b64  00016b64  00006b64  2**2
                  CONTENTS, ALLOC, LOAD, READONLY, DATA
 16 .eh_frame     00000004  00016b6c  00016b6c  00006b6c  2**2
                  CONTENTS, ALLOC, LOAD, READONLY, DATA
 17 .init_array   00000004  00026f00  00026f00  00006f00  2**2
                  CONTENTS, ALLOC, LOAD, DATA
 18 .fini_array   00000004  00026f04  00026f04  00006f04  2**2
                  CONTENTS, ALLOC, LOAD, DATA
 19 .dynamic      000000f8  00026f08  00026f08  00006f08  2**2
                  CONTENTS, ALLOC, LOAD, DATA
 20 .got          00000090  00027000  00027000  00007000  2**2
                  CONTENTS, ALLOC, LOAD, DATA
 21 .data         000002a4  00027090  00027090  00007090  2**2
                  CONTENTS, ALLOC, LOAD, DATA
 22 .bss          00000574  00027334  00027334  00007334  2**2
                  ALLOC
 23 .comment      00000023  00000000  00000000  00007334  2**0
                  CONTENTS, READONLY
 24 .ARM.attributes 0000002f  00000000  00000000  00007357  2**0
                  CONTENTS, READONLY

Disassembly of section .init:

000108f0 <_init>:
   108f0:	e92d4008 	push	{r3, lr}
   108f4:	eb00009c 	bl	10b6c <call_weak_fn>
   108f8:	e8bd8008 	pop	{r3, pc}

Disassembly of section .plt:

000108fc <.plt>:
   108fc:	e52de004 	push	{lr}		; (str lr, [sp, #-4]!)
   10900:	e59fe004 	ldr	lr, [pc, #4]	; 1090c <.plt+0x10>
   10904:	e08fe00e 	add	lr, pc, lr
   10908:	e5bef008 	ldr	pc, [lr, #8]!
   1090c:	000166f4 	.word	0x000166f4

00010910 <printf@plt>:
   10910:	e28fc600 	add	ip, pc, #0, 12
   10914:	e28cca16 	add	ip, ip, #90112	; 0x16000
   10918:	e5bcf6f4 	ldr	pc, [ip, #1780]!	; 0x6f4

0001091c <fopen@plt>:
   1091c:	e28fc600 	add	ip, pc, #0, 12
   10920:	e28cca16 	add	ip, ip, #90112	; 0x16000
   10924:	e5bcf6ec 	ldr	pc, [ip, #1772]!	; 0x6ec

00010928 <digitalRead@plt>:
   10928:	e28fc600 	add	ip, pc, #0, 12
   1092c:	e28cca16 	add	ip, ip, #90112	; 0x16000
   10930:	e5bcf6e4 	ldr	pc, [ip, #1764]!	; 0x6e4

00010934 <memmove@plt>:
   10934:	e28fc600 	add	ip, pc, #0, 12
   10938:	e28cca16 	add	ip, ip, #90112	; 0x16000
   1093c:	e5bcf6dc 	ldr	pc, [ip, #1756]!	; 0x6dc

00010940 <memcpy@plt>:
   10940:	e28fc600 	add	ip, pc, #0, 12
   10944:	e28cca16 	add	ip, ip, #90112	; 0x16000
   10948:	e5bcf6d4 	ldr	pc, [ip, #1748]!	; 0x6d4

0001094c <digitalWrite@plt>:
   1094c:	e28fc600 	add	ip, pc, #0, 12
   10950:	e28cca16 	add	ip, ip, #90112	; 0x16000
   10954:	e5bcf6cc 	ldr	pc, [ip, #1740]!	; 0x6cc

00010958 <memcmp@plt>:
   10958:	e28fc600 	add	ip, pc, #0, 12
   1095c:	e28cca16 	add	ip, ip, #90112	; 0x16000
   10960:	e5bcf6c4 	ldr	pc, [ip, #1732]!	; 0x6c4

00010964 <__xstat@plt>:
   10964:	e28fc600 	add	ip, pc, #0, 12
   10968:	e28cca16 	add	ip, ip, #90112	; 0x16000
   1096c:	e5bcf6bc 	ldr	pc, [ip, #1724]!	; 0x6bc

00010970 <ioctl@plt>:
   10970:	e28fc600 	add	ip, pc, #0, 12
   10974:	e28cca16 	add	ip, ip, #90112	; 0x16000
   10978:	e5bcf6b4 	ldr	pc, [ip, #1716]!	; 0x6b4

0001097c <usleep@plt>:
   1097c:	e28fc600 	add	ip, pc, #0, 12
   10980:	e28cca16 	add	ip, ip, #90112	; 0x16000
   10984:	e5bcf6ac 	ldr	pc, [ip, #1708]!	; 0x6ac

00010988 <puts@plt>:
   10988:	e28fc600 	add	ip, pc, #0, 12
   1098c:	e28cca16 	add	ip, ip, #90112	; 0x16000
   10990:	e5bcf6a4 	ldr	pc, [ip, #1700]!	; 0x6a4

00010994 <__libc_start_main@plt>:
   10994:	e28fc600 	add	ip, pc, #0, 12
   10998:	e28cca16 	add	ip, ip, #90112	; 0x16000
   1099c:	e5bcf69c 	ldr	pc, [ip, #1692]!	; 0x69c

000109a0 <__gmon_start__@plt>:
   109a0:	e28fc600 	add	ip, pc, #0, 12
   109a4:	e28cca16 	add	ip, ip, #90112	; 0x16000
   109a8:	e5bcf694 	ldr	pc, [ip, #1684]!	; 0x694

000109ac <open@plt>:
   109ac:	e28fc600 	add	ip, pc, #0, 12
   109b0:	e28cca16 	add	ip, ip, #90112	; 0x16000
   109b4:	e5bcf68c 	ldr	pc, [ip, #1676]!	; 0x68c

000109b8 <rename@plt>:
   109b8:	e28fc600 	add	ip, pc, #0, 12
   109bc:	e28cca16 	add	ip, ip, #90112	; 0x16000
   109c0:	e5bcf684 	ldr	pc, [ip, #1668]!	; 0x684

000109c4 <__ctype_b_loc@plt>:
   109c4:	e28fc600 	add	ip, pc, #0, 12
   109c8:	e28cca16 	add	ip, ip, #90112	; 0x16000
   109cc:	e5bcf67c 	ldr	pc, [ip, #1660]!	; 0x67c

000109d0 <feof@plt>:
   109d0:	e28fc600 	add	ip, pc, #0, 12
   109d4:	e28cca16 	add	ip, ip, #90112	; 0x16000
   109d8:	e5bcf674 	ldr	pc, [ip, #1652]!	; 0x674

000109dc <strlen@plt>:
   109dc:	e28fc600 	add	ip, pc, #0, 12
   109e0:	e28cca16 	add	ip, ip, #90112	; 0x16000
   109e4:	e5bcf66c 	ldr	pc, [ip, #1644]!	; 0x66c

000109e8 <fprintf@plt>:
   109e8:	e28fc600 	add	ip, pc, #0, 12
   109ec:	e28cca16 	add	ip, ip, #90112	; 0x16000
   109f0:	e5bcf664 	ldr	pc, [ip, #1636]!	; 0x664

000109f4 <snprintf@plt>:
   109f4:	e28fc600 	add	ip, pc, #0, 12
   109f8:	e28cca16 	add	ip, ip, #90112	; 0x16000
   109fc:	e5bcf65c 	ldr	pc, [ip, #1628]!	; 0x65c

00010a00 <memset@plt>:
   10a00:	e28fc600 	add	ip, pc, #0, 12
   10a04:	e28cca16 	add	ip, ip, #90112	; 0x16000
   10a08:	e5bcf654 	ldr	pc, [ip, #1620]!	; 0x654

00010a0c <putchar@plt>:
   10a0c:	e28fc600 	add	ip, pc, #0, 12
   10a10:	e28cca16 	add	ip, ip, #90112	; 0x16000
   10a14:	e5bcf64c 	ldr	pc, [ip, #1612]!	; 0x64c

00010a18 <pinMode@plt>:
   10a18:	e28fc600 	add	ip, pc, #0, 12
   10a1c:	e28cca16 	add	ip, ip, #90112	; 0x16000
   10a20:	e5bcf644 	ldr	pc, [ip, #1604]!	; 0x644

00010a24 <wiringPiSetup@plt>:
   10a24:	e28fc600 	add	ip, pc, #0, 12
   10a28:	e28cca16 	add	ip, ip, #90112	; 0x16000
   10a2c:	e5bcf63c 	ldr	pc, [ip, #1596]!	; 0x63c

00010a30 <pullUpDnControl@plt>:
   10a30:	e28fc600 	add	ip, pc, #0, 12
   10a34:	e28cca16 	add	ip, ip, #90112	; 0x16000
   10a38:	e5bcf634 	ldr	pc, [ip, #1588]!	; 0x634

00010a3c <fclose@plt>:
   10a3c:	e28fc600 	add	ip, pc, #0, 12
   10a40:	e28cca16 	add	ip, ip, #90112	; 0x16000
   10a44:	e5bcf62c 	ldr	pc, [ip, #1580]!	; 0x62c

00010a48 <remove@plt>:
   10a48:	e28fc600 	add	ip, pc, #0, 12
   10a4c:	e28cca16 	add	ip, ip, #90112	; 0x16000
   10a50:	e5bcf624 	ldr	pc, [ip, #1572]!	; 0x624

00010a54 <atoi@plt>:
   10a54:	e28fc600 	add	ip, pc, #0, 12
   10a58:	e28cca16 	add	ip, ip, #90112	; 0x16000
   10a5c:	e5bcf61c 	ldr	pc, [ip, #1564]!	; 0x61c

00010a60 <clock_gettime@plt>:
   10a60:	e28fc600 	add	ip, pc, #0, 12
   10a64:	e28cca16 	add	ip, ip, #90112	; 0x16000
   10a68:	e5bcf614 	ldr	pc, [ip, #1556]!	; 0x614

00010a6c <abort@plt>:
   10a6c:	e28fc600 	add	ip, pc, #0, 12
   10a70:	e28cca16 	add	ip, ip, #90112	; 0x16000
   10a74:	e5bcf60c 	ldr	pc, [ip, #1548]!	; 0x60c

00010a78 <getc@plt>:
   10a78:	e28fc600 	add	ip, pc, #0, 12
   10a7c:	e28cca16 	add	ip, ip, #90112	; 0x16000
   10a80:	e5bcf604 	ldr	pc, [ip, #1540]!	; 0x604

00010a84 <close@plt>:
   10a84:	e28fc600 	add	ip, pc, #0, 12
   10a88:	e28cca16 	add	ip, ip, #90112	; 0x16000
   10a8c:	e5bcf5fc 	ldr	pc, [ip, #1532]!	; 0x5fc

Disassembly of section .text:

00010a90 <main>:
   10a90:	e92d4070 	push	{r4, r5, r6, lr}
   10a94:	e1a04000 	mov	r4, r0
   10a98:	e1a05001 	mov	r5, r1
   10a9c:	eb00156a 	bl	1604c <initialization>
   10aa0:	eb0000c6 	bl	10dc0 <MAIN_RPI_HOST_RESPONSE_RECEIVED_SLOT_connect>
   10aa4:	eb0000cb 	bl	10dd8 <MAIN_RPI_HOST_COMMAND_RECEIVED_SLOT_connect>
   10aa8:	eb0000d0 	bl	10df0 <MAIN_CLI_HELP_REQUESTED_SLOT_connect>
   10aac:	eb0000d5 	bl	10e08 <MAIN_CLI_INVALID_PARAMETER_SLOT_connect>
   10ab0:	eb0000da 	bl	10e20 <MAIN_CLI_LCD_ACTIVATED_SLOT_connect>
   10ab4:	eb0000df 	bl	10e38 <MAIN_CFG_OBJECT_RECEIVED_SLOT_connect>
   10ab8:	e3a02001 	mov	r2, #1
   10abc:	e1a01002 	mov	r1, r2
   10ac0:	e59f0058 	ldr	r0, [pc, #88]	; 10b20 <main+0x90>
   10ac4:	ebffff91 	bl	10910 <printf@plt>
   10ac8:	e1a01005 	mov	r1, r5
   10acc:	e1a00004 	mov	r0, r4
   10ad0:	eb001472 	bl	15ca0 <command_line_interface>
   10ad4:	e59f3048 	ldr	r3, [pc, #72]	; 10b24 <main+0x94>
   10ad8:	e5d32000 	ldrb	r2, [r3]
   10adc:	e3520000 	cmp	r2, #0
   10ae0:	1a00000a 	bne	10b10 <main+0x80>
   10ae4:	e59f003c 	ldr	r0, [pc, #60]	; 10b28 <main+0x98>
   10ae8:	e1a04003 	mov	r4, r3
   10aec:	eb001219 	bl	15358 <lcd_write_line>
   10af0:	e59f0034 	ldr	r0, [pc, #52]	; 10b2c <main+0x9c>
   10af4:	eb001217 	bl	15358 <lcd_write_line>
   10af8:	e5d43000 	ldrb	r3, [r4]
   10afc:	e3530000 	cmp	r3, #0
   10b00:	1a000004 	bne	10b18 <main+0x88>
   10b04:	eb000ca4 	bl	13d9c <mcu_task_controller_schedule>
   10b08:	eb000cf7 	bl	13eec <mcu_task_controller_background_run>
   10b0c:	eafffff9 	b	10af8 <main+0x68>
   10b10:	e3a00001 	mov	r0, #1
   10b14:	e8bd8070 	pop	{r4, r5, r6, pc}
   10b18:	e3a00000 	mov	r0, #0
   10b1c:	e8bd8070 	pop	{r4, r5, r6, pc}
   10b20:	0001668e 	.word	0x0001668e
   10b24:	00027338 	.word	0x00027338
   10b28:	000165cf 	.word	0x000165cf
   10b2c:	000166b5 	.word	0x000166b5

00010b30 <_start>:
   10b30:	e3a0b000 	mov	fp, #0
   10b34:	e3a0e000 	mov	lr, #0
   10b38:	e49d1004 	pop	{r1}		; (ldr r1, [sp], #4)
   10b3c:	e1a0200d 	mov	r2, sp
   10b40:	e52d2004 	push	{r2}		; (str r2, [sp, #-4]!)
   10b44:	e52d0004 	push	{r0}		; (str r0, [sp, #-4]!)
   10b48:	e59fc010 	ldr	ip, [pc, #16]	; 10b60 <_start+0x30>
   10b4c:	e52dc004 	push	{ip}		; (str ip, [sp, #-4]!)
   10b50:	e59f000c 	ldr	r0, [pc, #12]	; 10b64 <_start+0x34>
   10b54:	e59f300c 	ldr	r3, [pc, #12]	; 10b68 <_start+0x38>
   10b58:	ebffff8d 	bl	10994 <__libc_start_main@plt>
   10b5c:	ebffffc2 	bl	10a6c <abort@plt>
   10b60:	000164e0 	.word	0x000164e0
   10b64:	00010a90 	.word	0x00010a90
   10b68:	00016480 	.word	0x00016480

00010b6c <call_weak_fn>:
   10b6c:	e59f3014 	ldr	r3, [pc, #20]	; 10b88 <call_weak_fn+0x1c>
   10b70:	e59f2014 	ldr	r2, [pc, #20]	; 10b8c <call_weak_fn+0x20>
   10b74:	e08f3003 	add	r3, pc, r3
   10b78:	e7932002 	ldr	r2, [r3, r2]
   10b7c:	e3520000 	cmp	r2, #0
   10b80:	012fff1e 	bxeq	lr
   10b84:	eaffff85 	b	109a0 <__gmon_start__@plt>
   10b88:	00016484 	.word	0x00016484
   10b8c:	0000008c 	.word	0x0000008c

00010b90 <deregister_tm_clones>:
   10b90:	e59f0018 	ldr	r0, [pc, #24]	; 10bb0 <deregister_tm_clones+0x20>
   10b94:	e59f3018 	ldr	r3, [pc, #24]	; 10bb4 <deregister_tm_clones+0x24>
   10b98:	e1530000 	cmp	r3, r0
   10b9c:	012fff1e 	bxeq	lr
   10ba0:	e59f3010 	ldr	r3, [pc, #16]	; 10bb8 <deregister_tm_clones+0x28>
   10ba4:	e3530000 	cmp	r3, #0
   10ba8:	012fff1e 	bxeq	lr
   10bac:	e12fff13 	bx	r3
   10bb0:	00027334 	.word	0x00027334
   10bb4:	00027334 	.word	0x00027334
   10bb8:	00000000 	.word	0x00000000

00010bbc <register_tm_clones>:
   10bbc:	e59f0024 	ldr	r0, [pc, #36]	; 10be8 <register_tm_clones+0x2c>
   10bc0:	e59f1024 	ldr	r1, [pc, #36]	; 10bec <register_tm_clones+0x30>
   10bc4:	e0411000 	sub	r1, r1, r0
   10bc8:	e1a01141 	asr	r1, r1, #2
   10bcc:	e0811fa1 	add	r1, r1, r1, lsr #31
   10bd0:	e1b010c1 	asrs	r1, r1, #1
   10bd4:	012fff1e 	bxeq	lr
   10bd8:	e59f3010 	ldr	r3, [pc, #16]	; 10bf0 <register_tm_clones+0x34>
   10bdc:	e3530000 	cmp	r3, #0
   10be0:	012fff1e 	bxeq	lr
   10be4:	e12fff13 	bx	r3
   10be8:	00027334 	.word	0x00027334
   10bec:	00027334 	.word	0x00027334
   10bf0:	00000000 	.word	0x00000000

00010bf4 <__do_global_dtors_aux>:
   10bf4:	e92d4010 	push	{r4, lr}
   10bf8:	e59f4018 	ldr	r4, [pc, #24]	; 10c18 <__do_global_dtors_aux+0x24>
   10bfc:	e5d43000 	ldrb	r3, [r4]
   10c00:	e3530000 	cmp	r3, #0
   10c04:	18bd8010 	popne	{r4, pc}
   10c08:	ebffffe0 	bl	10b90 <deregister_tm_clones>
   10c0c:	e3a03001 	mov	r3, #1
   10c10:	e5c43000 	strb	r3, [r4]
   10c14:	e8bd8010 	pop	{r4, pc}
   10c18:	00027334 	.word	0x00027334

00010c1c <frame_dummy>:
   10c1c:	eaffffe6 	b	10bbc <register_tm_clones>

00010c20 <main_CLI_HELP_REQUESTED_SLOT_CALLBACK>:
   10c20:	e92d4010 	push	{r4, lr}
   10c24:	e59f0028 	ldr	r0, [pc, #40]	; 10c54 <main_CLI_HELP_REQUESTED_SLOT_CALLBACK+0x34>
   10c28:	eb00113f 	bl	1512c <console_write_line>
   10c2c:	e59f0024 	ldr	r0, [pc, #36]	; 10c58 <main_CLI_HELP_REQUESTED_SLOT_CALLBACK+0x38>
   10c30:	eb00113d 	bl	1512c <console_write_line>
   10c34:	e59f0020 	ldr	r0, [pc, #32]	; 10c5c <main_CLI_HELP_REQUESTED_SLOT_CALLBACK+0x3c>
   10c38:	eb00113b 	bl	1512c <console_write_line>
   10c3c:	e59f001c 	ldr	r0, [pc, #28]	; 10c60 <main_CLI_HELP_REQUESTED_SLOT_CALLBACK+0x40>
   10c40:	eb001139 	bl	1512c <console_write_line>
   10c44:	e59f3018 	ldr	r3, [pc, #24]	; 10c64 <main_CLI_HELP_REQUESTED_SLOT_CALLBACK+0x44>
   10c48:	e3a02001 	mov	r2, #1
   10c4c:	e5c32000 	strb	r2, [r3]
   10c50:	e8bd8010 	pop	{r4, pc}
   10c54:	000164fc 	.word	0x000164fc
   10c58:	0001651a 	.word	0x0001651a
   10c5c:	00016523 	.word	0x00016523
   10c60:	0001656e 	.word	0x0001656e
   10c64:	00027338 	.word	0x00027338

00010c68 <main_RPI_HOST_RESPONSE_RECEIVED_SLOT_CALLBACK>:
   10c68:	e92d4010 	push	{r4, lr}
   10c6c:	e2504000 	subs	r4, r0, #0
   10c70:	e24dd080 	sub	sp, sp, #128	; 0x80
   10c74:	0a000016 	beq	10cd4 <main_RPI_HOST_RESPONSE_RECEIVED_SLOT_CALLBACK+0x6c>
   10c78:	e1d430b0 	ldrh	r3, [r4]
   10c7c:	e1a01004 	mov	r1, r4
   10c80:	e28d0001 	add	r0, sp, #1
   10c84:	e353007f 	cmp	r3, #127	; 0x7f
   10c88:	e5cd3000 	strb	r3, [sp]
   10c8c:	83a0307f 	movhi	r3, #127	; 0x7f
   10c90:	81c430b0 	strhhi	r3, [r4]
   10c94:	e0d120b2 	ldrh	r2, [r1], #2
   10c98:	ebffff28 	bl	10940 <memcpy@plt>
   10c9c:	e59f0038 	ldr	r0, [pc, #56]	; 10cdc <main_RPI_HOST_RESPONSE_RECEIVED_SLOT_CALLBACK+0x74>
   10ca0:	eb001121 	bl	1512c <console_write_line>
   10ca4:	e1d400b0 	ldrh	r0, [r4]
   10ca8:	e1a0100d 	mov	r1, sp
   10cac:	e2800001 	add	r0, r0, #1
   10cb0:	e6ff0070 	uxth	r0, r0
   10cb4:	eb00112c 	bl	1516c <console_hex_dump>
   10cb8:	e59f0020 	ldr	r0, [pc, #32]	; 10ce0 <main_RPI_HOST_RESPONSE_RECEIVED_SLOT_CALLBACK+0x78>
   10cbc:	eb0011a5 	bl	15358 <lcd_write_line>
   10cc0:	e59f001c 	ldr	r0, [pc, #28]	; 10ce4 <main_RPI_HOST_RESPONSE_RECEIVED_SLOT_CALLBACK+0x7c>
   10cc4:	eb0011a3 	bl	15358 <lcd_write_line>
   10cc8:	e59f3018 	ldr	r3, [pc, #24]	; 10ce8 <main_RPI_HOST_RESPONSE_RECEIVED_SLOT_CALLBACK+0x80>
   10ccc:	e3a02001 	mov	r2, #1
   10cd0:	e5c32000 	strb	r2, [r3]
   10cd4:	e28dd080 	add	sp, sp, #128	; 0x80
   10cd8:	e8bd8010 	pop	{r4, pc}
   10cdc:	000165c5 	.word	0x000165c5
   10ce0:	000165cf 	.word	0x000165cf
   10ce4:	000165da 	.word	0x000165da
   10ce8:	00027338 	.word	0x00027338

00010cec <main_RPI_HOST_COMMAND_RECEIVED_SLOT_CALLBACK>:
   10cec:	e92d4010 	push	{r4, lr}
   10cf0:	e1a04000 	mov	r4, r0
   10cf4:	e59f0020 	ldr	r0, [pc, #32]	; 10d1c <main_RPI_HOST_COMMAND_RECEIVED_SLOT_CALLBACK+0x30>
   10cf8:	eb00110b 	bl	1512c <console_write_line>
   10cfc:	e1a01004 	mov	r1, r4
   10d00:	e0d100b2 	ldrh	r0, [r1], #2
   10d04:	eb001118 	bl	1516c <console_hex_dump>
   10d08:	e59f0010 	ldr	r0, [pc, #16]	; 10d20 <main_RPI_HOST_COMMAND_RECEIVED_SLOT_CALLBACK+0x34>
   10d0c:	eb001191 	bl	15358 <lcd_write_line>
   10d10:	e59f000c 	ldr	r0, [pc, #12]	; 10d24 <main_RPI_HOST_COMMAND_RECEIVED_SLOT_CALLBACK+0x38>
   10d14:	e8bd4010 	pop	{r4, lr}
   10d18:	ea00118e 	b	15358 <lcd_write_line>
   10d1c:	000165e8 	.word	0x000165e8
   10d20:	000165cf 	.word	0x000165cf
   10d24:	000165f1 	.word	0x000165f1

00010d28 <main_CLI_INVALID_PARAMETER_SLOT_CALLBACK>:
   10d28:	e2501000 	subs	r1, r0, #0
   10d2c:	e92d4010 	push	{r4, lr}
   10d30:	0a000008 	beq	10d58 <main_CLI_INVALID_PARAMETER_SLOT_CALLBACK+0x30>
   10d34:	e59f0028 	ldr	r0, [pc, #40]	; 10d64 <main_CLI_INVALID_PARAMETER_SLOT_CALLBACK+0x3c>
   10d38:	ebfffef4 	bl	10910 <printf@plt>
   10d3c:	e59f0024 	ldr	r0, [pc, #36]	; 10d68 <main_CLI_INVALID_PARAMETER_SLOT_CALLBACK+0x40>
   10d40:	eb001184 	bl	15358 <lcd_write_line>
   10d44:	e59f0020 	ldr	r0, [pc, #32]	; 10d6c <main_CLI_INVALID_PARAMETER_SLOT_CALLBACK+0x44>
   10d48:	eb001182 	bl	15358 <lcd_write_line>
   10d4c:	e3a00000 	mov	r0, #0
   10d50:	e8bd4010 	pop	{r4, lr}
   10d54:	eaffffb1 	b	10c20 <main_CLI_HELP_REQUESTED_SLOT_CALLBACK>
   10d58:	e59f0010 	ldr	r0, [pc, #16]	; 10d70 <main_CLI_INVALID_PARAMETER_SLOT_CALLBACK+0x48>
   10d5c:	eb0010f2 	bl	1512c <console_write_line>
   10d60:	eafffff5 	b	10d3c <main_CLI_INVALID_PARAMETER_SLOT_CALLBACK+0x14>
   10d64:	000165fe 	.word	0x000165fe
   10d68:	000165cf 	.word	0x000165cf
   10d6c:	00016653 	.word	0x00016653
   10d70:	00016628 	.word	0x00016628

00010d74 <main_CLI_LCD_ACTIVATED_SLOT_CALLBACK>:
   10d74:	e92d4010 	push	{r4, lr}
   10d78:	eb00112b 	bl	1522c <lcd_init>
   10d7c:	e3a00001 	mov	r0, #1
   10d80:	e8bd4010 	pop	{r4, lr}
   10d84:	ea00116d 	b	15340 <lcd_set_enabled>

00010d88 <main_CFG_OBJECT_RECEIVED_SLOT_CALLBACK>:
   10d88:	e92d4010 	push	{r4, lr}
   10d8c:	e1a04000 	mov	r4, r0
   10d90:	e59f001c 	ldr	r0, [pc, #28]	; 10db4 <main_CFG_OBJECT_RECEIVED_SLOT_CALLBACK+0x2c>
   10d94:	eb0010e4 	bl	1512c <console_write_line>
   10d98:	e1a01004 	mov	r1, r4
   10d9c:	e59f0014 	ldr	r0, [pc, #20]	; 10db8 <main_CFG_OBJECT_RECEIVED_SLOT_CALLBACK+0x30>
   10da0:	eb0010e6 	bl	15140 <console_write_string>
   10da4:	e28410ff 	add	r1, r4, #255	; 0xff
   10da8:	e59f000c 	ldr	r0, [pc, #12]	; 10dbc <main_CFG_OBJECT_RECEIVED_SLOT_CALLBACK+0x34>
   10dac:	e8bd4010 	pop	{r4, lr}
   10db0:	ea0010e2 	b	15140 <console_write_string>
   10db4:	00016663 	.word	0x00016663
   10db8:	0001667c 	.word	0x0001667c
   10dbc:	00016684 	.word	0x00016684

00010dc0 <MAIN_RPI_HOST_RESPONSE_RECEIVED_SLOT_connect>:
   10dc0:	e59f0008 	ldr	r0, [pc, #8]	; 10dd0 <MAIN_RPI_HOST_RESPONSE_RECEIVED_SLOT_connect+0x10>
   10dc4:	e59f3008 	ldr	r3, [pc, #8]	; 10dd4 <MAIN_RPI_HOST_RESPONSE_RECEIVED_SLOT_connect+0x14>
   10dc8:	e5a03004 	str	r3, [r0, #4]!
   10dcc:	ea000cbb 	b	140c0 <RPI_HOST_RESPONSE_RECEIVED_SIGNAL_connect>
   10dd0:	00027338 	.word	0x00027338
   10dd4:	00010c68 	.word	0x00010c68

00010dd8 <MAIN_RPI_HOST_COMMAND_RECEIVED_SLOT_connect>:
   10dd8:	e59f0008 	ldr	r0, [pc, #8]	; 10de8 <MAIN_RPI_HOST_COMMAND_RECEIVED_SLOT_connect+0x10>
   10ddc:	e59f3008 	ldr	r3, [pc, #8]	; 10dec <MAIN_RPI_HOST_COMMAND_RECEIVED_SLOT_connect+0x14>
   10de0:	e5a0300c 	str	r3, [r0, #12]!
   10de4:	ea000ca6 	b	14084 <RPI_HOST_COMMAND_RECEIVED_SIGNAL_connect>
   10de8:	00027338 	.word	0x00027338
   10dec:	00010cec 	.word	0x00010cec

00010df0 <MAIN_CLI_HELP_REQUESTED_SLOT_connect>:
   10df0:	e59f0008 	ldr	r0, [pc, #8]	; 10e00 <MAIN_CLI_HELP_REQUESTED_SLOT_connect+0x10>
   10df4:	e59f3008 	ldr	r3, [pc, #8]	; 10e04 <MAIN_CLI_HELP_REQUESTED_SLOT_connect+0x14>
   10df8:	e5a03014 	str	r3, [r0, #20]!
   10dfc:	ea00135f 	b	15b80 <CLI_HELP_REQUESTED_SIGNAL_connect>
   10e00:	00027338 	.word	0x00027338
   10e04:	00010c20 	.word	0x00010c20

00010e08 <MAIN_CLI_INVALID_PARAMETER_SLOT_connect>:
   10e08:	e59f0008 	ldr	r0, [pc, #8]	; 10e18 <MAIN_CLI_INVALID_PARAMETER_SLOT_connect+0x10>
   10e0c:	e59f3008 	ldr	r3, [pc, #8]	; 10e1c <MAIN_CLI_INVALID_PARAMETER_SLOT_connect+0x14>
   10e10:	e5a0301c 	str	r3, [r0, #28]!
   10e14:	ea00134a 	b	15b44 <CLI_INVALID_PARAMETER_SIGNAL_connect>
   10e18:	00027338 	.word	0x00027338
   10e1c:	00010d28 	.word	0x00010d28

00010e20 <MAIN_CLI_LCD_ACTIVATED_SLOT_connect>:
   10e20:	e59f0008 	ldr	r0, [pc, #8]	; 10e30 <MAIN_CLI_LCD_ACTIVATED_SLOT_connect+0x10>
   10e24:	e59f3008 	ldr	r3, [pc, #8]	; 10e34 <MAIN_CLI_LCD_ACTIVATED_SLOT_connect+0x14>
   10e28:	e5a03024 	str	r3, [r0, #36]!	; 0x24
   10e2c:	ea001362 	b	15bbc <CLI_LCD_ACTIVATED_SIGNAL_connect>
   10e30:	00027338 	.word	0x00027338
   10e34:	00010d74 	.word	0x00010d74

00010e38 <MAIN_CFG_OBJECT_RECEIVED_SLOT_connect>:
   10e38:	e59f0008 	ldr	r0, [pc, #8]	; 10e48 <MAIN_CFG_OBJECT_RECEIVED_SLOT_connect+0x10>
   10e3c:	e59f3008 	ldr	r3, [pc, #8]	; 10e4c <MAIN_CFG_OBJECT_RECEIVED_SLOT_connect+0x14>
   10e40:	e5a0302c 	str	r3, [r0, #44]!	; 0x2c
   10e44:	ea0011d0 	b	1558c <CFG_PARSER_NEW_CFG_OBJECT_SIGNAL_connect>
   10e48:	00027338 	.word	0x00027338
   10e4c:	00010d88 	.word	0x00010d88

00010e50 <I2C_SDA_drive_high>:
   10e50:	e92d4010 	push	{r4, lr}
   10e54:	e3a01001 	mov	r1, #1
   10e58:	e59f4014 	ldr	r4, [pc, #20]	; 10e74 <I2C_SDA_drive_high+0x24>
   10e5c:	e1a00004 	mov	r0, r4
   10e60:	eb000ead 	bl	1491c <gpio_driver_set_direction>
   10e64:	e1a00004 	mov	r0, r4
   10e68:	e3a01001 	mov	r1, #1
   10e6c:	e8bd4010 	pop	{r4, lr}
   10e70:	ea000eb0 	b	14938 <gpio_driver_set_level>
   10e74:	000166c1 	.word	0x000166c1

00010e78 <I2C_SDA_drive_low>:
   10e78:	e92d4010 	push	{r4, lr}
   10e7c:	e3a01001 	mov	r1, #1
   10e80:	e59f4014 	ldr	r4, [pc, #20]	; 10e9c <I2C_SDA_drive_low+0x24>
   10e84:	e1a00004 	mov	r0, r4
   10e88:	eb000ea3 	bl	1491c <gpio_driver_set_direction>
   10e8c:	e1a00004 	mov	r0, r4
   10e90:	e3a01000 	mov	r1, #0
   10e94:	e8bd4010 	pop	{r4, lr}
   10e98:	ea000ea6 	b	14938 <gpio_driver_set_level>
   10e9c:	000166c1 	.word	0x000166c1

00010ea0 <I2C_SDA_no_drive>:
   10ea0:	e92d4010 	push	{r4, lr}
   10ea4:	e3a01000 	mov	r1, #0
   10ea8:	e59f4014 	ldr	r4, [pc, #20]	; 10ec4 <I2C_SDA_no_drive+0x24>
   10eac:	e1a00004 	mov	r0, r4
   10eb0:	eb000e99 	bl	1491c <gpio_driver_set_direction>
   10eb4:	e1a00004 	mov	r0, r4
   10eb8:	e3a01002 	mov	r1, #2
   10ebc:	e8bd4010 	pop	{r4, lr}
   10ec0:	ea000e9c 	b	14938 <gpio_driver_set_level>
   10ec4:	000166c1 	.word	0x000166c1

00010ec8 <I2C_SDA_toggle_level>:
   10ec8:	e59f0000 	ldr	r0, [pc]	; 10ed0 <I2C_SDA_toggle_level+0x8>
   10ecc:	ea000f14 	b	14b24 <gpio_driver_toggle_level>
   10ed0:	000166c1 	.word	0x000166c1

00010ed4 <I2C_SDA_pull_up>:
   10ed4:	e92d4010 	push	{r4, lr}
   10ed8:	e3a01000 	mov	r1, #0
   10edc:	e59f4014 	ldr	r4, [pc, #20]	; 10ef8 <I2C_SDA_pull_up+0x24>
   10ee0:	e1a00004 	mov	r0, r4
   10ee4:	eb000e8c 	bl	1491c <gpio_driver_set_direction>
   10ee8:	e1a00004 	mov	r0, r4
   10eec:	e3a01001 	mov	r1, #1
   10ef0:	e8bd4010 	pop	{r4, lr}
   10ef4:	ea000e8f 	b	14938 <gpio_driver_set_level>
   10ef8:	000166c1 	.word	0x000166c1

00010efc <I2C_SDA_pull_down>:
   10efc:	e92d4010 	push	{r4, lr}
   10f00:	e3a01000 	mov	r1, #0
   10f04:	e59f4014 	ldr	r4, [pc, #20]	; 10f20 <I2C_SDA_pull_down+0x24>
   10f08:	e1a00004 	mov	r0, r4
   10f0c:	eb000e82 	bl	1491c <gpio_driver_set_direction>
   10f10:	e1a00004 	mov	r0, r4
   10f14:	e3a01000 	mov	r1, #0
   10f18:	e8bd4010 	pop	{r4, lr}
   10f1c:	ea000e85 	b	14938 <gpio_driver_set_level>
   10f20:	000166c1 	.word	0x000166c1

00010f24 <I2C_SDA_no_pull>:
   10f24:	eaffffdd 	b	10ea0 <I2C_SDA_no_drive>

00010f28 <I2C_SDA_is_high_level>:
   10f28:	e92d4010 	push	{r4, lr}
   10f2c:	e59f0010 	ldr	r0, [pc, #16]	; 10f44 <I2C_SDA_is_high_level+0x1c>
   10f30:	eb000eee 	bl	14af0 <gpio_driver_get_level>
   10f34:	e2400001 	sub	r0, r0, #1
   10f38:	e16f0f10 	clz	r0, r0
   10f3c:	e1a002a0 	lsr	r0, r0, #5
   10f40:	e8bd8010 	pop	{r4, pc}
   10f44:	000166c1 	.word	0x000166c1

00010f48 <I2C_SDA_is_low_level>:
   10f48:	e92d4010 	push	{r4, lr}
   10f4c:	e59f000c 	ldr	r0, [pc, #12]	; 10f60 <I2C_SDA_is_low_level+0x18>
   10f50:	eb000ee6 	bl	14af0 <gpio_driver_get_level>
   10f54:	e16f0f10 	clz	r0, r0
   10f58:	e1a002a0 	lsr	r0, r0, #5
   10f5c:	e8bd8010 	pop	{r4, pc}
   10f60:	000166c1 	.word	0x000166c1

00010f64 <I2C_SDA_print_state>:
   10f64:	e59f0000 	ldr	r0, [pc]	; 10f6c <I2C_SDA_print_state+0x8>
   10f68:	ea000ef8 	b	14b50 <gpio_driver_print_pin_state>
   10f6c:	000166c1 	.word	0x000166c1

00010f70 <I2C_SCL_drive_high>:
   10f70:	e92d4010 	push	{r4, lr}
   10f74:	e3a01001 	mov	r1, #1
   10f78:	e59f4014 	ldr	r4, [pc, #20]	; 10f94 <I2C_SCL_drive_high+0x24>
   10f7c:	e1a00004 	mov	r0, r4
   10f80:	eb000e65 	bl	1491c <gpio_driver_set_direction>
   10f84:	e1a00004 	mov	r0, r4
   10f88:	e3a01001 	mov	r1, #1
   10f8c:	e8bd4010 	pop	{r4, lr}
   10f90:	ea000e68 	b	14938 <gpio_driver_set_level>
   10f94:	000166c4 	.word	0x000166c4

00010f98 <I2C_SCL_drive_low>:
   10f98:	e92d4010 	push	{r4, lr}
   10f9c:	e3a01001 	mov	r1, #1
   10fa0:	e59f4014 	ldr	r4, [pc, #20]	; 10fbc <I2C_SCL_drive_low+0x24>
   10fa4:	e1a00004 	mov	r0, r4
   10fa8:	eb000e5b 	bl	1491c <gpio_driver_set_direction>
   10fac:	e1a00004 	mov	r0, r4
   10fb0:	e3a01000 	mov	r1, #0
   10fb4:	e8bd4010 	pop	{r4, lr}
   10fb8:	ea000e5e 	b	14938 <gpio_driver_set_level>
   10fbc:	000166c4 	.word	0x000166c4

00010fc0 <I2C_SCL_no_drive>:
   10fc0:	e92d4010 	push	{r4, lr}
   10fc4:	e3a01000 	mov	r1, #0
   10fc8:	e59f4014 	ldr	r4, [pc, #20]	; 10fe4 <I2C_SCL_no_drive+0x24>
   10fcc:	e1a00004 	mov	r0, r4
   10fd0:	eb000e51 	bl	1491c <gpio_driver_set_direction>
   10fd4:	e1a00004 	mov	r0, r4
   10fd8:	e3a01002 	mov	r1, #2
   10fdc:	e8bd4010 	pop	{r4, lr}
   10fe0:	ea000e54 	b	14938 <gpio_driver_set_level>
   10fe4:	000166c4 	.word	0x000166c4

00010fe8 <I2C_SCL_toggle_level>:
   10fe8:	e59f0000 	ldr	r0, [pc]	; 10ff0 <I2C_SCL_toggle_level+0x8>
   10fec:	ea000ecc 	b	14b24 <gpio_driver_toggle_level>
   10ff0:	000166c4 	.word	0x000166c4

00010ff4 <I2C_SCL_pull_up>:
   10ff4:	e92d4010 	push	{r4, lr}
   10ff8:	e3a01000 	mov	r1, #0
   10ffc:	e59f4014 	ldr	r4, [pc, #20]	; 11018 <I2C_SCL_pull_up+0x24>
   11000:	e1a00004 	mov	r0, r4
   11004:	eb000e44 	bl	1491c <gpio_driver_set_direction>
   11008:	e1a00004 	mov	r0, r4
   1100c:	e3a01001 	mov	r1, #1
   11010:	e8bd4010 	pop	{r4, lr}
   11014:	ea000e47 	b	14938 <gpio_driver_set_level>
   11018:	000166c4 	.word	0x000166c4

0001101c <I2C_SCL_pull_down>:
   1101c:	e92d4010 	push	{r4, lr}
   11020:	e3a01000 	mov	r1, #0
   11024:	e59f4014 	ldr	r4, [pc, #20]	; 11040 <I2C_SCL_pull_down+0x24>
   11028:	e1a00004 	mov	r0, r4
   1102c:	eb000e3a 	bl	1491c <gpio_driver_set_direction>
   11030:	e1a00004 	mov	r0, r4
   11034:	e3a01000 	mov	r1, #0
   11038:	e8bd4010 	pop	{r4, lr}
   1103c:	ea000e3d 	b	14938 <gpio_driver_set_level>
   11040:	000166c4 	.word	0x000166c4

00011044 <I2C_SCL_no_pull>:
   11044:	eaffffdd 	b	10fc0 <I2C_SCL_no_drive>

00011048 <I2C_SCL_is_high_level>:
   11048:	e92d4010 	push	{r4, lr}
   1104c:	e59f0010 	ldr	r0, [pc, #16]	; 11064 <I2C_SCL_is_high_level+0x1c>
   11050:	eb000ea6 	bl	14af0 <gpio_driver_get_level>
   11054:	e2400001 	sub	r0, r0, #1
   11058:	e16f0f10 	clz	r0, r0
   1105c:	e1a002a0 	lsr	r0, r0, #5
   11060:	e8bd8010 	pop	{r4, pc}
   11064:	000166c4 	.word	0x000166c4

00011068 <I2C_SCL_is_low_level>:
   11068:	e92d4010 	push	{r4, lr}
   1106c:	e59f000c 	ldr	r0, [pc, #12]	; 11080 <I2C_SCL_is_low_level+0x18>
   11070:	eb000e9e 	bl	14af0 <gpio_driver_get_level>
   11074:	e16f0f10 	clz	r0, r0
   11078:	e1a002a0 	lsr	r0, r0, #5
   1107c:	e8bd8010 	pop	{r4, pc}
   11080:	000166c4 	.word	0x000166c4

00011084 <I2C_SCL_print_state>:
   11084:	e59f0000 	ldr	r0, [pc]	; 1108c <I2C_SCL_print_state+0x8>
   11088:	ea000eb0 	b	14b50 <gpio_driver_print_pin_state>
   1108c:	000166c4 	.word	0x000166c4

00011090 <GPIO04_drive_high>:
   11090:	e92d4010 	push	{r4, lr}
   11094:	e3a01001 	mov	r1, #1
   11098:	e59f4014 	ldr	r4, [pc, #20]	; 110b4 <GPIO04_drive_high+0x24>
   1109c:	e1a00004 	mov	r0, r4
   110a0:	eb000e1d 	bl	1491c <gpio_driver_set_direction>
   110a4:	e1a00004 	mov	r0, r4
   110a8:	e3a01001 	mov	r1, #1
   110ac:	e8bd4010 	pop	{r4, lr}
   110b0:	ea000e20 	b	14938 <gpio_driver_set_level>
   110b4:	000166c7 	.word	0x000166c7

000110b8 <GPIO04_drive_low>:
   110b8:	e92d4010 	push	{r4, lr}
   110bc:	e3a01001 	mov	r1, #1
   110c0:	e59f4014 	ldr	r4, [pc, #20]	; 110dc <GPIO04_drive_low+0x24>
   110c4:	e1a00004 	mov	r0, r4
   110c8:	eb000e13 	bl	1491c <gpio_driver_set_direction>
   110cc:	e1a00004 	mov	r0, r4
   110d0:	e3a01000 	mov	r1, #0
   110d4:	e8bd4010 	pop	{r4, lr}
   110d8:	ea000e16 	b	14938 <gpio_driver_set_level>
   110dc:	000166c7 	.word	0x000166c7

000110e0 <GPIO04_no_drive>:
   110e0:	e92d4010 	push	{r4, lr}
   110e4:	e3a01000 	mov	r1, #0
   110e8:	e59f4014 	ldr	r4, [pc, #20]	; 11104 <GPIO04_no_drive+0x24>
   110ec:	e1a00004 	mov	r0, r4
   110f0:	eb000e09 	bl	1491c <gpio_driver_set_direction>
   110f4:	e1a00004 	mov	r0, r4
   110f8:	e3a01002 	mov	r1, #2
   110fc:	e8bd4010 	pop	{r4, lr}
   11100:	ea000e0c 	b	14938 <gpio_driver_set_level>
   11104:	000166c7 	.word	0x000166c7

00011108 <GPIO04_toggle_level>:
   11108:	e59f0000 	ldr	r0, [pc]	; 11110 <GPIO04_toggle_level+0x8>
   1110c:	ea000e84 	b	14b24 <gpio_driver_toggle_level>
   11110:	000166c7 	.word	0x000166c7

00011114 <GPIO04_pull_up>:
   11114:	e92d4010 	push	{r4, lr}
   11118:	e3a01000 	mov	r1, #0
   1111c:	e59f4014 	ldr	r4, [pc, #20]	; 11138 <GPIO04_pull_up+0x24>
   11120:	e1a00004 	mov	r0, r4
   11124:	eb000dfc 	bl	1491c <gpio_driver_set_direction>
   11128:	e1a00004 	mov	r0, r4
   1112c:	e3a01001 	mov	r1, #1
   11130:	e8bd4010 	pop	{r4, lr}
   11134:	ea000dff 	b	14938 <gpio_driver_set_level>
   11138:	000166c7 	.word	0x000166c7

0001113c <GPIO04_pull_down>:
   1113c:	e92d4010 	push	{r4, lr}
   11140:	e3a01000 	mov	r1, #0
   11144:	e59f4014 	ldr	r4, [pc, #20]	; 11160 <GPIO04_pull_down+0x24>
   11148:	e1a00004 	mov	r0, r4
   1114c:	eb000df2 	bl	1491c <gpio_driver_set_direction>
   11150:	e1a00004 	mov	r0, r4
   11154:	e3a01000 	mov	r1, #0
   11158:	e8bd4010 	pop	{r4, lr}
   1115c:	ea000df5 	b	14938 <gpio_driver_set_level>
   11160:	000166c7 	.word	0x000166c7

00011164 <GPIO04_no_pull>:
   11164:	eaffffdd 	b	110e0 <GPIO04_no_drive>

00011168 <GPIO04_is_high_level>:
   11168:	e92d4010 	push	{r4, lr}
   1116c:	e59f0010 	ldr	r0, [pc, #16]	; 11184 <GPIO04_is_high_level+0x1c>
   11170:	eb000e5e 	bl	14af0 <gpio_driver_get_level>
   11174:	e2400001 	sub	r0, r0, #1
   11178:	e16f0f10 	clz	r0, r0
   1117c:	e1a002a0 	lsr	r0, r0, #5
   11180:	e8bd8010 	pop	{r4, pc}
   11184:	000166c7 	.word	0x000166c7

00011188 <GPIO04_is_low_level>:
   11188:	e92d4010 	push	{r4, lr}
   1118c:	e59f000c 	ldr	r0, [pc, #12]	; 111a0 <GPIO04_is_low_level+0x18>
   11190:	eb000e56 	bl	14af0 <gpio_driver_get_level>
   11194:	e16f0f10 	clz	r0, r0
   11198:	e1a002a0 	lsr	r0, r0, #5
   1119c:	e8bd8010 	pop	{r4, pc}
   111a0:	000166c7 	.word	0x000166c7

000111a4 <GPIO04_print_state>:
   111a4:	e59f0000 	ldr	r0, [pc]	; 111ac <GPIO04_print_state+0x8>
   111a8:	ea000e68 	b	14b50 <gpio_driver_print_pin_state>
   111ac:	000166c7 	.word	0x000166c7

000111b0 <UART_TXD_drive_high>:
   111b0:	e92d4010 	push	{r4, lr}
   111b4:	e3a01001 	mov	r1, #1
   111b8:	e59f4014 	ldr	r4, [pc, #20]	; 111d4 <UART_TXD_drive_high+0x24>
   111bc:	e1a00004 	mov	r0, r4
   111c0:	eb000dd5 	bl	1491c <gpio_driver_set_direction>
   111c4:	e1a00004 	mov	r0, r4
   111c8:	e3a01001 	mov	r1, #1
   111cc:	e8bd4010 	pop	{r4, lr}
   111d0:	ea000dd8 	b	14938 <gpio_driver_set_level>
   111d4:	000166ca 	.word	0x000166ca

000111d8 <UART_TXD_drive_low>:
   111d8:	e92d4010 	push	{r4, lr}
   111dc:	e3a01001 	mov	r1, #1
   111e0:	e59f4014 	ldr	r4, [pc, #20]	; 111fc <UART_TXD_drive_low+0x24>
   111e4:	e1a00004 	mov	r0, r4
   111e8:	eb000dcb 	bl	1491c <gpio_driver_set_direction>
   111ec:	e1a00004 	mov	r0, r4
   111f0:	e3a01000 	mov	r1, #0
   111f4:	e8bd4010 	pop	{r4, lr}
   111f8:	ea000dce 	b	14938 <gpio_driver_set_level>
   111fc:	000166ca 	.word	0x000166ca

00011200 <UART_TXD_no_drive>:
   11200:	e92d4010 	push	{r4, lr}
   11204:	e3a01000 	mov	r1, #0
   11208:	e59f4014 	ldr	r4, [pc, #20]	; 11224 <UART_TXD_no_drive+0x24>
   1120c:	e1a00004 	mov	r0, r4
   11210:	eb000dc1 	bl	1491c <gpio_driver_set_direction>
   11214:	e1a00004 	mov	r0, r4
   11218:	e3a01002 	mov	r1, #2
   1121c:	e8bd4010 	pop	{r4, lr}
   11220:	ea000dc4 	b	14938 <gpio_driver_set_level>
   11224:	000166ca 	.word	0x000166ca

00011228 <UART_TXD_toggle_level>:
   11228:	e59f0000 	ldr	r0, [pc]	; 11230 <UART_TXD_toggle_level+0x8>
   1122c:	ea000e3c 	b	14b24 <gpio_driver_toggle_level>
   11230:	000166ca 	.word	0x000166ca

00011234 <UART_TXD_pull_up>:
   11234:	e92d4010 	push	{r4, lr}
   11238:	e3a01000 	mov	r1, #0
   1123c:	e59f4014 	ldr	r4, [pc, #20]	; 11258 <UART_TXD_pull_up+0x24>
   11240:	e1a00004 	mov	r0, r4
   11244:	eb000db4 	bl	1491c <gpio_driver_set_direction>
   11248:	e1a00004 	mov	r0, r4
   1124c:	e3a01001 	mov	r1, #1
   11250:	e8bd4010 	pop	{r4, lr}
   11254:	ea000db7 	b	14938 <gpio_driver_set_level>
   11258:	000166ca 	.word	0x000166ca

0001125c <UART_TXD_pull_down>:
   1125c:	e92d4010 	push	{r4, lr}
   11260:	e3a01000 	mov	r1, #0
   11264:	e59f4014 	ldr	r4, [pc, #20]	; 11280 <UART_TXD_pull_down+0x24>
   11268:	e1a00004 	mov	r0, r4
   1126c:	eb000daa 	bl	1491c <gpio_driver_set_direction>
   11270:	e1a00004 	mov	r0, r4
   11274:	e3a01000 	mov	r1, #0
   11278:	e8bd4010 	pop	{r4, lr}
   1127c:	ea000dad 	b	14938 <gpio_driver_set_level>
   11280:	000166ca 	.word	0x000166ca

00011284 <UART_TXD_no_pull>:
   11284:	eaffffdd 	b	11200 <UART_TXD_no_drive>

00011288 <UART_TXD_is_high_level>:
   11288:	e92d4010 	push	{r4, lr}
   1128c:	e59f0010 	ldr	r0, [pc, #16]	; 112a4 <UART_TXD_is_high_level+0x1c>
   11290:	eb000e16 	bl	14af0 <gpio_driver_get_level>
   11294:	e2400001 	sub	r0, r0, #1
   11298:	e16f0f10 	clz	r0, r0
   1129c:	e1a002a0 	lsr	r0, r0, #5
   112a0:	e8bd8010 	pop	{r4, pc}
   112a4:	000166ca 	.word	0x000166ca

000112a8 <UART_TXD_is_low_level>:
   112a8:	e92d4010 	push	{r4, lr}
   112ac:	e59f000c 	ldr	r0, [pc, #12]	; 112c0 <UART_TXD_is_low_level+0x18>
   112b0:	eb000e0e 	bl	14af0 <gpio_driver_get_level>
   112b4:	e16f0f10 	clz	r0, r0
   112b8:	e1a002a0 	lsr	r0, r0, #5
   112bc:	e8bd8010 	pop	{r4, pc}
   112c0:	000166ca 	.word	0x000166ca

000112c4 <UART_TXD_print_state>:
   112c4:	e59f0000 	ldr	r0, [pc]	; 112cc <UART_TXD_print_state+0x8>
   112c8:	ea000e20 	b	14b50 <gpio_driver_print_pin_state>
   112cc:	000166ca 	.word	0x000166ca

000112d0 <UART_RXD_drive_high>:
   112d0:	e92d4010 	push	{r4, lr}
   112d4:	e3a01001 	mov	r1, #1
   112d8:	e59f4014 	ldr	r4, [pc, #20]	; 112f4 <UART_RXD_drive_high+0x24>
   112dc:	e1a00004 	mov	r0, r4
   112e0:	eb000d8d 	bl	1491c <gpio_driver_set_direction>
   112e4:	e1a00004 	mov	r0, r4
   112e8:	e3a01001 	mov	r1, #1
   112ec:	e8bd4010 	pop	{r4, lr}
   112f0:	ea000d90 	b	14938 <gpio_driver_set_level>
   112f4:	000166cd 	.word	0x000166cd

000112f8 <UART_RXD_drive_low>:
   112f8:	e92d4010 	push	{r4, lr}
   112fc:	e3a01001 	mov	r1, #1
   11300:	e59f4014 	ldr	r4, [pc, #20]	; 1131c <UART_RXD_drive_low+0x24>
   11304:	e1a00004 	mov	r0, r4
   11308:	eb000d83 	bl	1491c <gpio_driver_set_direction>
   1130c:	e1a00004 	mov	r0, r4
   11310:	e3a01000 	mov	r1, #0
   11314:	e8bd4010 	pop	{r4, lr}
   11318:	ea000d86 	b	14938 <gpio_driver_set_level>
   1131c:	000166cd 	.word	0x000166cd

00011320 <UART_RXD_no_drive>:
   11320:	e92d4010 	push	{r4, lr}
   11324:	e3a01000 	mov	r1, #0
   11328:	e59f4014 	ldr	r4, [pc, #20]	; 11344 <UART_RXD_no_drive+0x24>
   1132c:	e1a00004 	mov	r0, r4
   11330:	eb000d79 	bl	1491c <gpio_driver_set_direction>
   11334:	e1a00004 	mov	r0, r4
   11338:	e3a01002 	mov	r1, #2
   1133c:	e8bd4010 	pop	{r4, lr}
   11340:	ea000d7c 	b	14938 <gpio_driver_set_level>
   11344:	000166cd 	.word	0x000166cd

00011348 <UART_RXD_toggle_level>:
   11348:	e59f0000 	ldr	r0, [pc]	; 11350 <UART_RXD_toggle_level+0x8>
   1134c:	ea000df4 	b	14b24 <gpio_driver_toggle_level>
   11350:	000166cd 	.word	0x000166cd

00011354 <UART_RXD_pull_up>:
   11354:	e92d4010 	push	{r4, lr}
   11358:	e3a01000 	mov	r1, #0
   1135c:	e59f4014 	ldr	r4, [pc, #20]	; 11378 <UART_RXD_pull_up+0x24>
   11360:	e1a00004 	mov	r0, r4
   11364:	eb000d6c 	bl	1491c <gpio_driver_set_direction>
   11368:	e1a00004 	mov	r0, r4
   1136c:	e3a01001 	mov	r1, #1
   11370:	e8bd4010 	pop	{r4, lr}
   11374:	ea000d6f 	b	14938 <gpio_driver_set_level>
   11378:	000166cd 	.word	0x000166cd

0001137c <UART_RXD_pull_down>:
   1137c:	e92d4010 	push	{r4, lr}
   11380:	e3a01000 	mov	r1, #0
   11384:	e59f4014 	ldr	r4, [pc, #20]	; 113a0 <UART_RXD_pull_down+0x24>
   11388:	e1a00004 	mov	r0, r4
   1138c:	eb000d62 	bl	1491c <gpio_driver_set_direction>
   11390:	e1a00004 	mov	r0, r4
   11394:	e3a01000 	mov	r1, #0
   11398:	e8bd4010 	pop	{r4, lr}
   1139c:	ea000d65 	b	14938 <gpio_driver_set_level>
   113a0:	000166cd 	.word	0x000166cd

000113a4 <UART_RXD_no_pull>:
   113a4:	eaffffdd 	b	11320 <UART_RXD_no_drive>

000113a8 <UART_RXD_is_high_level>:
   113a8:	e92d4010 	push	{r4, lr}
   113ac:	e59f0010 	ldr	r0, [pc, #16]	; 113c4 <UART_RXD_is_high_level+0x1c>
   113b0:	eb000dce 	bl	14af0 <gpio_driver_get_level>
   113b4:	e2400001 	sub	r0, r0, #1
   113b8:	e16f0f10 	clz	r0, r0
   113bc:	e1a002a0 	lsr	r0, r0, #5
   113c0:	e8bd8010 	pop	{r4, pc}
   113c4:	000166cd 	.word	0x000166cd

000113c8 <UART_RXD_is_low_level>:
   113c8:	e92d4010 	push	{r4, lr}
   113cc:	e59f000c 	ldr	r0, [pc, #12]	; 113e0 <UART_RXD_is_low_level+0x18>
   113d0:	eb000dc6 	bl	14af0 <gpio_driver_get_level>
   113d4:	e16f0f10 	clz	r0, r0
   113d8:	e1a002a0 	lsr	r0, r0, #5
   113dc:	e8bd8010 	pop	{r4, pc}
   113e0:	000166cd 	.word	0x000166cd

000113e4 <UART_RXD_print_state>:
   113e4:	e59f0000 	ldr	r0, [pc]	; 113ec <UART_RXD_print_state+0x8>
   113e8:	ea000dd8 	b	14b50 <gpio_driver_print_pin_state>
   113ec:	000166cd 	.word	0x000166cd

000113f0 <GPIO17_drive_high>:
   113f0:	e92d4010 	push	{r4, lr}
   113f4:	e3a01001 	mov	r1, #1
   113f8:	e59f4014 	ldr	r4, [pc, #20]	; 11414 <GPIO17_drive_high+0x24>
   113fc:	e1a00004 	mov	r0, r4
   11400:	eb000d45 	bl	1491c <gpio_driver_set_direction>
   11404:	e1a00004 	mov	r0, r4
   11408:	e3a01001 	mov	r1, #1
   1140c:	e8bd4010 	pop	{r4, lr}
   11410:	ea000d48 	b	14938 <gpio_driver_set_level>
   11414:	000166d0 	.word	0x000166d0

00011418 <GPIO17_drive_low>:
   11418:	e92d4010 	push	{r4, lr}
   1141c:	e3a01001 	mov	r1, #1
   11420:	e59f4014 	ldr	r4, [pc, #20]	; 1143c <GPIO17_drive_low+0x24>
   11424:	e1a00004 	mov	r0, r4
   11428:	eb000d3b 	bl	1491c <gpio_driver_set_direction>
   1142c:	e1a00004 	mov	r0, r4
   11430:	e3a01000 	mov	r1, #0
   11434:	e8bd4010 	pop	{r4, lr}
   11438:	ea000d3e 	b	14938 <gpio_driver_set_level>
   1143c:	000166d0 	.word	0x000166d0

00011440 <GPIO17_no_drive>:
   11440:	e92d4010 	push	{r4, lr}
   11444:	e3a01000 	mov	r1, #0
   11448:	e59f4014 	ldr	r4, [pc, #20]	; 11464 <GPIO17_no_drive+0x24>
   1144c:	e1a00004 	mov	r0, r4
   11450:	eb000d31 	bl	1491c <gpio_driver_set_direction>
   11454:	e1a00004 	mov	r0, r4
   11458:	e3a01002 	mov	r1, #2
   1145c:	e8bd4010 	pop	{r4, lr}
   11460:	ea000d34 	b	14938 <gpio_driver_set_level>
   11464:	000166d0 	.word	0x000166d0

00011468 <GPIO17_toggle_level>:
   11468:	e59f0000 	ldr	r0, [pc]	; 11470 <GPIO17_toggle_level+0x8>
   1146c:	ea000dac 	b	14b24 <gpio_driver_toggle_level>
   11470:	000166d0 	.word	0x000166d0

00011474 <GPIO17_pull_up>:
   11474:	e92d4010 	push	{r4, lr}
   11478:	e3a01000 	mov	r1, #0
   1147c:	e59f4014 	ldr	r4, [pc, #20]	; 11498 <GPIO17_pull_up+0x24>
   11480:	e1a00004 	mov	r0, r4
   11484:	eb000d24 	bl	1491c <gpio_driver_set_direction>
   11488:	e1a00004 	mov	r0, r4
   1148c:	e3a01001 	mov	r1, #1
   11490:	e8bd4010 	pop	{r4, lr}
   11494:	ea000d27 	b	14938 <gpio_driver_set_level>
   11498:	000166d0 	.word	0x000166d0

0001149c <GPIO17_pull_down>:
   1149c:	e92d4010 	push	{r4, lr}
   114a0:	e3a01000 	mov	r1, #0
   114a4:	e59f4014 	ldr	r4, [pc, #20]	; 114c0 <GPIO17_pull_down+0x24>
   114a8:	e1a00004 	mov	r0, r4
   114ac:	eb000d1a 	bl	1491c <gpio_driver_set_direction>
   114b0:	e1a00004 	mov	r0, r4
   114b4:	e3a01000 	mov	r1, #0
   114b8:	e8bd4010 	pop	{r4, lr}
   114bc:	ea000d1d 	b	14938 <gpio_driver_set_level>
   114c0:	000166d0 	.word	0x000166d0

000114c4 <GPIO17_no_pull>:
   114c4:	eaffffdd 	b	11440 <GPIO17_no_drive>

000114c8 <GPIO17_is_high_level>:
   114c8:	e92d4010 	push	{r4, lr}
   114cc:	e59f0010 	ldr	r0, [pc, #16]	; 114e4 <GPIO17_is_high_level+0x1c>
   114d0:	eb000d86 	bl	14af0 <gpio_driver_get_level>
   114d4:	e2400001 	sub	r0, r0, #1
   114d8:	e16f0f10 	clz	r0, r0
   114dc:	e1a002a0 	lsr	r0, r0, #5
   114e0:	e8bd8010 	pop	{r4, pc}
   114e4:	000166d0 	.word	0x000166d0

000114e8 <GPIO17_is_low_level>:
   114e8:	e92d4010 	push	{r4, lr}
   114ec:	e59f000c 	ldr	r0, [pc, #12]	; 11500 <GPIO17_is_low_level+0x18>
   114f0:	eb000d7e 	bl	14af0 <gpio_driver_get_level>
   114f4:	e16f0f10 	clz	r0, r0
   114f8:	e1a002a0 	lsr	r0, r0, #5
   114fc:	e8bd8010 	pop	{r4, pc}
   11500:	000166d0 	.word	0x000166d0

00011504 <GPIO17_print_state>:
   11504:	e59f0000 	ldr	r0, [pc]	; 1150c <GPIO17_print_state+0x8>
   11508:	ea000d90 	b	14b50 <gpio_driver_print_pin_state>
   1150c:	000166d0 	.word	0x000166d0

00011510 <GPIO18_drive_high>:
   11510:	e92d4010 	push	{r4, lr}
   11514:	e3a01001 	mov	r1, #1
   11518:	e59f4014 	ldr	r4, [pc, #20]	; 11534 <GPIO18_drive_high+0x24>
   1151c:	e1a00004 	mov	r0, r4
   11520:	eb000cfd 	bl	1491c <gpio_driver_set_direction>
   11524:	e1a00004 	mov	r0, r4
   11528:	e3a01001 	mov	r1, #1
   1152c:	e8bd4010 	pop	{r4, lr}
   11530:	ea000d00 	b	14938 <gpio_driver_set_level>
   11534:	000166d3 	.word	0x000166d3

00011538 <GPIO18_drive_low>:
   11538:	e92d4010 	push	{r4, lr}
   1153c:	e3a01001 	mov	r1, #1
   11540:	e59f4014 	ldr	r4, [pc, #20]	; 1155c <GPIO18_drive_low+0x24>
   11544:	e1a00004 	mov	r0, r4
   11548:	eb000cf3 	bl	1491c <gpio_driver_set_direction>
   1154c:	e1a00004 	mov	r0, r4
   11550:	e3a01000 	mov	r1, #0
   11554:	e8bd4010 	pop	{r4, lr}
   11558:	ea000cf6 	b	14938 <gpio_driver_set_level>
   1155c:	000166d3 	.word	0x000166d3

00011560 <GPIO18_no_drive>:
   11560:	e92d4010 	push	{r4, lr}
   11564:	e3a01000 	mov	r1, #0
   11568:	e59f4014 	ldr	r4, [pc, #20]	; 11584 <GPIO18_no_drive+0x24>
   1156c:	e1a00004 	mov	r0, r4
   11570:	eb000ce9 	bl	1491c <gpio_driver_set_direction>
   11574:	e1a00004 	mov	r0, r4
   11578:	e3a01002 	mov	r1, #2
   1157c:	e8bd4010 	pop	{r4, lr}
   11580:	ea000cec 	b	14938 <gpio_driver_set_level>
   11584:	000166d3 	.word	0x000166d3

00011588 <GPIO18_toggle_level>:
   11588:	e59f0000 	ldr	r0, [pc]	; 11590 <GPIO18_toggle_level+0x8>
   1158c:	ea000d64 	b	14b24 <gpio_driver_toggle_level>
   11590:	000166d3 	.word	0x000166d3

00011594 <GPIO18_pull_up>:
   11594:	e92d4010 	push	{r4, lr}
   11598:	e3a01000 	mov	r1, #0
   1159c:	e59f4014 	ldr	r4, [pc, #20]	; 115b8 <GPIO18_pull_up+0x24>
   115a0:	e1a00004 	mov	r0, r4
   115a4:	eb000cdc 	bl	1491c <gpio_driver_set_direction>
   115a8:	e1a00004 	mov	r0, r4
   115ac:	e3a01001 	mov	r1, #1
   115b0:	e8bd4010 	pop	{r4, lr}
   115b4:	ea000cdf 	b	14938 <gpio_driver_set_level>
   115b8:	000166d3 	.word	0x000166d3

000115bc <GPIO18_pull_down>:
   115bc:	e92d4010 	push	{r4, lr}
   115c0:	e3a01000 	mov	r1, #0
   115c4:	e59f4014 	ldr	r4, [pc, #20]	; 115e0 <GPIO18_pull_down+0x24>
   115c8:	e1a00004 	mov	r0, r4
   115cc:	eb000cd2 	bl	1491c <gpio_driver_set_direction>
   115d0:	e1a00004 	mov	r0, r4
   115d4:	e3a01000 	mov	r1, #0
   115d8:	e8bd4010 	pop	{r4, lr}
   115dc:	ea000cd5 	b	14938 <gpio_driver_set_level>
   115e0:	000166d3 	.word	0x000166d3

000115e4 <GPIO18_no_pull>:
   115e4:	eaffffdd 	b	11560 <GPIO18_no_drive>

000115e8 <GPIO18_is_high_level>:
   115e8:	e92d4010 	push	{r4, lr}
   115ec:	e59f0010 	ldr	r0, [pc, #16]	; 11604 <GPIO18_is_high_level+0x1c>
   115f0:	eb000d3e 	bl	14af0 <gpio_driver_get_level>
   115f4:	e2400001 	sub	r0, r0, #1
   115f8:	e16f0f10 	clz	r0, r0
   115fc:	e1a002a0 	lsr	r0, r0, #5
   11600:	e8bd8010 	pop	{r4, pc}
   11604:	000166d3 	.word	0x000166d3

00011608 <GPIO18_is_low_level>:
   11608:	e92d4010 	push	{r4, lr}
   1160c:	e59f000c 	ldr	r0, [pc, #12]	; 11620 <GPIO18_is_low_level+0x18>
   11610:	eb000d36 	bl	14af0 <gpio_driver_get_level>
   11614:	e16f0f10 	clz	r0, r0
   11618:	e1a002a0 	lsr	r0, r0, #5
   1161c:	e8bd8010 	pop	{r4, pc}
   11620:	000166d3 	.word	0x000166d3

00011624 <GPIO18_print_state>:
   11624:	e59f0000 	ldr	r0, [pc]	; 1162c <GPIO18_print_state+0x8>
   11628:	ea000d48 	b	14b50 <gpio_driver_print_pin_state>
   1162c:	000166d3 	.word	0x000166d3

00011630 <GPIO27_drive_high>:
   11630:	e92d4010 	push	{r4, lr}
   11634:	e3a01001 	mov	r1, #1
   11638:	e59f4014 	ldr	r4, [pc, #20]	; 11654 <GPIO27_drive_high+0x24>
   1163c:	e1a00004 	mov	r0, r4
   11640:	eb000cb5 	bl	1491c <gpio_driver_set_direction>
   11644:	e1a00004 	mov	r0, r4
   11648:	e3a01001 	mov	r1, #1
   1164c:	e8bd4010 	pop	{r4, lr}
   11650:	ea000cb8 	b	14938 <gpio_driver_set_level>
   11654:	000166d6 	.word	0x000166d6

00011658 <GPIO27_drive_low>:
   11658:	e92d4010 	push	{r4, lr}
   1165c:	e3a01001 	mov	r1, #1
   11660:	e59f4014 	ldr	r4, [pc, #20]	; 1167c <GPIO27_drive_low+0x24>
   11664:	e1a00004 	mov	r0, r4
   11668:	eb000cab 	bl	1491c <gpio_driver_set_direction>
   1166c:	e1a00004 	mov	r0, r4
   11670:	e3a01000 	mov	r1, #0
   11674:	e8bd4010 	pop	{r4, lr}
   11678:	ea000cae 	b	14938 <gpio_driver_set_level>
   1167c:	000166d6 	.word	0x000166d6

00011680 <GPIO27_no_drive>:
   11680:	e92d4010 	push	{r4, lr}
   11684:	e3a01000 	mov	r1, #0
   11688:	e59f4014 	ldr	r4, [pc, #20]	; 116a4 <GPIO27_no_drive+0x24>
   1168c:	e1a00004 	mov	r0, r4
   11690:	eb000ca1 	bl	1491c <gpio_driver_set_direction>
   11694:	e1a00004 	mov	r0, r4
   11698:	e3a01002 	mov	r1, #2
   1169c:	e8bd4010 	pop	{r4, lr}
   116a0:	ea000ca4 	b	14938 <gpio_driver_set_level>
   116a4:	000166d6 	.word	0x000166d6

000116a8 <GPIO27_toggle_level>:
   116a8:	e59f0000 	ldr	r0, [pc]	; 116b0 <GPIO27_toggle_level+0x8>
   116ac:	ea000d1c 	b	14b24 <gpio_driver_toggle_level>
   116b0:	000166d6 	.word	0x000166d6

000116b4 <GPIO27_pull_up>:
   116b4:	e92d4010 	push	{r4, lr}
   116b8:	e3a01000 	mov	r1, #0
   116bc:	e59f4014 	ldr	r4, [pc, #20]	; 116d8 <GPIO27_pull_up+0x24>
   116c0:	e1a00004 	mov	r0, r4
   116c4:	eb000c94 	bl	1491c <gpio_driver_set_direction>
   116c8:	e1a00004 	mov	r0, r4
   116cc:	e3a01001 	mov	r1, #1
   116d0:	e8bd4010 	pop	{r4, lr}
   116d4:	ea000c97 	b	14938 <gpio_driver_set_level>
   116d8:	000166d6 	.word	0x000166d6

000116dc <GPIO27_pull_down>:
   116dc:	e92d4010 	push	{r4, lr}
   116e0:	e3a01000 	mov	r1, #0
   116e4:	e59f4014 	ldr	r4, [pc, #20]	; 11700 <GPIO27_pull_down+0x24>
   116e8:	e1a00004 	mov	r0, r4
   116ec:	eb000c8a 	bl	1491c <gpio_driver_set_direction>
   116f0:	e1a00004 	mov	r0, r4
   116f4:	e3a01000 	mov	r1, #0
   116f8:	e8bd4010 	pop	{r4, lr}
   116fc:	ea000c8d 	b	14938 <gpio_driver_set_level>
   11700:	000166d6 	.word	0x000166d6

00011704 <GPIO27_no_pull>:
   11704:	eaffffdd 	b	11680 <GPIO27_no_drive>

00011708 <GPIO27_is_high_level>:
   11708:	e92d4010 	push	{r4, lr}
   1170c:	e59f0010 	ldr	r0, [pc, #16]	; 11724 <GPIO27_is_high_level+0x1c>
   11710:	eb000cf6 	bl	14af0 <gpio_driver_get_level>
   11714:	e2400001 	sub	r0, r0, #1
   11718:	e16f0f10 	clz	r0, r0
   1171c:	e1a002a0 	lsr	r0, r0, #5
   11720:	e8bd8010 	pop	{r4, pc}
   11724:	000166d6 	.word	0x000166d6

00011728 <GPIO27_is_low_level>:
   11728:	e92d4010 	push	{r4, lr}
   1172c:	e59f000c 	ldr	r0, [pc, #12]	; 11740 <GPIO27_is_low_level+0x18>
   11730:	eb000cee 	bl	14af0 <gpio_driver_get_level>
   11734:	e16f0f10 	clz	r0, r0
   11738:	e1a002a0 	lsr	r0, r0, #5
   1173c:	e8bd8010 	pop	{r4, pc}
   11740:	000166d6 	.word	0x000166d6

00011744 <GPIO27_print_state>:
   11744:	e59f0000 	ldr	r0, [pc]	; 1174c <GPIO27_print_state+0x8>
   11748:	ea000d00 	b	14b50 <gpio_driver_print_pin_state>
   1174c:	000166d6 	.word	0x000166d6

00011750 <GPIO22_drive_high>:
   11750:	e92d4010 	push	{r4, lr}
   11754:	e3a01001 	mov	r1, #1
   11758:	e59f4014 	ldr	r4, [pc, #20]	; 11774 <GPIO22_drive_high+0x24>
   1175c:	e1a00004 	mov	r0, r4
   11760:	eb000c6d 	bl	1491c <gpio_driver_set_direction>
   11764:	e1a00004 	mov	r0, r4
   11768:	e3a01001 	mov	r1, #1
   1176c:	e8bd4010 	pop	{r4, lr}
   11770:	ea000c70 	b	14938 <gpio_driver_set_level>
   11774:	000166d9 	.word	0x000166d9

00011778 <GPIO22_drive_low>:
   11778:	e92d4010 	push	{r4, lr}
   1177c:	e3a01001 	mov	r1, #1
   11780:	e59f4014 	ldr	r4, [pc, #20]	; 1179c <GPIO22_drive_low+0x24>
   11784:	e1a00004 	mov	r0, r4
   11788:	eb000c63 	bl	1491c <gpio_driver_set_direction>
   1178c:	e1a00004 	mov	r0, r4
   11790:	e3a01000 	mov	r1, #0
   11794:	e8bd4010 	pop	{r4, lr}
   11798:	ea000c66 	b	14938 <gpio_driver_set_level>
   1179c:	000166d9 	.word	0x000166d9

000117a0 <GPIO22_no_drive>:
   117a0:	e92d4010 	push	{r4, lr}
   117a4:	e3a01000 	mov	r1, #0
   117a8:	e59f4014 	ldr	r4, [pc, #20]	; 117c4 <GPIO22_no_drive+0x24>
   117ac:	e1a00004 	mov	r0, r4
   117b0:	eb000c59 	bl	1491c <gpio_driver_set_direction>
   117b4:	e1a00004 	mov	r0, r4
   117b8:	e3a01002 	mov	r1, #2
   117bc:	e8bd4010 	pop	{r4, lr}
   117c0:	ea000c5c 	b	14938 <gpio_driver_set_level>
   117c4:	000166d9 	.word	0x000166d9

000117c8 <GPIO22_toggle_level>:
   117c8:	e59f0000 	ldr	r0, [pc]	; 117d0 <GPIO22_toggle_level+0x8>
   117cc:	ea000cd4 	b	14b24 <gpio_driver_toggle_level>
   117d0:	000166d9 	.word	0x000166d9

000117d4 <GPIO22_pull_up>:
   117d4:	e92d4010 	push	{r4, lr}
   117d8:	e3a01000 	mov	r1, #0
   117dc:	e59f4014 	ldr	r4, [pc, #20]	; 117f8 <GPIO22_pull_up+0x24>
   117e0:	e1a00004 	mov	r0, r4
   117e4:	eb000c4c 	bl	1491c <gpio_driver_set_direction>
   117e8:	e1a00004 	mov	r0, r4
   117ec:	e3a01001 	mov	r1, #1
   117f0:	e8bd4010 	pop	{r4, lr}
   117f4:	ea000c4f 	b	14938 <gpio_driver_set_level>
   117f8:	000166d9 	.word	0x000166d9

000117fc <GPIO22_pull_down>:
   117fc:	e92d4010 	push	{r4, lr}
   11800:	e3a01000 	mov	r1, #0
   11804:	e59f4014 	ldr	r4, [pc, #20]	; 11820 <GPIO22_pull_down+0x24>
   11808:	e1a00004 	mov	r0, r4
   1180c:	eb000c42 	bl	1491c <gpio_driver_set_direction>
   11810:	e1a00004 	mov	r0, r4
   11814:	e3a01000 	mov	r1, #0
   11818:	e8bd4010 	pop	{r4, lr}
   1181c:	ea000c45 	b	14938 <gpio_driver_set_level>
   11820:	000166d9 	.word	0x000166d9

00011824 <GPIO22_no_pull>:
   11824:	eaffffdd 	b	117a0 <GPIO22_no_drive>

00011828 <GPIO22_is_high_level>:
   11828:	e92d4010 	push	{r4, lr}
   1182c:	e59f0010 	ldr	r0, [pc, #16]	; 11844 <GPIO22_is_high_level+0x1c>
   11830:	eb000cae 	bl	14af0 <gpio_driver_get_level>
   11834:	e2400001 	sub	r0, r0, #1
   11838:	e16f0f10 	clz	r0, r0
   1183c:	e1a002a0 	lsr	r0, r0, #5
   11840:	e8bd8010 	pop	{r4, pc}
   11844:	000166d9 	.word	0x000166d9

00011848 <GPIO22_is_low_level>:
   11848:	e92d4010 	push	{r4, lr}
   1184c:	e59f000c 	ldr	r0, [pc, #12]	; 11860 <GPIO22_is_low_level+0x18>
   11850:	eb000ca6 	bl	14af0 <gpio_driver_get_level>
   11854:	e16f0f10 	clz	r0, r0
   11858:	e1a002a0 	lsr	r0, r0, #5
   1185c:	e8bd8010 	pop	{r4, pc}
   11860:	000166d9 	.word	0x000166d9

00011864 <GPIO22_print_state>:
   11864:	e59f0000 	ldr	r0, [pc]	; 1186c <GPIO22_print_state+0x8>
   11868:	ea000cb8 	b	14b50 <gpio_driver_print_pin_state>
   1186c:	000166d9 	.word	0x000166d9

00011870 <GPIO23_drive_high>:
   11870:	e92d4010 	push	{r4, lr}
   11874:	e3a01001 	mov	r1, #1
   11878:	e59f4014 	ldr	r4, [pc, #20]	; 11894 <GPIO23_drive_high+0x24>
   1187c:	e1a00004 	mov	r0, r4
   11880:	eb000c25 	bl	1491c <gpio_driver_set_direction>
   11884:	e1a00004 	mov	r0, r4
   11888:	e3a01001 	mov	r1, #1
   1188c:	e8bd4010 	pop	{r4, lr}
   11890:	ea000c28 	b	14938 <gpio_driver_set_level>
   11894:	000166dc 	.word	0x000166dc

00011898 <GPIO23_drive_low>:
   11898:	e92d4010 	push	{r4, lr}
   1189c:	e3a01001 	mov	r1, #1
   118a0:	e59f4014 	ldr	r4, [pc, #20]	; 118bc <GPIO23_drive_low+0x24>
   118a4:	e1a00004 	mov	r0, r4
   118a8:	eb000c1b 	bl	1491c <gpio_driver_set_direction>
   118ac:	e1a00004 	mov	r0, r4
   118b0:	e3a01000 	mov	r1, #0
   118b4:	e8bd4010 	pop	{r4, lr}
   118b8:	ea000c1e 	b	14938 <gpio_driver_set_level>
   118bc:	000166dc 	.word	0x000166dc

000118c0 <GPIO23_no_drive>:
   118c0:	e92d4010 	push	{r4, lr}
   118c4:	e3a01000 	mov	r1, #0
   118c8:	e59f4014 	ldr	r4, [pc, #20]	; 118e4 <GPIO23_no_drive+0x24>
   118cc:	e1a00004 	mov	r0, r4
   118d0:	eb000c11 	bl	1491c <gpio_driver_set_direction>
   118d4:	e1a00004 	mov	r0, r4
   118d8:	e3a01002 	mov	r1, #2
   118dc:	e8bd4010 	pop	{r4, lr}
   118e0:	ea000c14 	b	14938 <gpio_driver_set_level>
   118e4:	000166dc 	.word	0x000166dc

000118e8 <GPIO23_toggle_level>:
   118e8:	e59f0000 	ldr	r0, [pc]	; 118f0 <GPIO23_toggle_level+0x8>
   118ec:	ea000c8c 	b	14b24 <gpio_driver_toggle_level>
   118f0:	000166dc 	.word	0x000166dc

000118f4 <GPIO23_pull_up>:
   118f4:	e92d4010 	push	{r4, lr}
   118f8:	e3a01000 	mov	r1, #0
   118fc:	e59f4014 	ldr	r4, [pc, #20]	; 11918 <GPIO23_pull_up+0x24>
   11900:	e1a00004 	mov	r0, r4
   11904:	eb000c04 	bl	1491c <gpio_driver_set_direction>
   11908:	e1a00004 	mov	r0, r4
   1190c:	e3a01001 	mov	r1, #1
   11910:	e8bd4010 	pop	{r4, lr}
   11914:	ea000c07 	b	14938 <gpio_driver_set_level>
   11918:	000166dc 	.word	0x000166dc

0001191c <GPIO23_pull_down>:
   1191c:	e92d4010 	push	{r4, lr}
   11920:	e3a01000 	mov	r1, #0
   11924:	e59f4014 	ldr	r4, [pc, #20]	; 11940 <GPIO23_pull_down+0x24>
   11928:	e1a00004 	mov	r0, r4
   1192c:	eb000bfa 	bl	1491c <gpio_driver_set_direction>
   11930:	e1a00004 	mov	r0, r4
   11934:	e3a01000 	mov	r1, #0
   11938:	e8bd4010 	pop	{r4, lr}
   1193c:	ea000bfd 	b	14938 <gpio_driver_set_level>
   11940:	000166dc 	.word	0x000166dc

00011944 <GPIO23_no_pull>:
   11944:	eaffffdd 	b	118c0 <GPIO23_no_drive>

00011948 <GPIO23_is_high_level>:
   11948:	e92d4010 	push	{r4, lr}
   1194c:	e59f0010 	ldr	r0, [pc, #16]	; 11964 <GPIO23_is_high_level+0x1c>
   11950:	eb000c66 	bl	14af0 <gpio_driver_get_level>
   11954:	e2400001 	sub	r0, r0, #1
   11958:	e16f0f10 	clz	r0, r0
   1195c:	e1a002a0 	lsr	r0, r0, #5
   11960:	e8bd8010 	pop	{r4, pc}
   11964:	000166dc 	.word	0x000166dc

00011968 <GPIO23_is_low_level>:
   11968:	e92d4010 	push	{r4, lr}
   1196c:	e59f000c 	ldr	r0, [pc, #12]	; 11980 <GPIO23_is_low_level+0x18>
   11970:	eb000c5e 	bl	14af0 <gpio_driver_get_level>
   11974:	e16f0f10 	clz	r0, r0
   11978:	e1a002a0 	lsr	r0, r0, #5
   1197c:	e8bd8010 	pop	{r4, pc}
   11980:	000166dc 	.word	0x000166dc

00011984 <GPIO23_print_state>:
   11984:	e59f0000 	ldr	r0, [pc]	; 1198c <GPIO23_print_state+0x8>
   11988:	ea000c70 	b	14b50 <gpio_driver_print_pin_state>
   1198c:	000166dc 	.word	0x000166dc

00011990 <GPIO24_drive_high>:
   11990:	e92d4010 	push	{r4, lr}
   11994:	e3a01001 	mov	r1, #1
   11998:	e59f4014 	ldr	r4, [pc, #20]	; 119b4 <GPIO24_drive_high+0x24>
   1199c:	e1a00004 	mov	r0, r4
   119a0:	eb000bdd 	bl	1491c <gpio_driver_set_direction>
   119a4:	e1a00004 	mov	r0, r4
   119a8:	e3a01001 	mov	r1, #1
   119ac:	e8bd4010 	pop	{r4, lr}
   119b0:	ea000be0 	b	14938 <gpio_driver_set_level>
   119b4:	000166df 	.word	0x000166df

000119b8 <GPIO24_drive_low>:
   119b8:	e92d4010 	push	{r4, lr}
   119bc:	e3a01001 	mov	r1, #1
   119c0:	e59f4014 	ldr	r4, [pc, #20]	; 119dc <GPIO24_drive_low+0x24>
   119c4:	e1a00004 	mov	r0, r4
   119c8:	eb000bd3 	bl	1491c <gpio_driver_set_direction>
   119cc:	e1a00004 	mov	r0, r4
   119d0:	e3a01000 	mov	r1, #0
   119d4:	e8bd4010 	pop	{r4, lr}
   119d8:	ea000bd6 	b	14938 <gpio_driver_set_level>
   119dc:	000166df 	.word	0x000166df

000119e0 <GPIO24_no_drive>:
   119e0:	e92d4010 	push	{r4, lr}
   119e4:	e3a01000 	mov	r1, #0
   119e8:	e59f4014 	ldr	r4, [pc, #20]	; 11a04 <GPIO24_no_drive+0x24>
   119ec:	e1a00004 	mov	r0, r4
   119f0:	eb000bc9 	bl	1491c <gpio_driver_set_direction>
   119f4:	e1a00004 	mov	r0, r4
   119f8:	e3a01002 	mov	r1, #2
   119fc:	e8bd4010 	pop	{r4, lr}
   11a00:	ea000bcc 	b	14938 <gpio_driver_set_level>
   11a04:	000166df 	.word	0x000166df

00011a08 <GPIO24_toggle_level>:
   11a08:	e59f0000 	ldr	r0, [pc]	; 11a10 <GPIO24_toggle_level+0x8>
   11a0c:	ea000c44 	b	14b24 <gpio_driver_toggle_level>
   11a10:	000166df 	.word	0x000166df

00011a14 <GPIO24_pull_up>:
   11a14:	e92d4010 	push	{r4, lr}
   11a18:	e3a01000 	mov	r1, #0
   11a1c:	e59f4014 	ldr	r4, [pc, #20]	; 11a38 <GPIO24_pull_up+0x24>
   11a20:	e1a00004 	mov	r0, r4
   11a24:	eb000bbc 	bl	1491c <gpio_driver_set_direction>
   11a28:	e1a00004 	mov	r0, r4
   11a2c:	e3a01001 	mov	r1, #1
   11a30:	e8bd4010 	pop	{r4, lr}
   11a34:	ea000bbf 	b	14938 <gpio_driver_set_level>
   11a38:	000166df 	.word	0x000166df

00011a3c <GPIO24_pull_down>:
   11a3c:	e92d4010 	push	{r4, lr}
   11a40:	e3a01000 	mov	r1, #0
   11a44:	e59f4014 	ldr	r4, [pc, #20]	; 11a60 <GPIO24_pull_down+0x24>
   11a48:	e1a00004 	mov	r0, r4
   11a4c:	eb000bb2 	bl	1491c <gpio_driver_set_direction>
   11a50:	e1a00004 	mov	r0, r4
   11a54:	e3a01000 	mov	r1, #0
   11a58:	e8bd4010 	pop	{r4, lr}
   11a5c:	ea000bb5 	b	14938 <gpio_driver_set_level>
   11a60:	000166df 	.word	0x000166df

00011a64 <GPIO24_no_pull>:
   11a64:	eaffffdd 	b	119e0 <GPIO24_no_drive>

00011a68 <GPIO24_is_high_level>:
   11a68:	e92d4010 	push	{r4, lr}
   11a6c:	e59f0010 	ldr	r0, [pc, #16]	; 11a84 <GPIO24_is_high_level+0x1c>
   11a70:	eb000c1e 	bl	14af0 <gpio_driver_get_level>
   11a74:	e2400001 	sub	r0, r0, #1
   11a78:	e16f0f10 	clz	r0, r0
   11a7c:	e1a002a0 	lsr	r0, r0, #5
   11a80:	e8bd8010 	pop	{r4, pc}
   11a84:	000166df 	.word	0x000166df

00011a88 <GPIO24_is_low_level>:
   11a88:	e92d4010 	push	{r4, lr}
   11a8c:	e59f000c 	ldr	r0, [pc, #12]	; 11aa0 <GPIO24_is_low_level+0x18>
   11a90:	eb000c16 	bl	14af0 <gpio_driver_get_level>
   11a94:	e16f0f10 	clz	r0, r0
   11a98:	e1a002a0 	lsr	r0, r0, #5
   11a9c:	e8bd8010 	pop	{r4, pc}
   11aa0:	000166df 	.word	0x000166df

00011aa4 <GPIO24_print_state>:
   11aa4:	e59f0000 	ldr	r0, [pc]	; 11aac <GPIO24_print_state+0x8>
   11aa8:	ea000c28 	b	14b50 <gpio_driver_print_pin_state>
   11aac:	000166df 	.word	0x000166df

00011ab0 <SPI_MOSI_drive_high>:
   11ab0:	e92d4010 	push	{r4, lr}
   11ab4:	e3a01001 	mov	r1, #1
   11ab8:	e59f4014 	ldr	r4, [pc, #20]	; 11ad4 <SPI_MOSI_drive_high+0x24>
   11abc:	e1a00004 	mov	r0, r4
   11ac0:	eb000b95 	bl	1491c <gpio_driver_set_direction>
   11ac4:	e1a00004 	mov	r0, r4
   11ac8:	e3a01001 	mov	r1, #1
   11acc:	e8bd4010 	pop	{r4, lr}
   11ad0:	ea000b98 	b	14938 <gpio_driver_set_level>
   11ad4:	000166e2 	.word	0x000166e2

00011ad8 <SPI_MOSI_drive_low>:
   11ad8:	e92d4010 	push	{r4, lr}
   11adc:	e3a01001 	mov	r1, #1
   11ae0:	e59f4014 	ldr	r4, [pc, #20]	; 11afc <SPI_MOSI_drive_low+0x24>
   11ae4:	e1a00004 	mov	r0, r4
   11ae8:	eb000b8b 	bl	1491c <gpio_driver_set_direction>
   11aec:	e1a00004 	mov	r0, r4
   11af0:	e3a01000 	mov	r1, #0
   11af4:	e8bd4010 	pop	{r4, lr}
   11af8:	ea000b8e 	b	14938 <gpio_driver_set_level>
   11afc:	000166e2 	.word	0x000166e2

00011b00 <SPI_MOSI_no_drive>:
   11b00:	e92d4010 	push	{r4, lr}
   11b04:	e3a01000 	mov	r1, #0
   11b08:	e59f4014 	ldr	r4, [pc, #20]	; 11b24 <SPI_MOSI_no_drive+0x24>
   11b0c:	e1a00004 	mov	r0, r4
   11b10:	eb000b81 	bl	1491c <gpio_driver_set_direction>
   11b14:	e1a00004 	mov	r0, r4
   11b18:	e3a01002 	mov	r1, #2
   11b1c:	e8bd4010 	pop	{r4, lr}
   11b20:	ea000b84 	b	14938 <gpio_driver_set_level>
   11b24:	000166e2 	.word	0x000166e2

00011b28 <SPI_MOSI_toggle_level>:
   11b28:	e59f0000 	ldr	r0, [pc]	; 11b30 <SPI_MOSI_toggle_level+0x8>
   11b2c:	ea000bfc 	b	14b24 <gpio_driver_toggle_level>
   11b30:	000166e2 	.word	0x000166e2

00011b34 <SPI_MOSI_pull_up>:
   11b34:	e92d4010 	push	{r4, lr}
   11b38:	e3a01000 	mov	r1, #0
   11b3c:	e59f4014 	ldr	r4, [pc, #20]	; 11b58 <SPI_MOSI_pull_up+0x24>
   11b40:	e1a00004 	mov	r0, r4
   11b44:	eb000b74 	bl	1491c <gpio_driver_set_direction>
   11b48:	e1a00004 	mov	r0, r4
   11b4c:	e3a01001 	mov	r1, #1
   11b50:	e8bd4010 	pop	{r4, lr}
   11b54:	ea000b77 	b	14938 <gpio_driver_set_level>
   11b58:	000166e2 	.word	0x000166e2

00011b5c <SPI_MOSI_pull_down>:
   11b5c:	e92d4010 	push	{r4, lr}
   11b60:	e3a01000 	mov	r1, #0
   11b64:	e59f4014 	ldr	r4, [pc, #20]	; 11b80 <SPI_MOSI_pull_down+0x24>
   11b68:	e1a00004 	mov	r0, r4
   11b6c:	eb000b6a 	bl	1491c <gpio_driver_set_direction>
   11b70:	e1a00004 	mov	r0, r4
   11b74:	e3a01000 	mov	r1, #0
   11b78:	e8bd4010 	pop	{r4, lr}
   11b7c:	ea000b6d 	b	14938 <gpio_driver_set_level>
   11b80:	000166e2 	.word	0x000166e2

00011b84 <SPI_MOSI_no_pull>:
   11b84:	eaffffdd 	b	11b00 <SPI_MOSI_no_drive>

00011b88 <SPI_MOSI_is_high_level>:
   11b88:	e92d4010 	push	{r4, lr}
   11b8c:	e59f0010 	ldr	r0, [pc, #16]	; 11ba4 <SPI_MOSI_is_high_level+0x1c>
   11b90:	eb000bd6 	bl	14af0 <gpio_driver_get_level>
   11b94:	e2400001 	sub	r0, r0, #1
   11b98:	e16f0f10 	clz	r0, r0
   11b9c:	e1a002a0 	lsr	r0, r0, #5
   11ba0:	e8bd8010 	pop	{r4, pc}
   11ba4:	000166e2 	.word	0x000166e2

00011ba8 <SPI_MOSI_is_low_level>:
   11ba8:	e92d4010 	push	{r4, lr}
   11bac:	e59f000c 	ldr	r0, [pc, #12]	; 11bc0 <SPI_MOSI_is_low_level+0x18>
   11bb0:	eb000bce 	bl	14af0 <gpio_driver_get_level>
   11bb4:	e16f0f10 	clz	r0, r0
   11bb8:	e1a002a0 	lsr	r0, r0, #5
   11bbc:	e8bd8010 	pop	{r4, pc}
   11bc0:	000166e2 	.word	0x000166e2

00011bc4 <SPI_MOSI_print_state>:
   11bc4:	e59f0000 	ldr	r0, [pc]	; 11bcc <SPI_MOSI_print_state+0x8>
   11bc8:	ea000be0 	b	14b50 <gpio_driver_print_pin_state>
   11bcc:	000166e2 	.word	0x000166e2

00011bd0 <SPI_MISO_drive_high>:
   11bd0:	e92d4010 	push	{r4, lr}
   11bd4:	e3a01001 	mov	r1, #1
   11bd8:	e59f4014 	ldr	r4, [pc, #20]	; 11bf4 <SPI_MISO_drive_high+0x24>
   11bdc:	e1a00004 	mov	r0, r4
   11be0:	eb000b4d 	bl	1491c <gpio_driver_set_direction>
   11be4:	e1a00004 	mov	r0, r4
   11be8:	e3a01001 	mov	r1, #1
   11bec:	e8bd4010 	pop	{r4, lr}
   11bf0:	ea000b50 	b	14938 <gpio_driver_set_level>
   11bf4:	000166e5 	.word	0x000166e5

00011bf8 <SPI_MISO_drive_low>:
   11bf8:	e92d4010 	push	{r4, lr}
   11bfc:	e3a01001 	mov	r1, #1
   11c00:	e59f4014 	ldr	r4, [pc, #20]	; 11c1c <SPI_MISO_drive_low+0x24>
   11c04:	e1a00004 	mov	r0, r4
   11c08:	eb000b43 	bl	1491c <gpio_driver_set_direction>
   11c0c:	e1a00004 	mov	r0, r4
   11c10:	e3a01000 	mov	r1, #0
   11c14:	e8bd4010 	pop	{r4, lr}
   11c18:	ea000b46 	b	14938 <gpio_driver_set_level>
   11c1c:	000166e5 	.word	0x000166e5

00011c20 <SPI_MISO_no_drive>:
   11c20:	e92d4010 	push	{r4, lr}
   11c24:	e3a01000 	mov	r1, #0
   11c28:	e59f4014 	ldr	r4, [pc, #20]	; 11c44 <SPI_MISO_no_drive+0x24>
   11c2c:	e1a00004 	mov	r0, r4
   11c30:	eb000b39 	bl	1491c <gpio_driver_set_direction>
   11c34:	e1a00004 	mov	r0, r4
   11c38:	e3a01002 	mov	r1, #2
   11c3c:	e8bd4010 	pop	{r4, lr}
   11c40:	ea000b3c 	b	14938 <gpio_driver_set_level>
   11c44:	000166e5 	.word	0x000166e5

00011c48 <SPI_MISO_toggle_level>:
   11c48:	e59f0000 	ldr	r0, [pc]	; 11c50 <SPI_MISO_toggle_level+0x8>
   11c4c:	ea000bb4 	b	14b24 <gpio_driver_toggle_level>
   11c50:	000166e5 	.word	0x000166e5

00011c54 <SPI_MISO_pull_up>:
   11c54:	e92d4010 	push	{r4, lr}
   11c58:	e3a01000 	mov	r1, #0
   11c5c:	e59f4014 	ldr	r4, [pc, #20]	; 11c78 <SPI_MISO_pull_up+0x24>
   11c60:	e1a00004 	mov	r0, r4
   11c64:	eb000b2c 	bl	1491c <gpio_driver_set_direction>
   11c68:	e1a00004 	mov	r0, r4
   11c6c:	e3a01001 	mov	r1, #1
   11c70:	e8bd4010 	pop	{r4, lr}
   11c74:	ea000b2f 	b	14938 <gpio_driver_set_level>
   11c78:	000166e5 	.word	0x000166e5

00011c7c <SPI_MISO_pull_down>:
   11c7c:	e92d4010 	push	{r4, lr}
   11c80:	e3a01000 	mov	r1, #0
   11c84:	e59f4014 	ldr	r4, [pc, #20]	; 11ca0 <SPI_MISO_pull_down+0x24>
   11c88:	e1a00004 	mov	r0, r4
   11c8c:	eb000b22 	bl	1491c <gpio_driver_set_direction>
   11c90:	e1a00004 	mov	r0, r4
   11c94:	e3a01000 	mov	r1, #0
   11c98:	e8bd4010 	pop	{r4, lr}
   11c9c:	ea000b25 	b	14938 <gpio_driver_set_level>
   11ca0:	000166e5 	.word	0x000166e5

00011ca4 <SPI_MISO_no_pull>:
   11ca4:	eaffffdd 	b	11c20 <SPI_MISO_no_drive>

00011ca8 <SPI_MISO_is_high_level>:
   11ca8:	e92d4010 	push	{r4, lr}
   11cac:	e59f0010 	ldr	r0, [pc, #16]	; 11cc4 <SPI_MISO_is_high_level+0x1c>
   11cb0:	eb000b8e 	bl	14af0 <gpio_driver_get_level>
   11cb4:	e2400001 	sub	r0, r0, #1
   11cb8:	e16f0f10 	clz	r0, r0
   11cbc:	e1a002a0 	lsr	r0, r0, #5
   11cc0:	e8bd8010 	pop	{r4, pc}
   11cc4:	000166e5 	.word	0x000166e5

00011cc8 <SPI_MISO_is_low_level>:
   11cc8:	e92d4010 	push	{r4, lr}
   11ccc:	e59f000c 	ldr	r0, [pc, #12]	; 11ce0 <SPI_MISO_is_low_level+0x18>
   11cd0:	eb000b86 	bl	14af0 <gpio_driver_get_level>
   11cd4:	e16f0f10 	clz	r0, r0
   11cd8:	e1a002a0 	lsr	r0, r0, #5
   11cdc:	e8bd8010 	pop	{r4, pc}
   11ce0:	000166e5 	.word	0x000166e5

00011ce4 <SPI_MISO_print_state>:
   11ce4:	e59f0000 	ldr	r0, [pc]	; 11cec <SPI_MISO_print_state+0x8>
   11ce8:	ea000b98 	b	14b50 <gpio_driver_print_pin_state>
   11cec:	000166e5 	.word	0x000166e5

00011cf0 <GPIO25_drive_high>:
   11cf0:	e92d4010 	push	{r4, lr}
   11cf4:	e3a01001 	mov	r1, #1
   11cf8:	e59f4014 	ldr	r4, [pc, #20]	; 11d14 <GPIO25_drive_high+0x24>
   11cfc:	e1a00004 	mov	r0, r4
   11d00:	eb000b05 	bl	1491c <gpio_driver_set_direction>
   11d04:	e1a00004 	mov	r0, r4
   11d08:	e3a01001 	mov	r1, #1
   11d0c:	e8bd4010 	pop	{r4, lr}
   11d10:	ea000b08 	b	14938 <gpio_driver_set_level>
   11d14:	000166e8 	.word	0x000166e8

00011d18 <GPIO25_drive_low>:
   11d18:	e92d4010 	push	{r4, lr}
   11d1c:	e3a01001 	mov	r1, #1
   11d20:	e59f4014 	ldr	r4, [pc, #20]	; 11d3c <GPIO25_drive_low+0x24>
   11d24:	e1a00004 	mov	r0, r4
   11d28:	eb000afb 	bl	1491c <gpio_driver_set_direction>
   11d2c:	e1a00004 	mov	r0, r4
   11d30:	e3a01000 	mov	r1, #0
   11d34:	e8bd4010 	pop	{r4, lr}
   11d38:	ea000afe 	b	14938 <gpio_driver_set_level>
   11d3c:	000166e8 	.word	0x000166e8

00011d40 <GPIO25_no_drive>:
   11d40:	e92d4010 	push	{r4, lr}
   11d44:	e3a01000 	mov	r1, #0
   11d48:	e59f4014 	ldr	r4, [pc, #20]	; 11d64 <GPIO25_no_drive+0x24>
   11d4c:	e1a00004 	mov	r0, r4
   11d50:	eb000af1 	bl	1491c <gpio_driver_set_direction>
   11d54:	e1a00004 	mov	r0, r4
   11d58:	e3a01002 	mov	r1, #2
   11d5c:	e8bd4010 	pop	{r4, lr}
   11d60:	ea000af4 	b	14938 <gpio_driver_set_level>
   11d64:	000166e8 	.word	0x000166e8

00011d68 <GPIO25_toggle_level>:
   11d68:	e59f0000 	ldr	r0, [pc]	; 11d70 <GPIO25_toggle_level+0x8>
   11d6c:	ea000b6c 	b	14b24 <gpio_driver_toggle_level>
   11d70:	000166e8 	.word	0x000166e8

00011d74 <GPIO25_pull_up>:
   11d74:	e92d4010 	push	{r4, lr}
   11d78:	e3a01000 	mov	r1, #0
   11d7c:	e59f4014 	ldr	r4, [pc, #20]	; 11d98 <GPIO25_pull_up+0x24>
   11d80:	e1a00004 	mov	r0, r4
   11d84:	eb000ae4 	bl	1491c <gpio_driver_set_direction>
   11d88:	e1a00004 	mov	r0, r4
   11d8c:	e3a01001 	mov	r1, #1
   11d90:	e8bd4010 	pop	{r4, lr}
   11d94:	ea000ae7 	b	14938 <gpio_driver_set_level>
   11d98:	000166e8 	.word	0x000166e8

00011d9c <GPIO25_pull_down>:
   11d9c:	e92d4010 	push	{r4, lr}
   11da0:	e3a01000 	mov	r1, #0
   11da4:	e59f4014 	ldr	r4, [pc, #20]	; 11dc0 <GPIO25_pull_down+0x24>
   11da8:	e1a00004 	mov	r0, r4
   11dac:	eb000ada 	bl	1491c <gpio_driver_set_direction>
   11db0:	e1a00004 	mov	r0, r4
   11db4:	e3a01000 	mov	r1, #0
   11db8:	e8bd4010 	pop	{r4, lr}
   11dbc:	ea000add 	b	14938 <gpio_driver_set_level>
   11dc0:	000166e8 	.word	0x000166e8

00011dc4 <GPIO25_no_pull>:
   11dc4:	eaffffdd 	b	11d40 <GPIO25_no_drive>

00011dc8 <GPIO25_is_high_level>:
   11dc8:	e92d4010 	push	{r4, lr}
   11dcc:	e59f0010 	ldr	r0, [pc, #16]	; 11de4 <GPIO25_is_high_level+0x1c>
   11dd0:	eb000b46 	bl	14af0 <gpio_driver_get_level>
   11dd4:	e2400001 	sub	r0, r0, #1
   11dd8:	e16f0f10 	clz	r0, r0
   11ddc:	e1a002a0 	lsr	r0, r0, #5
   11de0:	e8bd8010 	pop	{r4, pc}
   11de4:	000166e8 	.word	0x000166e8

00011de8 <GPIO25_is_low_level>:
   11de8:	e92d4010 	push	{r4, lr}
   11dec:	e59f000c 	ldr	r0, [pc, #12]	; 11e00 <GPIO25_is_low_level+0x18>
   11df0:	eb000b3e 	bl	14af0 <gpio_driver_get_level>
   11df4:	e16f0f10 	clz	r0, r0
   11df8:	e1a002a0 	lsr	r0, r0, #5
   11dfc:	e8bd8010 	pop	{r4, pc}
   11e00:	000166e8 	.word	0x000166e8

00011e04 <GPIO25_print_state>:
   11e04:	e59f0000 	ldr	r0, [pc]	; 11e0c <GPIO25_print_state+0x8>
   11e08:	ea000b50 	b	14b50 <gpio_driver_print_pin_state>
   11e0c:	000166e8 	.word	0x000166e8

00011e10 <SPI_SCLK_drive_high>:
   11e10:	e92d4010 	push	{r4, lr}
   11e14:	e3a01001 	mov	r1, #1
   11e18:	e59f4014 	ldr	r4, [pc, #20]	; 11e34 <SPI_SCLK_drive_high+0x24>
   11e1c:	e1a00004 	mov	r0, r4
   11e20:	eb000abd 	bl	1491c <gpio_driver_set_direction>
   11e24:	e1a00004 	mov	r0, r4
   11e28:	e3a01001 	mov	r1, #1
   11e2c:	e8bd4010 	pop	{r4, lr}
   11e30:	ea000ac0 	b	14938 <gpio_driver_set_level>
   11e34:	000166eb 	.word	0x000166eb

00011e38 <SPI_SCLK_drive_low>:
   11e38:	e92d4010 	push	{r4, lr}
   11e3c:	e3a01001 	mov	r1, #1
   11e40:	e59f4014 	ldr	r4, [pc, #20]	; 11e5c <SPI_SCLK_drive_low+0x24>
   11e44:	e1a00004 	mov	r0, r4
   11e48:	eb000ab3 	bl	1491c <gpio_driver_set_direction>
   11e4c:	e1a00004 	mov	r0, r4
   11e50:	e3a01000 	mov	r1, #0
   11e54:	e8bd4010 	pop	{r4, lr}
   11e58:	ea000ab6 	b	14938 <gpio_driver_set_level>
   11e5c:	000166eb 	.word	0x000166eb

00011e60 <SPI_SCLK_no_drive>:
   11e60:	e92d4010 	push	{r4, lr}
   11e64:	e3a01000 	mov	r1, #0
   11e68:	e59f4014 	ldr	r4, [pc, #20]	; 11e84 <SPI_SCLK_no_drive+0x24>
   11e6c:	e1a00004 	mov	r0, r4
   11e70:	eb000aa9 	bl	1491c <gpio_driver_set_direction>
   11e74:	e1a00004 	mov	r0, r4
   11e78:	e3a01002 	mov	r1, #2
   11e7c:	e8bd4010 	pop	{r4, lr}
   11e80:	ea000aac 	b	14938 <gpio_driver_set_level>
   11e84:	000166eb 	.word	0x000166eb

00011e88 <SPI_SCLK_toggle_level>:
   11e88:	e59f0000 	ldr	r0, [pc]	; 11e90 <SPI_SCLK_toggle_level+0x8>
   11e8c:	ea000b24 	b	14b24 <gpio_driver_toggle_level>
   11e90:	000166eb 	.word	0x000166eb

00011e94 <SPI_SCLK_pull_up>:
   11e94:	e92d4010 	push	{r4, lr}
   11e98:	e3a01000 	mov	r1, #0
   11e9c:	e59f4014 	ldr	r4, [pc, #20]	; 11eb8 <SPI_SCLK_pull_up+0x24>
   11ea0:	e1a00004 	mov	r0, r4
   11ea4:	eb000a9c 	bl	1491c <gpio_driver_set_direction>
   11ea8:	e1a00004 	mov	r0, r4
   11eac:	e3a01001 	mov	r1, #1
   11eb0:	e8bd4010 	pop	{r4, lr}
   11eb4:	ea000a9f 	b	14938 <gpio_driver_set_level>
   11eb8:	000166eb 	.word	0x000166eb

00011ebc <SPI_SCLK_pull_down>:
   11ebc:	e92d4010 	push	{r4, lr}
   11ec0:	e3a01000 	mov	r1, #0
   11ec4:	e59f4014 	ldr	r4, [pc, #20]	; 11ee0 <SPI_SCLK_pull_down+0x24>
   11ec8:	e1a00004 	mov	r0, r4
   11ecc:	eb000a92 	bl	1491c <gpio_driver_set_direction>
   11ed0:	e1a00004 	mov	r0, r4
   11ed4:	e3a01000 	mov	r1, #0
   11ed8:	e8bd4010 	pop	{r4, lr}
   11edc:	ea000a95 	b	14938 <gpio_driver_set_level>
   11ee0:	000166eb 	.word	0x000166eb

00011ee4 <SPI_SCLK_no_pull>:
   11ee4:	eaffffdd 	b	11e60 <SPI_SCLK_no_drive>

00011ee8 <SPI_SCLK_is_high_level>:
   11ee8:	e92d4010 	push	{r4, lr}
   11eec:	e59f0010 	ldr	r0, [pc, #16]	; 11f04 <SPI_SCLK_is_high_level+0x1c>
   11ef0:	eb000afe 	bl	14af0 <gpio_driver_get_level>
   11ef4:	e2400001 	sub	r0, r0, #1
   11ef8:	e16f0f10 	clz	r0, r0
   11efc:	e1a002a0 	lsr	r0, r0, #5
   11f00:	e8bd8010 	pop	{r4, pc}
   11f04:	000166eb 	.word	0x000166eb

00011f08 <SPI_SCLK_is_low_level>:
   11f08:	e92d4010 	push	{r4, lr}
   11f0c:	e59f000c 	ldr	r0, [pc, #12]	; 11f20 <SPI_SCLK_is_low_level+0x18>
   11f10:	eb000af6 	bl	14af0 <gpio_driver_get_level>
   11f14:	e16f0f10 	clz	r0, r0
   11f18:	e1a002a0 	lsr	r0, r0, #5
   11f1c:	e8bd8010 	pop	{r4, pc}
   11f20:	000166eb 	.word	0x000166eb

00011f24 <SPI_SCLK_print_state>:
   11f24:	e59f0000 	ldr	r0, [pc]	; 11f2c <SPI_SCLK_print_state+0x8>
   11f28:	ea000b08 	b	14b50 <gpio_driver_print_pin_state>
   11f2c:	000166eb 	.word	0x000166eb

00011f30 <SPI_CE0_drive_high>:
   11f30:	e92d4010 	push	{r4, lr}
   11f34:	e3a01001 	mov	r1, #1
   11f38:	e59f4014 	ldr	r4, [pc, #20]	; 11f54 <SPI_CE0_drive_high+0x24>
   11f3c:	e1a00004 	mov	r0, r4
   11f40:	eb000a75 	bl	1491c <gpio_driver_set_direction>
   11f44:	e1a00004 	mov	r0, r4
   11f48:	e3a01001 	mov	r1, #1
   11f4c:	e8bd4010 	pop	{r4, lr}
   11f50:	ea000a78 	b	14938 <gpio_driver_set_level>
   11f54:	000166ee 	.word	0x000166ee

00011f58 <SPI_CE0_drive_low>:
   11f58:	e92d4010 	push	{r4, lr}
   11f5c:	e3a01001 	mov	r1, #1
   11f60:	e59f4014 	ldr	r4, [pc, #20]	; 11f7c <SPI_CE0_drive_low+0x24>
   11f64:	e1a00004 	mov	r0, r4
   11f68:	eb000a6b 	bl	1491c <gpio_driver_set_direction>
   11f6c:	e1a00004 	mov	r0, r4
   11f70:	e3a01000 	mov	r1, #0
   11f74:	e8bd4010 	pop	{r4, lr}
   11f78:	ea000a6e 	b	14938 <gpio_driver_set_level>
   11f7c:	000166ee 	.word	0x000166ee

00011f80 <SPI_CE0_no_drive>:
   11f80:	e92d4010 	push	{r4, lr}
   11f84:	e3a01000 	mov	r1, #0
   11f88:	e59f4014 	ldr	r4, [pc, #20]	; 11fa4 <SPI_CE0_no_drive+0x24>
   11f8c:	e1a00004 	mov	r0, r4
   11f90:	eb000a61 	bl	1491c <gpio_driver_set_direction>
   11f94:	e1a00004 	mov	r0, r4
   11f98:	e3a01002 	mov	r1, #2
   11f9c:	e8bd4010 	pop	{r4, lr}
   11fa0:	ea000a64 	b	14938 <gpio_driver_set_level>
   11fa4:	000166ee 	.word	0x000166ee

00011fa8 <SPI_CE0_toggle_level>:
   11fa8:	e59f0000 	ldr	r0, [pc]	; 11fb0 <SPI_CE0_toggle_level+0x8>
   11fac:	ea000adc 	b	14b24 <gpio_driver_toggle_level>
   11fb0:	000166ee 	.word	0x000166ee

00011fb4 <SPI_CE0_pull_up>:
   11fb4:	e92d4010 	push	{r4, lr}
   11fb8:	e3a01000 	mov	r1, #0
   11fbc:	e59f4014 	ldr	r4, [pc, #20]	; 11fd8 <SPI_CE0_pull_up+0x24>
   11fc0:	e1a00004 	mov	r0, r4
   11fc4:	eb000a54 	bl	1491c <gpio_driver_set_direction>
   11fc8:	e1a00004 	mov	r0, r4
   11fcc:	e3a01001 	mov	r1, #1
   11fd0:	e8bd4010 	pop	{r4, lr}
   11fd4:	ea000a57 	b	14938 <gpio_driver_set_level>
   11fd8:	000166ee 	.word	0x000166ee

00011fdc <SPI_CE0_pull_down>:
   11fdc:	e92d4010 	push	{r4, lr}
   11fe0:	e3a01000 	mov	r1, #0
   11fe4:	e59f4014 	ldr	r4, [pc, #20]	; 12000 <SPI_CE0_pull_down+0x24>
   11fe8:	e1a00004 	mov	r0, r4
   11fec:	eb000a4a 	bl	1491c <gpio_driver_set_direction>
   11ff0:	e1a00004 	mov	r0, r4
   11ff4:	e3a01000 	mov	r1, #0
   11ff8:	e8bd4010 	pop	{r4, lr}
   11ffc:	ea000a4d 	b	14938 <gpio_driver_set_level>
   12000:	000166ee 	.word	0x000166ee

00012004 <SPI_CE0_no_pull>:
   12004:	eaffffdd 	b	11f80 <SPI_CE0_no_drive>

00012008 <SPI_CE0_is_high_level>:
   12008:	e92d4010 	push	{r4, lr}
   1200c:	e59f0010 	ldr	r0, [pc, #16]	; 12024 <SPI_CE0_is_high_level+0x1c>
   12010:	eb000ab6 	bl	14af0 <gpio_driver_get_level>
   12014:	e2400001 	sub	r0, r0, #1
   12018:	e16f0f10 	clz	r0, r0
   1201c:	e1a002a0 	lsr	r0, r0, #5
   12020:	e8bd8010 	pop	{r4, pc}
   12024:	000166ee 	.word	0x000166ee

00012028 <SPI_CE0_is_low_level>:
   12028:	e92d4010 	push	{r4, lr}
   1202c:	e59f000c 	ldr	r0, [pc, #12]	; 12040 <SPI_CE0_is_low_level+0x18>
   12030:	eb000aae 	bl	14af0 <gpio_driver_get_level>
   12034:	e16f0f10 	clz	r0, r0
   12038:	e1a002a0 	lsr	r0, r0, #5
   1203c:	e8bd8010 	pop	{r4, pc}
   12040:	000166ee 	.word	0x000166ee

00012044 <SPI_CE0_print_state>:
   12044:	e59f0000 	ldr	r0, [pc]	; 1204c <SPI_CE0_print_state+0x8>
   12048:	ea000ac0 	b	14b50 <gpio_driver_print_pin_state>
   1204c:	000166ee 	.word	0x000166ee

00012050 <SPI_CE1_drive_high>:
   12050:	e92d4010 	push	{r4, lr}
   12054:	e3a01001 	mov	r1, #1
   12058:	e59f4014 	ldr	r4, [pc, #20]	; 12074 <SPI_CE1_drive_high+0x24>
   1205c:	e1a00004 	mov	r0, r4
   12060:	eb000a2d 	bl	1491c <gpio_driver_set_direction>
   12064:	e1a00004 	mov	r0, r4
   12068:	e3a01001 	mov	r1, #1
   1206c:	e8bd4010 	pop	{r4, lr}
   12070:	ea000a30 	b	14938 <gpio_driver_set_level>
   12074:	000166f1 	.word	0x000166f1

00012078 <SPI_CE1_drive_low>:
   12078:	e92d4010 	push	{r4, lr}
   1207c:	e3a01001 	mov	r1, #1
   12080:	e59f4014 	ldr	r4, [pc, #20]	; 1209c <SPI_CE1_drive_low+0x24>
   12084:	e1a00004 	mov	r0, r4
   12088:	eb000a23 	bl	1491c <gpio_driver_set_direction>
   1208c:	e1a00004 	mov	r0, r4
   12090:	e3a01000 	mov	r1, #0
   12094:	e8bd4010 	pop	{r4, lr}
   12098:	ea000a26 	b	14938 <gpio_driver_set_level>
   1209c:	000166f1 	.word	0x000166f1

000120a0 <SPI_CE1_no_drive>:
   120a0:	e92d4010 	push	{r4, lr}
   120a4:	e3a01000 	mov	r1, #0
   120a8:	e59f4014 	ldr	r4, [pc, #20]	; 120c4 <SPI_CE1_no_drive+0x24>
   120ac:	e1a00004 	mov	r0, r4
   120b0:	eb000a19 	bl	1491c <gpio_driver_set_direction>
   120b4:	e1a00004 	mov	r0, r4
   120b8:	e3a01002 	mov	r1, #2
   120bc:	e8bd4010 	pop	{r4, lr}
   120c0:	ea000a1c 	b	14938 <gpio_driver_set_level>
   120c4:	000166f1 	.word	0x000166f1

000120c8 <SPI_CE1_toggle_level>:
   120c8:	e59f0000 	ldr	r0, [pc]	; 120d0 <SPI_CE1_toggle_level+0x8>
   120cc:	ea000a94 	b	14b24 <gpio_driver_toggle_level>
   120d0:	000166f1 	.word	0x000166f1

000120d4 <SPI_CE1_pull_up>:
   120d4:	e92d4010 	push	{r4, lr}
   120d8:	e3a01000 	mov	r1, #0
   120dc:	e59f4014 	ldr	r4, [pc, #20]	; 120f8 <SPI_CE1_pull_up+0x24>
   120e0:	e1a00004 	mov	r0, r4
   120e4:	eb000a0c 	bl	1491c <gpio_driver_set_direction>
   120e8:	e1a00004 	mov	r0, r4
   120ec:	e3a01001 	mov	r1, #1
   120f0:	e8bd4010 	pop	{r4, lr}
   120f4:	ea000a0f 	b	14938 <gpio_driver_set_level>
   120f8:	000166f1 	.word	0x000166f1

000120fc <SPI_CE1_pull_down>:
   120fc:	e92d4010 	push	{r4, lr}
   12100:	e3a01000 	mov	r1, #0
   12104:	e59f4014 	ldr	r4, [pc, #20]	; 12120 <SPI_CE1_pull_down+0x24>
   12108:	e1a00004 	mov	r0, r4
   1210c:	eb000a02 	bl	1491c <gpio_driver_set_direction>
   12110:	e1a00004 	mov	r0, r4
   12114:	e3a01000 	mov	r1, #0
   12118:	e8bd4010 	pop	{r4, lr}
   1211c:	ea000a05 	b	14938 <gpio_driver_set_level>
   12120:	000166f1 	.word	0x000166f1

00012124 <SPI_CE1_no_pull>:
   12124:	eaffffdd 	b	120a0 <SPI_CE1_no_drive>

00012128 <SPI_CE1_is_high_level>:
   12128:	e92d4010 	push	{r4, lr}
   1212c:	e59f0010 	ldr	r0, [pc, #16]	; 12144 <SPI_CE1_is_high_level+0x1c>
   12130:	eb000a6e 	bl	14af0 <gpio_driver_get_level>
   12134:	e2400001 	sub	r0, r0, #1
   12138:	e16f0f10 	clz	r0, r0
   1213c:	e1a002a0 	lsr	r0, r0, #5
   12140:	e8bd8010 	pop	{r4, pc}
   12144:	000166f1 	.word	0x000166f1

00012148 <SPI_CE1_is_low_level>:
   12148:	e92d4010 	push	{r4, lr}
   1214c:	e59f000c 	ldr	r0, [pc, #12]	; 12160 <SPI_CE1_is_low_level+0x18>
   12150:	eb000a66 	bl	14af0 <gpio_driver_get_level>
   12154:	e16f0f10 	clz	r0, r0
   12158:	e1a002a0 	lsr	r0, r0, #5
   1215c:	e8bd8010 	pop	{r4, pc}
   12160:	000166f1 	.word	0x000166f1

00012164 <SPI_CE1_print_state>:
   12164:	e59f0000 	ldr	r0, [pc]	; 1216c <SPI_CE1_print_state+0x8>
   12168:	ea000a78 	b	14b50 <gpio_driver_print_pin_state>
   1216c:	000166f1 	.word	0x000166f1

00012170 <GPIO05_drive_high>:
   12170:	e92d4010 	push	{r4, lr}
   12174:	e3a01001 	mov	r1, #1
   12178:	e59f4014 	ldr	r4, [pc, #20]	; 12194 <GPIO05_drive_high+0x24>
   1217c:	e1a00004 	mov	r0, r4
   12180:	eb0009e5 	bl	1491c <gpio_driver_set_direction>
   12184:	e1a00004 	mov	r0, r4
   12188:	e3a01001 	mov	r1, #1
   1218c:	e8bd4010 	pop	{r4, lr}
   12190:	ea0009e8 	b	14938 <gpio_driver_set_level>
   12194:	000166f4 	.word	0x000166f4

00012198 <GPIO05_drive_low>:
   12198:	e92d4010 	push	{r4, lr}
   1219c:	e3a01001 	mov	r1, #1
   121a0:	e59f4014 	ldr	r4, [pc, #20]	; 121bc <GPIO05_drive_low+0x24>
   121a4:	e1a00004 	mov	r0, r4
   121a8:	eb0009db 	bl	1491c <gpio_driver_set_direction>
   121ac:	e1a00004 	mov	r0, r4
   121b0:	e3a01000 	mov	r1, #0
   121b4:	e8bd4010 	pop	{r4, lr}
   121b8:	ea0009de 	b	14938 <gpio_driver_set_level>
   121bc:	000166f4 	.word	0x000166f4

000121c0 <GPIO05_no_drive>:
   121c0:	e92d4010 	push	{r4, lr}
   121c4:	e3a01000 	mov	r1, #0
   121c8:	e59f4014 	ldr	r4, [pc, #20]	; 121e4 <GPIO05_no_drive+0x24>
   121cc:	e1a00004 	mov	r0, r4
   121d0:	eb0009d1 	bl	1491c <gpio_driver_set_direction>
   121d4:	e1a00004 	mov	r0, r4
   121d8:	e3a01002 	mov	r1, #2
   121dc:	e8bd4010 	pop	{r4, lr}
   121e0:	ea0009d4 	b	14938 <gpio_driver_set_level>
   121e4:	000166f4 	.word	0x000166f4

000121e8 <GPIO05_toggle_level>:
   121e8:	e59f0000 	ldr	r0, [pc]	; 121f0 <GPIO05_toggle_level+0x8>
   121ec:	ea000a4c 	b	14b24 <gpio_driver_toggle_level>
   121f0:	000166f4 	.word	0x000166f4

000121f4 <GPIO05_pull_up>:
   121f4:	e92d4010 	push	{r4, lr}
   121f8:	e3a01000 	mov	r1, #0
   121fc:	e59f4014 	ldr	r4, [pc, #20]	; 12218 <GPIO05_pull_up+0x24>
   12200:	e1a00004 	mov	r0, r4
   12204:	eb0009c4 	bl	1491c <gpio_driver_set_direction>
   12208:	e1a00004 	mov	r0, r4
   1220c:	e3a01001 	mov	r1, #1
   12210:	e8bd4010 	pop	{r4, lr}
   12214:	ea0009c7 	b	14938 <gpio_driver_set_level>
   12218:	000166f4 	.word	0x000166f4

0001221c <GPIO05_pull_down>:
   1221c:	e92d4010 	push	{r4, lr}
   12220:	e3a01000 	mov	r1, #0
   12224:	e59f4014 	ldr	r4, [pc, #20]	; 12240 <GPIO05_pull_down+0x24>
   12228:	e1a00004 	mov	r0, r4
   1222c:	eb0009ba 	bl	1491c <gpio_driver_set_direction>
   12230:	e1a00004 	mov	r0, r4
   12234:	e3a01000 	mov	r1, #0
   12238:	e8bd4010 	pop	{r4, lr}
   1223c:	ea0009bd 	b	14938 <gpio_driver_set_level>
   12240:	000166f4 	.word	0x000166f4

00012244 <GPIO05_no_pull>:
   12244:	eaffffdd 	b	121c0 <GPIO05_no_drive>

00012248 <GPIO05_is_high_level>:
   12248:	e92d4010 	push	{r4, lr}
   1224c:	e59f0010 	ldr	r0, [pc, #16]	; 12264 <GPIO05_is_high_level+0x1c>
   12250:	eb000a26 	bl	14af0 <gpio_driver_get_level>
   12254:	e2400001 	sub	r0, r0, #1
   12258:	e16f0f10 	clz	r0, r0
   1225c:	e1a002a0 	lsr	r0, r0, #5
   12260:	e8bd8010 	pop	{r4, pc}
   12264:	000166f4 	.word	0x000166f4

00012268 <GPIO05_is_low_level>:
   12268:	e92d4010 	push	{r4, lr}
   1226c:	e59f000c 	ldr	r0, [pc, #12]	; 12280 <GPIO05_is_low_level+0x18>
   12270:	eb000a1e 	bl	14af0 <gpio_driver_get_level>
   12274:	e16f0f10 	clz	r0, r0
   12278:	e1a002a0 	lsr	r0, r0, #5
   1227c:	e8bd8010 	pop	{r4, pc}
   12280:	000166f4 	.word	0x000166f4

00012284 <GPIO05_print_state>:
   12284:	e59f0000 	ldr	r0, [pc]	; 1228c <GPIO05_print_state+0x8>
   12288:	ea000a30 	b	14b50 <gpio_driver_print_pin_state>
   1228c:	000166f4 	.word	0x000166f4

00012290 <GPIO06_drive_high>:
   12290:	e92d4010 	push	{r4, lr}
   12294:	e3a01001 	mov	r1, #1
   12298:	e59f4014 	ldr	r4, [pc, #20]	; 122b4 <GPIO06_drive_high+0x24>
   1229c:	e1a00004 	mov	r0, r4
   122a0:	eb00099d 	bl	1491c <gpio_driver_set_direction>
   122a4:	e1a00004 	mov	r0, r4
   122a8:	e3a01001 	mov	r1, #1
   122ac:	e8bd4010 	pop	{r4, lr}
   122b0:	ea0009a0 	b	14938 <gpio_driver_set_level>
   122b4:	000166f7 	.word	0x000166f7

000122b8 <GPIO06_drive_low>:
   122b8:	e92d4010 	push	{r4, lr}
   122bc:	e3a01001 	mov	r1, #1
   122c0:	e59f4014 	ldr	r4, [pc, #20]	; 122dc <GPIO06_drive_low+0x24>
   122c4:	e1a00004 	mov	r0, r4
   122c8:	eb000993 	bl	1491c <gpio_driver_set_direction>
   122cc:	e1a00004 	mov	r0, r4
   122d0:	e3a01000 	mov	r1, #0
   122d4:	e8bd4010 	pop	{r4, lr}
   122d8:	ea000996 	b	14938 <gpio_driver_set_level>
   122dc:	000166f7 	.word	0x000166f7

000122e0 <GPIO06_no_drive>:
   122e0:	e92d4010 	push	{r4, lr}
   122e4:	e3a01000 	mov	r1, #0
   122e8:	e59f4014 	ldr	r4, [pc, #20]	; 12304 <GPIO06_no_drive+0x24>
   122ec:	e1a00004 	mov	r0, r4
   122f0:	eb000989 	bl	1491c <gpio_driver_set_direction>
   122f4:	e1a00004 	mov	r0, r4
   122f8:	e3a01002 	mov	r1, #2
   122fc:	e8bd4010 	pop	{r4, lr}
   12300:	ea00098c 	b	14938 <gpio_driver_set_level>
   12304:	000166f7 	.word	0x000166f7

00012308 <GPIO06_toggle_level>:
   12308:	e59f0000 	ldr	r0, [pc]	; 12310 <GPIO06_toggle_level+0x8>
   1230c:	ea000a04 	b	14b24 <gpio_driver_toggle_level>
   12310:	000166f7 	.word	0x000166f7

00012314 <GPIO06_pull_up>:
   12314:	e92d4010 	push	{r4, lr}
   12318:	e3a01000 	mov	r1, #0
   1231c:	e59f4014 	ldr	r4, [pc, #20]	; 12338 <GPIO06_pull_up+0x24>
   12320:	e1a00004 	mov	r0, r4
   12324:	eb00097c 	bl	1491c <gpio_driver_set_direction>
   12328:	e1a00004 	mov	r0, r4
   1232c:	e3a01001 	mov	r1, #1
   12330:	e8bd4010 	pop	{r4, lr}
   12334:	ea00097f 	b	14938 <gpio_driver_set_level>
   12338:	000166f7 	.word	0x000166f7

0001233c <GPIO06_pull_down>:
   1233c:	e92d4010 	push	{r4, lr}
   12340:	e3a01000 	mov	r1, #0
   12344:	e59f4014 	ldr	r4, [pc, #20]	; 12360 <GPIO06_pull_down+0x24>
   12348:	e1a00004 	mov	r0, r4
   1234c:	eb000972 	bl	1491c <gpio_driver_set_direction>
   12350:	e1a00004 	mov	r0, r4
   12354:	e3a01000 	mov	r1, #0
   12358:	e8bd4010 	pop	{r4, lr}
   1235c:	ea000975 	b	14938 <gpio_driver_set_level>
   12360:	000166f7 	.word	0x000166f7

00012364 <GPIO06_no_pull>:
   12364:	eaffffdd 	b	122e0 <GPIO06_no_drive>

00012368 <GPIO06_is_high_level>:
   12368:	e92d4010 	push	{r4, lr}
   1236c:	e59f0010 	ldr	r0, [pc, #16]	; 12384 <GPIO06_is_high_level+0x1c>
   12370:	eb0009de 	bl	14af0 <gpio_driver_get_level>
   12374:	e2400001 	sub	r0, r0, #1
   12378:	e16f0f10 	clz	r0, r0
   1237c:	e1a002a0 	lsr	r0, r0, #5
   12380:	e8bd8010 	pop	{r4, pc}
   12384:	000166f7 	.word	0x000166f7

00012388 <GPIO06_is_low_level>:
   12388:	e92d4010 	push	{r4, lr}
   1238c:	e59f000c 	ldr	r0, [pc, #12]	; 123a0 <GPIO06_is_low_level+0x18>
   12390:	eb0009d6 	bl	14af0 <gpio_driver_get_level>
   12394:	e16f0f10 	clz	r0, r0
   12398:	e1a002a0 	lsr	r0, r0, #5
   1239c:	e8bd8010 	pop	{r4, pc}
   123a0:	000166f7 	.word	0x000166f7

000123a4 <GPIO06_print_state>:
   123a4:	e59f0000 	ldr	r0, [pc]	; 123ac <GPIO06_print_state+0x8>
   123a8:	ea0009e8 	b	14b50 <gpio_driver_print_pin_state>
   123ac:	000166f7 	.word	0x000166f7

000123b0 <GPIO12_drive_high>:
   123b0:	e92d4010 	push	{r4, lr}
   123b4:	e3a01001 	mov	r1, #1
   123b8:	e59f4014 	ldr	r4, [pc, #20]	; 123d4 <GPIO12_drive_high+0x24>
   123bc:	e1a00004 	mov	r0, r4
   123c0:	eb000955 	bl	1491c <gpio_driver_set_direction>
   123c4:	e1a00004 	mov	r0, r4
   123c8:	e3a01001 	mov	r1, #1
   123cc:	e8bd4010 	pop	{r4, lr}
   123d0:	ea000958 	b	14938 <gpio_driver_set_level>
   123d4:	000166fa 	.word	0x000166fa

000123d8 <GPIO12_drive_low>:
   123d8:	e92d4010 	push	{r4, lr}
   123dc:	e3a01001 	mov	r1, #1
   123e0:	e59f4014 	ldr	r4, [pc, #20]	; 123fc <GPIO12_drive_low+0x24>
   123e4:	e1a00004 	mov	r0, r4
   123e8:	eb00094b 	bl	1491c <gpio_driver_set_direction>
   123ec:	e1a00004 	mov	r0, r4
   123f0:	e3a01000 	mov	r1, #0
   123f4:	e8bd4010 	pop	{r4, lr}
   123f8:	ea00094e 	b	14938 <gpio_driver_set_level>
   123fc:	000166fa 	.word	0x000166fa

00012400 <GPIO12_no_drive>:
   12400:	e92d4010 	push	{r4, lr}
   12404:	e3a01000 	mov	r1, #0
   12408:	e59f4014 	ldr	r4, [pc, #20]	; 12424 <GPIO12_no_drive+0x24>
   1240c:	e1a00004 	mov	r0, r4
   12410:	eb000941 	bl	1491c <gpio_driver_set_direction>
   12414:	e1a00004 	mov	r0, r4
   12418:	e3a01002 	mov	r1, #2
   1241c:	e8bd4010 	pop	{r4, lr}
   12420:	ea000944 	b	14938 <gpio_driver_set_level>
   12424:	000166fa 	.word	0x000166fa

00012428 <GPIO12_toggle_level>:
   12428:	e59f0000 	ldr	r0, [pc]	; 12430 <GPIO12_toggle_level+0x8>
   1242c:	ea0009bc 	b	14b24 <gpio_driver_toggle_level>
   12430:	000166fa 	.word	0x000166fa

00012434 <GPIO12_pull_up>:
   12434:	e92d4010 	push	{r4, lr}
   12438:	e3a01000 	mov	r1, #0
   1243c:	e59f4014 	ldr	r4, [pc, #20]	; 12458 <GPIO12_pull_up+0x24>
   12440:	e1a00004 	mov	r0, r4
   12444:	eb000934 	bl	1491c <gpio_driver_set_direction>
   12448:	e1a00004 	mov	r0, r4
   1244c:	e3a01001 	mov	r1, #1
   12450:	e8bd4010 	pop	{r4, lr}
   12454:	ea000937 	b	14938 <gpio_driver_set_level>
   12458:	000166fa 	.word	0x000166fa

0001245c <GPIO12_pull_down>:
   1245c:	e92d4010 	push	{r4, lr}
   12460:	e3a01000 	mov	r1, #0
   12464:	e59f4014 	ldr	r4, [pc, #20]	; 12480 <GPIO12_pull_down+0x24>
   12468:	e1a00004 	mov	r0, r4
   1246c:	eb00092a 	bl	1491c <gpio_driver_set_direction>
   12470:	e1a00004 	mov	r0, r4
   12474:	e3a01000 	mov	r1, #0
   12478:	e8bd4010 	pop	{r4, lr}
   1247c:	ea00092d 	b	14938 <gpio_driver_set_level>
   12480:	000166fa 	.word	0x000166fa

00012484 <GPIO12_no_pull>:
   12484:	eaffffdd 	b	12400 <GPIO12_no_drive>

00012488 <GPIO12_is_high_level>:
   12488:	e92d4010 	push	{r4, lr}
   1248c:	e59f0010 	ldr	r0, [pc, #16]	; 124a4 <GPIO12_is_high_level+0x1c>
   12490:	eb000996 	bl	14af0 <gpio_driver_get_level>
   12494:	e2400001 	sub	r0, r0, #1
   12498:	e16f0f10 	clz	r0, r0
   1249c:	e1a002a0 	lsr	r0, r0, #5
   124a0:	e8bd8010 	pop	{r4, pc}
   124a4:	000166fa 	.word	0x000166fa

000124a8 <GPIO12_is_low_level>:
   124a8:	e92d4010 	push	{r4, lr}
   124ac:	e59f000c 	ldr	r0, [pc, #12]	; 124c0 <GPIO12_is_low_level+0x18>
   124b0:	eb00098e 	bl	14af0 <gpio_driver_get_level>
   124b4:	e16f0f10 	clz	r0, r0
   124b8:	e1a002a0 	lsr	r0, r0, #5
   124bc:	e8bd8010 	pop	{r4, pc}
   124c0:	000166fa 	.word	0x000166fa

000124c4 <GPIO12_print_state>:
   124c4:	e59f0000 	ldr	r0, [pc]	; 124cc <GPIO12_print_state+0x8>
   124c8:	ea0009a0 	b	14b50 <gpio_driver_print_pin_state>
   124cc:	000166fa 	.word	0x000166fa

000124d0 <GPIO13_drive_high>:
   124d0:	e92d4010 	push	{r4, lr}
   124d4:	e3a01001 	mov	r1, #1
   124d8:	e59f4014 	ldr	r4, [pc, #20]	; 124f4 <GPIO13_drive_high+0x24>
   124dc:	e1a00004 	mov	r0, r4
   124e0:	eb00090d 	bl	1491c <gpio_driver_set_direction>
   124e4:	e1a00004 	mov	r0, r4
   124e8:	e3a01001 	mov	r1, #1
   124ec:	e8bd4010 	pop	{r4, lr}
   124f0:	ea000910 	b	14938 <gpio_driver_set_level>
   124f4:	000166fd 	.word	0x000166fd

000124f8 <GPIO13_drive_low>:
   124f8:	e92d4010 	push	{r4, lr}
   124fc:	e3a01001 	mov	r1, #1
   12500:	e59f4014 	ldr	r4, [pc, #20]	; 1251c <GPIO13_drive_low+0x24>
   12504:	e1a00004 	mov	r0, r4
   12508:	eb000903 	bl	1491c <gpio_driver_set_direction>
   1250c:	e1a00004 	mov	r0, r4
   12510:	e3a01000 	mov	r1, #0
   12514:	e8bd4010 	pop	{r4, lr}
   12518:	ea000906 	b	14938 <gpio_driver_set_level>
   1251c:	000166fd 	.word	0x000166fd

00012520 <GPIO13_no_drive>:
   12520:	e92d4010 	push	{r4, lr}
   12524:	e3a01000 	mov	r1, #0
   12528:	e59f4014 	ldr	r4, [pc, #20]	; 12544 <GPIO13_no_drive+0x24>
   1252c:	e1a00004 	mov	r0, r4
   12530:	eb0008f9 	bl	1491c <gpio_driver_set_direction>
   12534:	e1a00004 	mov	r0, r4
   12538:	e3a01002 	mov	r1, #2
   1253c:	e8bd4010 	pop	{r4, lr}
   12540:	ea0008fc 	b	14938 <gpio_driver_set_level>
   12544:	000166fd 	.word	0x000166fd

00012548 <GPIO13_toggle_level>:
   12548:	e59f0000 	ldr	r0, [pc]	; 12550 <GPIO13_toggle_level+0x8>
   1254c:	ea000974 	b	14b24 <gpio_driver_toggle_level>
   12550:	000166fd 	.word	0x000166fd

00012554 <GPIO13_pull_up>:
   12554:	e92d4010 	push	{r4, lr}
   12558:	e3a01000 	mov	r1, #0
   1255c:	e59f4014 	ldr	r4, [pc, #20]	; 12578 <GPIO13_pull_up+0x24>
   12560:	e1a00004 	mov	r0, r4
   12564:	eb0008ec 	bl	1491c <gpio_driver_set_direction>
   12568:	e1a00004 	mov	r0, r4
   1256c:	e3a01001 	mov	r1, #1
   12570:	e8bd4010 	pop	{r4, lr}
   12574:	ea0008ef 	b	14938 <gpio_driver_set_level>
   12578:	000166fd 	.word	0x000166fd

0001257c <GPIO13_pull_down>:
   1257c:	e92d4010 	push	{r4, lr}
   12580:	e3a01000 	mov	r1, #0
   12584:	e59f4014 	ldr	r4, [pc, #20]	; 125a0 <GPIO13_pull_down+0x24>
   12588:	e1a00004 	mov	r0, r4
   1258c:	eb0008e2 	bl	1491c <gpio_driver_set_direction>
   12590:	e1a00004 	mov	r0, r4
   12594:	e3a01000 	mov	r1, #0
   12598:	e8bd4010 	pop	{r4, lr}
   1259c:	ea0008e5 	b	14938 <gpio_driver_set_level>
   125a0:	000166fd 	.word	0x000166fd

000125a4 <GPIO13_no_pull>:
   125a4:	eaffffdd 	b	12520 <GPIO13_no_drive>

000125a8 <GPIO13_is_high_level>:
   125a8:	e92d4010 	push	{r4, lr}
   125ac:	e59f0010 	ldr	r0, [pc, #16]	; 125c4 <GPIO13_is_high_level+0x1c>
   125b0:	eb00094e 	bl	14af0 <gpio_driver_get_level>
   125b4:	e2400001 	sub	r0, r0, #1
   125b8:	e16f0f10 	clz	r0, r0
   125bc:	e1a002a0 	lsr	r0, r0, #5
   125c0:	e8bd8010 	pop	{r4, pc}
   125c4:	000166fd 	.word	0x000166fd

000125c8 <GPIO13_is_low_level>:
   125c8:	e92d4010 	push	{r4, lr}
   125cc:	e59f000c 	ldr	r0, [pc, #12]	; 125e0 <GPIO13_is_low_level+0x18>
   125d0:	eb000946 	bl	14af0 <gpio_driver_get_level>
   125d4:	e16f0f10 	clz	r0, r0
   125d8:	e1a002a0 	lsr	r0, r0, #5
   125dc:	e8bd8010 	pop	{r4, pc}
   125e0:	000166fd 	.word	0x000166fd

000125e4 <GPIO13_print_state>:
   125e4:	e59f0000 	ldr	r0, [pc]	; 125ec <GPIO13_print_state+0x8>
   125e8:	ea000958 	b	14b50 <gpio_driver_print_pin_state>
   125ec:	000166fd 	.word	0x000166fd

000125f0 <GPIO19_drive_high>:
   125f0:	e92d4010 	push	{r4, lr}
   125f4:	e3a01001 	mov	r1, #1
   125f8:	e59f4014 	ldr	r4, [pc, #20]	; 12614 <GPIO19_drive_high+0x24>
   125fc:	e1a00004 	mov	r0, r4
   12600:	eb0008c5 	bl	1491c <gpio_driver_set_direction>
   12604:	e1a00004 	mov	r0, r4
   12608:	e3a01001 	mov	r1, #1
   1260c:	e8bd4010 	pop	{r4, lr}
   12610:	ea0008c8 	b	14938 <gpio_driver_set_level>
   12614:	00016700 	.word	0x00016700

00012618 <GPIO19_drive_low>:
   12618:	e92d4010 	push	{r4, lr}
   1261c:	e3a01001 	mov	r1, #1
   12620:	e59f4014 	ldr	r4, [pc, #20]	; 1263c <GPIO19_drive_low+0x24>
   12624:	e1a00004 	mov	r0, r4
   12628:	eb0008bb 	bl	1491c <gpio_driver_set_direction>
   1262c:	e1a00004 	mov	r0, r4
   12630:	e3a01000 	mov	r1, #0
   12634:	e8bd4010 	pop	{r4, lr}
   12638:	ea0008be 	b	14938 <gpio_driver_set_level>
   1263c:	00016700 	.word	0x00016700

00012640 <GPIO19_no_drive>:
   12640:	e92d4010 	push	{r4, lr}
   12644:	e3a01000 	mov	r1, #0
   12648:	e59f4014 	ldr	r4, [pc, #20]	; 12664 <GPIO19_no_drive+0x24>
   1264c:	e1a00004 	mov	r0, r4
   12650:	eb0008b1 	bl	1491c <gpio_driver_set_direction>
   12654:	e1a00004 	mov	r0, r4
   12658:	e3a01002 	mov	r1, #2
   1265c:	e8bd4010 	pop	{r4, lr}
   12660:	ea0008b4 	b	14938 <gpio_driver_set_level>
   12664:	00016700 	.word	0x00016700

00012668 <GPIO19_toggle_level>:
   12668:	e59f0000 	ldr	r0, [pc]	; 12670 <GPIO19_toggle_level+0x8>
   1266c:	ea00092c 	b	14b24 <gpio_driver_toggle_level>
   12670:	00016700 	.word	0x00016700

00012674 <GPIO19_pull_up>:
   12674:	e92d4010 	push	{r4, lr}
   12678:	e3a01000 	mov	r1, #0
   1267c:	e59f4014 	ldr	r4, [pc, #20]	; 12698 <GPIO19_pull_up+0x24>
   12680:	e1a00004 	mov	r0, r4
   12684:	eb0008a4 	bl	1491c <gpio_driver_set_direction>
   12688:	e1a00004 	mov	r0, r4
   1268c:	e3a01001 	mov	r1, #1
   12690:	e8bd4010 	pop	{r4, lr}
   12694:	ea0008a7 	b	14938 <gpio_driver_set_level>
   12698:	00016700 	.word	0x00016700

0001269c <GPIO19_pull_down>:
   1269c:	e92d4010 	push	{r4, lr}
   126a0:	e3a01000 	mov	r1, #0
   126a4:	e59f4014 	ldr	r4, [pc, #20]	; 126c0 <GPIO19_pull_down+0x24>
   126a8:	e1a00004 	mov	r0, r4
   126ac:	eb00089a 	bl	1491c <gpio_driver_set_direction>
   126b0:	e1a00004 	mov	r0, r4
   126b4:	e3a01000 	mov	r1, #0
   126b8:	e8bd4010 	pop	{r4, lr}
   126bc:	ea00089d 	b	14938 <gpio_driver_set_level>
   126c0:	00016700 	.word	0x00016700

000126c4 <GPIO19_no_pull>:
   126c4:	eaffffdd 	b	12640 <GPIO19_no_drive>

000126c8 <GPIO19_is_high_level>:
   126c8:	e92d4010 	push	{r4, lr}
   126cc:	e59f0010 	ldr	r0, [pc, #16]	; 126e4 <GPIO19_is_high_level+0x1c>
   126d0:	eb000906 	bl	14af0 <gpio_driver_get_level>
   126d4:	e2400001 	sub	r0, r0, #1
   126d8:	e16f0f10 	clz	r0, r0
   126dc:	e1a002a0 	lsr	r0, r0, #5
   126e0:	e8bd8010 	pop	{r4, pc}
   126e4:	00016700 	.word	0x00016700

000126e8 <GPIO19_is_low_level>:
   126e8:	e92d4010 	push	{r4, lr}
   126ec:	e59f000c 	ldr	r0, [pc, #12]	; 12700 <GPIO19_is_low_level+0x18>
   126f0:	eb0008fe 	bl	14af0 <gpio_driver_get_level>
   126f4:	e16f0f10 	clz	r0, r0
   126f8:	e1a002a0 	lsr	r0, r0, #5
   126fc:	e8bd8010 	pop	{r4, pc}
   12700:	00016700 	.word	0x00016700

00012704 <GPIO19_print_state>:
   12704:	e59f0000 	ldr	r0, [pc]	; 1270c <GPIO19_print_state+0x8>
   12708:	ea000910 	b	14b50 <gpio_driver_print_pin_state>
   1270c:	00016700 	.word	0x00016700

00012710 <GPIO16_drive_high>:
   12710:	e92d4010 	push	{r4, lr}
   12714:	e3a01001 	mov	r1, #1
   12718:	e59f4014 	ldr	r4, [pc, #20]	; 12734 <GPIO16_drive_high+0x24>
   1271c:	e1a00004 	mov	r0, r4
   12720:	eb00087d 	bl	1491c <gpio_driver_set_direction>
   12724:	e1a00004 	mov	r0, r4
   12728:	e3a01001 	mov	r1, #1
   1272c:	e8bd4010 	pop	{r4, lr}
   12730:	ea000880 	b	14938 <gpio_driver_set_level>
   12734:	00016703 	.word	0x00016703

00012738 <GPIO16_drive_low>:
   12738:	e92d4010 	push	{r4, lr}
   1273c:	e3a01001 	mov	r1, #1
   12740:	e59f4014 	ldr	r4, [pc, #20]	; 1275c <GPIO16_drive_low+0x24>
   12744:	e1a00004 	mov	r0, r4
   12748:	eb000873 	bl	1491c <gpio_driver_set_direction>
   1274c:	e1a00004 	mov	r0, r4
   12750:	e3a01000 	mov	r1, #0
   12754:	e8bd4010 	pop	{r4, lr}
   12758:	ea000876 	b	14938 <gpio_driver_set_level>
   1275c:	00016703 	.word	0x00016703

00012760 <GPIO16_no_drive>:
   12760:	e92d4010 	push	{r4, lr}
   12764:	e3a01000 	mov	r1, #0
   12768:	e59f4014 	ldr	r4, [pc, #20]	; 12784 <GPIO16_no_drive+0x24>
   1276c:	e1a00004 	mov	r0, r4
   12770:	eb000869 	bl	1491c <gpio_driver_set_direction>
   12774:	e1a00004 	mov	r0, r4
   12778:	e3a01002 	mov	r1, #2
   1277c:	e8bd4010 	pop	{r4, lr}
   12780:	ea00086c 	b	14938 <gpio_driver_set_level>
   12784:	00016703 	.word	0x00016703

00012788 <GPIO16_toggle_level>:
   12788:	e59f0000 	ldr	r0, [pc]	; 12790 <GPIO16_toggle_level+0x8>
   1278c:	ea0008e4 	b	14b24 <gpio_driver_toggle_level>
   12790:	00016703 	.word	0x00016703

00012794 <GPIO16_pull_up>:
   12794:	e92d4010 	push	{r4, lr}
   12798:	e3a01000 	mov	r1, #0
   1279c:	e59f4014 	ldr	r4, [pc, #20]	; 127b8 <GPIO16_pull_up+0x24>
   127a0:	e1a00004 	mov	r0, r4
   127a4:	eb00085c 	bl	1491c <gpio_driver_set_direction>
   127a8:	e1a00004 	mov	r0, r4
   127ac:	e3a01001 	mov	r1, #1
   127b0:	e8bd4010 	pop	{r4, lr}
   127b4:	ea00085f 	b	14938 <gpio_driver_set_level>
   127b8:	00016703 	.word	0x00016703

000127bc <GPIO16_pull_down>:
   127bc:	e92d4010 	push	{r4, lr}
   127c0:	e3a01000 	mov	r1, #0
   127c4:	e59f4014 	ldr	r4, [pc, #20]	; 127e0 <GPIO16_pull_down+0x24>
   127c8:	e1a00004 	mov	r0, r4
   127cc:	eb000852 	bl	1491c <gpio_driver_set_direction>
   127d0:	e1a00004 	mov	r0, r4
   127d4:	e3a01000 	mov	r1, #0
   127d8:	e8bd4010 	pop	{r4, lr}
   127dc:	ea000855 	b	14938 <gpio_driver_set_level>
   127e0:	00016703 	.word	0x00016703

000127e4 <GPIO16_no_pull>:
   127e4:	eaffffdd 	b	12760 <GPIO16_no_drive>

000127e8 <GPIO16_is_high_level>:
   127e8:	e92d4010 	push	{r4, lr}
   127ec:	e59f0010 	ldr	r0, [pc, #16]	; 12804 <GPIO16_is_high_level+0x1c>
   127f0:	eb0008be 	bl	14af0 <gpio_driver_get_level>
   127f4:	e2400001 	sub	r0, r0, #1
   127f8:	e16f0f10 	clz	r0, r0
   127fc:	e1a002a0 	lsr	r0, r0, #5
   12800:	e8bd8010 	pop	{r4, pc}
   12804:	00016703 	.word	0x00016703

00012808 <GPIO16_is_low_level>:
   12808:	e92d4010 	push	{r4, lr}
   1280c:	e59f000c 	ldr	r0, [pc, #12]	; 12820 <GPIO16_is_low_level+0x18>
   12810:	eb0008b6 	bl	14af0 <gpio_driver_get_level>
   12814:	e16f0f10 	clz	r0, r0
   12818:	e1a002a0 	lsr	r0, r0, #5
   1281c:	e8bd8010 	pop	{r4, pc}
   12820:	00016703 	.word	0x00016703

00012824 <GPIO16_print_state>:
   12824:	e59f0000 	ldr	r0, [pc]	; 1282c <GPIO16_print_state+0x8>
   12828:	ea0008c8 	b	14b50 <gpio_driver_print_pin_state>
   1282c:	00016703 	.word	0x00016703

00012830 <GPIO26_drive_high>:
   12830:	e92d4010 	push	{r4, lr}
   12834:	e3a01001 	mov	r1, #1
   12838:	e59f4014 	ldr	r4, [pc, #20]	; 12854 <GPIO26_drive_high+0x24>
   1283c:	e1a00004 	mov	r0, r4
   12840:	eb000835 	bl	1491c <gpio_driver_set_direction>
   12844:	e1a00004 	mov	r0, r4
   12848:	e3a01001 	mov	r1, #1
   1284c:	e8bd4010 	pop	{r4, lr}
   12850:	ea000838 	b	14938 <gpio_driver_set_level>
   12854:	00016706 	.word	0x00016706

00012858 <GPIO26_drive_low>:
   12858:	e92d4010 	push	{r4, lr}
   1285c:	e3a01001 	mov	r1, #1
   12860:	e59f4014 	ldr	r4, [pc, #20]	; 1287c <GPIO26_drive_low+0x24>
   12864:	e1a00004 	mov	r0, r4
   12868:	eb00082b 	bl	1491c <gpio_driver_set_direction>
   1286c:	e1a00004 	mov	r0, r4
   12870:	e3a01000 	mov	r1, #0
   12874:	e8bd4010 	pop	{r4, lr}
   12878:	ea00082e 	b	14938 <gpio_driver_set_level>
   1287c:	00016706 	.word	0x00016706

00012880 <GPIO26_no_drive>:
   12880:	e92d4010 	push	{r4, lr}
   12884:	e3a01000 	mov	r1, #0
   12888:	e59f4014 	ldr	r4, [pc, #20]	; 128a4 <GPIO26_no_drive+0x24>
   1288c:	e1a00004 	mov	r0, r4
   12890:	eb000821 	bl	1491c <gpio_driver_set_direction>
   12894:	e1a00004 	mov	r0, r4
   12898:	e3a01002 	mov	r1, #2
   1289c:	e8bd4010 	pop	{r4, lr}
   128a0:	ea000824 	b	14938 <gpio_driver_set_level>
   128a4:	00016706 	.word	0x00016706

000128a8 <GPIO26_toggle_level>:
   128a8:	e59f0000 	ldr	r0, [pc]	; 128b0 <GPIO26_toggle_level+0x8>
   128ac:	ea00089c 	b	14b24 <gpio_driver_toggle_level>
   128b0:	00016706 	.word	0x00016706

000128b4 <GPIO26_pull_up>:
   128b4:	e92d4010 	push	{r4, lr}
   128b8:	e3a01000 	mov	r1, #0
   128bc:	e59f4014 	ldr	r4, [pc, #20]	; 128d8 <GPIO26_pull_up+0x24>
   128c0:	e1a00004 	mov	r0, r4
   128c4:	eb000814 	bl	1491c <gpio_driver_set_direction>
   128c8:	e1a00004 	mov	r0, r4
   128cc:	e3a01001 	mov	r1, #1
   128d0:	e8bd4010 	pop	{r4, lr}
   128d4:	ea000817 	b	14938 <gpio_driver_set_level>
   128d8:	00016706 	.word	0x00016706

000128dc <GPIO26_pull_down>:
   128dc:	e92d4010 	push	{r4, lr}
   128e0:	e3a01000 	mov	r1, #0
   128e4:	e59f4014 	ldr	r4, [pc, #20]	; 12900 <GPIO26_pull_down+0x24>
   128e8:	e1a00004 	mov	r0, r4
   128ec:	eb00080a 	bl	1491c <gpio_driver_set_direction>
   128f0:	e1a00004 	mov	r0, r4
   128f4:	e3a01000 	mov	r1, #0
   128f8:	e8bd4010 	pop	{r4, lr}
   128fc:	ea00080d 	b	14938 <gpio_driver_set_level>
   12900:	00016706 	.word	0x00016706

00012904 <GPIO26_no_pull>:
   12904:	eaffffdd 	b	12880 <GPIO26_no_drive>

00012908 <GPIO26_is_high_level>:
   12908:	e92d4010 	push	{r4, lr}
   1290c:	e59f0010 	ldr	r0, [pc, #16]	; 12924 <GPIO26_is_high_level+0x1c>
   12910:	eb000876 	bl	14af0 <gpio_driver_get_level>
   12914:	e2400001 	sub	r0, r0, #1
   12918:	e16f0f10 	clz	r0, r0
   1291c:	e1a002a0 	lsr	r0, r0, #5
   12920:	e8bd8010 	pop	{r4, pc}
   12924:	00016706 	.word	0x00016706

00012928 <GPIO26_is_low_level>:
   12928:	e92d4010 	push	{r4, lr}
   1292c:	e59f000c 	ldr	r0, [pc, #12]	; 12940 <GPIO26_is_low_level+0x18>
   12930:	eb00086e 	bl	14af0 <gpio_driver_get_level>
   12934:	e16f0f10 	clz	r0, r0
   12938:	e1a002a0 	lsr	r0, r0, #5
   1293c:	e8bd8010 	pop	{r4, pc}
   12940:	00016706 	.word	0x00016706

00012944 <GPIO26_print_state>:
   12944:	e59f0000 	ldr	r0, [pc]	; 1294c <GPIO26_print_state+0x8>
   12948:	ea000880 	b	14b50 <gpio_driver_print_pin_state>
   1294c:	00016706 	.word	0x00016706

00012950 <GPIO20_drive_high>:
   12950:	e92d4010 	push	{r4, lr}
   12954:	e3a01001 	mov	r1, #1
   12958:	e59f4014 	ldr	r4, [pc, #20]	; 12974 <GPIO20_drive_high+0x24>
   1295c:	e1a00004 	mov	r0, r4
   12960:	eb0007ed 	bl	1491c <gpio_driver_set_direction>
   12964:	e1a00004 	mov	r0, r4
   12968:	e3a01001 	mov	r1, #1
   1296c:	e8bd4010 	pop	{r4, lr}
   12970:	ea0007f0 	b	14938 <gpio_driver_set_level>
   12974:	00016709 	.word	0x00016709

00012978 <GPIO20_drive_low>:
   12978:	e92d4010 	push	{r4, lr}
   1297c:	e3a01001 	mov	r1, #1
   12980:	e59f4014 	ldr	r4, [pc, #20]	; 1299c <GPIO20_drive_low+0x24>
   12984:	e1a00004 	mov	r0, r4
   12988:	eb0007e3 	bl	1491c <gpio_driver_set_direction>
   1298c:	e1a00004 	mov	r0, r4
   12990:	e3a01000 	mov	r1, #0
   12994:	e8bd4010 	pop	{r4, lr}
   12998:	ea0007e6 	b	14938 <gpio_driver_set_level>
   1299c:	00016709 	.word	0x00016709

000129a0 <GPIO20_no_drive>:
   129a0:	e92d4010 	push	{r4, lr}
   129a4:	e3a01000 	mov	r1, #0
   129a8:	e59f4014 	ldr	r4, [pc, #20]	; 129c4 <GPIO20_no_drive+0x24>
   129ac:	e1a00004 	mov	r0, r4
   129b0:	eb0007d9 	bl	1491c <gpio_driver_set_direction>
   129b4:	e1a00004 	mov	r0, r4
   129b8:	e3a01002 	mov	r1, #2
   129bc:	e8bd4010 	pop	{r4, lr}
   129c0:	ea0007dc 	b	14938 <gpio_driver_set_level>
   129c4:	00016709 	.word	0x00016709

000129c8 <GPIO20_toggle_level>:
   129c8:	e59f0000 	ldr	r0, [pc]	; 129d0 <GPIO20_toggle_level+0x8>
   129cc:	ea000854 	b	14b24 <gpio_driver_toggle_level>
   129d0:	00016709 	.word	0x00016709

000129d4 <GPIO20_pull_up>:
   129d4:	e92d4010 	push	{r4, lr}
   129d8:	e3a01000 	mov	r1, #0
   129dc:	e59f4014 	ldr	r4, [pc, #20]	; 129f8 <GPIO20_pull_up+0x24>
   129e0:	e1a00004 	mov	r0, r4
   129e4:	eb0007cc 	bl	1491c <gpio_driver_set_direction>
   129e8:	e1a00004 	mov	r0, r4
   129ec:	e3a01001 	mov	r1, #1
   129f0:	e8bd4010 	pop	{r4, lr}
   129f4:	ea0007cf 	b	14938 <gpio_driver_set_level>
   129f8:	00016709 	.word	0x00016709

000129fc <GPIO20_pull_down>:
   129fc:	e92d4010 	push	{r4, lr}
   12a00:	e3a01000 	mov	r1, #0
   12a04:	e59f4014 	ldr	r4, [pc, #20]	; 12a20 <GPIO20_pull_down+0x24>
   12a08:	e1a00004 	mov	r0, r4
   12a0c:	eb0007c2 	bl	1491c <gpio_driver_set_direction>
   12a10:	e1a00004 	mov	r0, r4
   12a14:	e3a01000 	mov	r1, #0
   12a18:	e8bd4010 	pop	{r4, lr}
   12a1c:	ea0007c5 	b	14938 <gpio_driver_set_level>
   12a20:	00016709 	.word	0x00016709

00012a24 <GPIO20_no_pull>:
   12a24:	eaffffdd 	b	129a0 <GPIO20_no_drive>

00012a28 <GPIO20_is_high_level>:
   12a28:	e92d4010 	push	{r4, lr}
   12a2c:	e59f0010 	ldr	r0, [pc, #16]	; 12a44 <GPIO20_is_high_level+0x1c>
   12a30:	eb00082e 	bl	14af0 <gpio_driver_get_level>
   12a34:	e2400001 	sub	r0, r0, #1
   12a38:	e16f0f10 	clz	r0, r0
   12a3c:	e1a002a0 	lsr	r0, r0, #5
   12a40:	e8bd8010 	pop	{r4, pc}
   12a44:	00016709 	.word	0x00016709

00012a48 <GPIO20_is_low_level>:
   12a48:	e92d4010 	push	{r4, lr}
   12a4c:	e59f000c 	ldr	r0, [pc, #12]	; 12a60 <GPIO20_is_low_level+0x18>
   12a50:	eb000826 	bl	14af0 <gpio_driver_get_level>
   12a54:	e16f0f10 	clz	r0, r0
   12a58:	e1a002a0 	lsr	r0, r0, #5
   12a5c:	e8bd8010 	pop	{r4, pc}
   12a60:	00016709 	.word	0x00016709

00012a64 <GPIO20_print_state>:
   12a64:	e59f0000 	ldr	r0, [pc]	; 12a6c <GPIO20_print_state+0x8>
   12a68:	ea000838 	b	14b50 <gpio_driver_print_pin_state>
   12a6c:	00016709 	.word	0x00016709

00012a70 <GPIO21_drive_high>:
   12a70:	e92d4010 	push	{r4, lr}
   12a74:	e3a01001 	mov	r1, #1
   12a78:	e59f4014 	ldr	r4, [pc, #20]	; 12a94 <GPIO21_drive_high+0x24>
   12a7c:	e1a00004 	mov	r0, r4
   12a80:	eb0007a5 	bl	1491c <gpio_driver_set_direction>
   12a84:	e1a00004 	mov	r0, r4
   12a88:	e3a01001 	mov	r1, #1
   12a8c:	e8bd4010 	pop	{r4, lr}
   12a90:	ea0007a8 	b	14938 <gpio_driver_set_level>
   12a94:	0001670c 	.word	0x0001670c

00012a98 <GPIO21_drive_low>:
   12a98:	e92d4010 	push	{r4, lr}
   12a9c:	e3a01001 	mov	r1, #1
   12aa0:	e59f4014 	ldr	r4, [pc, #20]	; 12abc <GPIO21_drive_low+0x24>
   12aa4:	e1a00004 	mov	r0, r4
   12aa8:	eb00079b 	bl	1491c <gpio_driver_set_direction>
   12aac:	e1a00004 	mov	r0, r4
   12ab0:	e3a01000 	mov	r1, #0
   12ab4:	e8bd4010 	pop	{r4, lr}
   12ab8:	ea00079e 	b	14938 <gpio_driver_set_level>
   12abc:	0001670c 	.word	0x0001670c

00012ac0 <GPIO21_no_drive>:
   12ac0:	e92d4010 	push	{r4, lr}
   12ac4:	e3a01000 	mov	r1, #0
   12ac8:	e59f4014 	ldr	r4, [pc, #20]	; 12ae4 <GPIO21_no_drive+0x24>
   12acc:	e1a00004 	mov	r0, r4
   12ad0:	eb000791 	bl	1491c <gpio_driver_set_direction>
   12ad4:	e1a00004 	mov	r0, r4
   12ad8:	e3a01002 	mov	r1, #2
   12adc:	e8bd4010 	pop	{r4, lr}
   12ae0:	ea000794 	b	14938 <gpio_driver_set_level>
   12ae4:	0001670c 	.word	0x0001670c

00012ae8 <GPIO21_toggle_level>:
   12ae8:	e59f0000 	ldr	r0, [pc]	; 12af0 <GPIO21_toggle_level+0x8>
   12aec:	ea00080c 	b	14b24 <gpio_driver_toggle_level>
   12af0:	0001670c 	.word	0x0001670c

00012af4 <GPIO21_pull_up>:
   12af4:	e92d4010 	push	{r4, lr}
   12af8:	e3a01000 	mov	r1, #0
   12afc:	e59f4014 	ldr	r4, [pc, #20]	; 12b18 <GPIO21_pull_up+0x24>
   12b00:	e1a00004 	mov	r0, r4
   12b04:	eb000784 	bl	1491c <gpio_driver_set_direction>
   12b08:	e1a00004 	mov	r0, r4
   12b0c:	e3a01001 	mov	r1, #1
   12b10:	e8bd4010 	pop	{r4, lr}
   12b14:	ea000787 	b	14938 <gpio_driver_set_level>
   12b18:	0001670c 	.word	0x0001670c

00012b1c <GPIO21_pull_down>:
   12b1c:	e92d4010 	push	{r4, lr}
   12b20:	e3a01000 	mov	r1, #0
   12b24:	e59f4014 	ldr	r4, [pc, #20]	; 12b40 <GPIO21_pull_down+0x24>
   12b28:	e1a00004 	mov	r0, r4
   12b2c:	eb00077a 	bl	1491c <gpio_driver_set_direction>
   12b30:	e1a00004 	mov	r0, r4
   12b34:	e3a01000 	mov	r1, #0
   12b38:	e8bd4010 	pop	{r4, lr}
   12b3c:	ea00077d 	b	14938 <gpio_driver_set_level>
   12b40:	0001670c 	.word	0x0001670c

00012b44 <GPIO21_no_pull>:
   12b44:	eaffffdd 	b	12ac0 <GPIO21_no_drive>

00012b48 <GPIO21_is_high_level>:
   12b48:	e92d4010 	push	{r4, lr}
   12b4c:	e59f0010 	ldr	r0, [pc, #16]	; 12b64 <GPIO21_is_high_level+0x1c>
   12b50:	eb0007e6 	bl	14af0 <gpio_driver_get_level>
   12b54:	e2400001 	sub	r0, r0, #1
   12b58:	e16f0f10 	clz	r0, r0
   12b5c:	e1a002a0 	lsr	r0, r0, #5
   12b60:	e8bd8010 	pop	{r4, pc}
   12b64:	0001670c 	.word	0x0001670c

00012b68 <GPIO21_is_low_level>:
   12b68:	e92d4010 	push	{r4, lr}
   12b6c:	e59f000c 	ldr	r0, [pc, #12]	; 12b80 <GPIO21_is_low_level+0x18>
   12b70:	eb0007de 	bl	14af0 <gpio_driver_get_level>
   12b74:	e16f0f10 	clz	r0, r0
   12b78:	e1a002a0 	lsr	r0, r0, #5
   12b7c:	e8bd8010 	pop	{r4, pc}
   12b80:	0001670c 	.word	0x0001670c

00012b84 <GPIO21_print_state>:
   12b84:	e59f0000 	ldr	r0, [pc]	; 12b8c <GPIO21_print_state+0x8>
   12b88:	ea0007f0 	b	14b50 <gpio_driver_print_pin_state>
   12b8c:	0001670c 	.word	0x0001670c

00012b90 <GPIO_07_drive_high>:
   12b90:	eafff93e 	b	11090 <GPIO04_drive_high>

00012b94 <GPIO_07_drive_low>:
   12b94:	eafff947 	b	110b8 <GPIO04_drive_low>

00012b98 <GPIO_07_no_drive>:
   12b98:	eafff950 	b	110e0 <GPIO04_no_drive>

00012b9c <GPIO_07_toggle_level>:
   12b9c:	eafff959 	b	11108 <GPIO04_toggle_level>

00012ba0 <GPIO_07_pull_up>:
   12ba0:	eafff95b 	b	11114 <GPIO04_pull_up>

00012ba4 <GPIO_07_pull_down>:
   12ba4:	eafff964 	b	1113c <GPIO04_pull_down>

00012ba8 <GPIO_07_no_pull>:
   12ba8:	eafff94c 	b	110e0 <GPIO04_no_drive>

00012bac <GPIO_07_is_high_level>:
   12bac:	eafff96d 	b	11168 <GPIO04_is_high_level>

00012bb0 <GPIO_07_is_low_level>:
   12bb0:	eafff974 	b	11188 <GPIO04_is_low_level>

00012bb4 <GPIO_07_print_state>:
   12bb4:	eafff97a 	b	111a4 <GPIO04_print_state>

00012bb8 <GPIO_00_drive_high>:
   12bb8:	eafffa0c 	b	113f0 <GPIO17_drive_high>

00012bbc <GPIO_00_drive_low>:
   12bbc:	eafffa15 	b	11418 <GPIO17_drive_low>

00012bc0 <GPIO_00_no_drive>:
   12bc0:	eafffa1e 	b	11440 <GPIO17_no_drive>

00012bc4 <GPIO_00_toggle_level>:
   12bc4:	eafffa27 	b	11468 <GPIO17_toggle_level>

00012bc8 <GPIO_00_pull_up>:
   12bc8:	eafffa29 	b	11474 <GPIO17_pull_up>

00012bcc <GPIO_00_pull_down>:
   12bcc:	eafffa32 	b	1149c <GPIO17_pull_down>

00012bd0 <GPIO_00_no_pull>:
   12bd0:	eafffa1a 	b	11440 <GPIO17_no_drive>

00012bd4 <GPIO_00_is_high_level>:
   12bd4:	eafffa3b 	b	114c8 <GPIO17_is_high_level>

00012bd8 <GPIO_00_is_low_level>:
   12bd8:	eafffa42 	b	114e8 <GPIO17_is_low_level>

00012bdc <GPIO_00_print_state>:
   12bdc:	eafffa48 	b	11504 <GPIO17_print_state>

00012be0 <GPIO_01_drive_high>:
   12be0:	eafffa4a 	b	11510 <GPIO18_drive_high>

00012be4 <GPIO_01_drive_low>:
   12be4:	eafffa53 	b	11538 <GPIO18_drive_low>

00012be8 <GPIO_01_no_drive>:
   12be8:	eafffa5c 	b	11560 <GPIO18_no_drive>

00012bec <GPIO_01_toggle_level>:
   12bec:	eafffa65 	b	11588 <GPIO18_toggle_level>

00012bf0 <GPIO_01_pull_up>:
   12bf0:	eafffa67 	b	11594 <GPIO18_pull_up>

00012bf4 <GPIO_01_pull_down>:
   12bf4:	eafffa70 	b	115bc <GPIO18_pull_down>

00012bf8 <GPIO_01_no_pull>:
   12bf8:	eafffa58 	b	11560 <GPIO18_no_drive>

00012bfc <GPIO_01_is_high_level>:
   12bfc:	eafffa79 	b	115e8 <GPIO18_is_high_level>

00012c00 <GPIO_01_is_low_level>:
   12c00:	eafffa80 	b	11608 <GPIO18_is_low_level>

00012c04 <GPIO_01_print_state>:
   12c04:	eafffa86 	b	11624 <GPIO18_print_state>

00012c08 <GPIO_02_drive_high>:
   12c08:	eafffa88 	b	11630 <GPIO27_drive_high>

00012c0c <GPIO_02_drive_low>:
   12c0c:	eafffa91 	b	11658 <GPIO27_drive_low>

00012c10 <GPIO_02_no_drive>:
   12c10:	eafffa9a 	b	11680 <GPIO27_no_drive>

00012c14 <GPIO_02_toggle_level>:
   12c14:	eafffaa3 	b	116a8 <GPIO27_toggle_level>

00012c18 <GPIO_02_pull_up>:
   12c18:	eafffaa5 	b	116b4 <GPIO27_pull_up>

00012c1c <GPIO_02_pull_down>:
   12c1c:	eafffaae 	b	116dc <GPIO27_pull_down>

00012c20 <GPIO_02_no_pull>:
   12c20:	eafffa96 	b	11680 <GPIO27_no_drive>

00012c24 <GPIO_02_is_high_level>:
   12c24:	eafffab7 	b	11708 <GPIO27_is_high_level>

00012c28 <GPIO_02_is_low_level>:
   12c28:	eafffabe 	b	11728 <GPIO27_is_low_level>

00012c2c <GPIO_02_print_state>:
   12c2c:	eafffac4 	b	11744 <GPIO27_print_state>

00012c30 <GPIO_03_drive_high>:
   12c30:	eafffac6 	b	11750 <GPIO22_drive_high>

00012c34 <GPIO_03_drive_low>:
   12c34:	eafffacf 	b	11778 <GPIO22_drive_low>

00012c38 <GPIO_03_no_drive>:
   12c38:	eafffad8 	b	117a0 <GPIO22_no_drive>

00012c3c <GPIO_03_toggle_level>:
   12c3c:	eafffae1 	b	117c8 <GPIO22_toggle_level>

00012c40 <GPIO_03_pull_up>:
   12c40:	eafffae3 	b	117d4 <GPIO22_pull_up>

00012c44 <GPIO_03_pull_down>:
   12c44:	eafffaec 	b	117fc <GPIO22_pull_down>

00012c48 <GPIO_03_no_pull>:
   12c48:	eafffad4 	b	117a0 <GPIO22_no_drive>

00012c4c <GPIO_03_is_high_level>:
   12c4c:	eafffaf5 	b	11828 <GPIO22_is_high_level>

00012c50 <GPIO_03_is_low_level>:
   12c50:	eafffafc 	b	11848 <GPIO22_is_low_level>

00012c54 <GPIO_03_print_state>:
   12c54:	eafffb02 	b	11864 <GPIO22_print_state>

00012c58 <GPIO_04_drive_high>:
   12c58:	eafffb04 	b	11870 <GPIO23_drive_high>

00012c5c <GPIO_04_drive_low>:
   12c5c:	eafffb0d 	b	11898 <GPIO23_drive_low>

00012c60 <GPIO_04_no_drive>:
   12c60:	eafffb16 	b	118c0 <GPIO23_no_drive>

00012c64 <GPIO_04_toggle_level>:
   12c64:	eafffb1f 	b	118e8 <GPIO23_toggle_level>

00012c68 <GPIO_04_pull_up>:
   12c68:	eafffb21 	b	118f4 <GPIO23_pull_up>

00012c6c <GPIO_04_pull_down>:
   12c6c:	eafffb2a 	b	1191c <GPIO23_pull_down>

00012c70 <GPIO_04_no_pull>:
   12c70:	eafffb12 	b	118c0 <GPIO23_no_drive>

00012c74 <GPIO_04_is_high_level>:
   12c74:	eafffb33 	b	11948 <GPIO23_is_high_level>

00012c78 <GPIO_04_is_low_level>:
   12c78:	eafffb3a 	b	11968 <GPIO23_is_low_level>

00012c7c <GPIO_04_print_state>:
   12c7c:	eafffb40 	b	11984 <GPIO23_print_state>

00012c80 <GPIO_05_drive_high>:
   12c80:	eafffb42 	b	11990 <GPIO24_drive_high>

00012c84 <GPIO_05_drive_low>:
   12c84:	eafffb4b 	b	119b8 <GPIO24_drive_low>

00012c88 <GPIO_05_no_drive>:
   12c88:	eafffb54 	b	119e0 <GPIO24_no_drive>

00012c8c <GPIO_05_toggle_level>:
   12c8c:	eafffb5d 	b	11a08 <GPIO24_toggle_level>

00012c90 <GPIO_05_pull_up>:
   12c90:	eafffb5f 	b	11a14 <GPIO24_pull_up>

00012c94 <GPIO_05_pull_down>:
   12c94:	eafffb68 	b	11a3c <GPIO24_pull_down>

00012c98 <GPIO_05_no_pull>:
   12c98:	eafffb50 	b	119e0 <GPIO24_no_drive>

00012c9c <GPIO_05_is_high_level>:
   12c9c:	eafffb71 	b	11a68 <GPIO24_is_high_level>

00012ca0 <GPIO_05_is_low_level>:
   12ca0:	eafffb78 	b	11a88 <GPIO24_is_low_level>

00012ca4 <GPIO_05_print_state>:
   12ca4:	eafffb7e 	b	11aa4 <GPIO24_print_state>

00012ca8 <GPIO_06_drive_high>:
   12ca8:	eafffc10 	b	11cf0 <GPIO25_drive_high>

00012cac <GPIO_06_drive_low>:
   12cac:	eafffc19 	b	11d18 <GPIO25_drive_low>

00012cb0 <GPIO_06_no_drive>:
   12cb0:	eafffc22 	b	11d40 <GPIO25_no_drive>

00012cb4 <GPIO_06_toggle_level>:
   12cb4:	eafffc2b 	b	11d68 <GPIO25_toggle_level>

00012cb8 <GPIO_06_pull_up>:
   12cb8:	eafffc2d 	b	11d74 <GPIO25_pull_up>

00012cbc <GPIO_06_pull_down>:
   12cbc:	eafffc36 	b	11d9c <GPIO25_pull_down>

00012cc0 <GPIO_06_no_pull>:
   12cc0:	eafffc1e 	b	11d40 <GPIO25_no_drive>

00012cc4 <GPIO_06_is_high_level>:
   12cc4:	eafffc3f 	b	11dc8 <GPIO25_is_high_level>

00012cc8 <GPIO_06_is_low_level>:
   12cc8:	eafffc46 	b	11de8 <GPIO25_is_low_level>

00012ccc <GPIO_06_print_state>:
   12ccc:	eafffc4c 	b	11e04 <GPIO25_print_state>

00012cd0 <GPIO_21_drive_high>:
   12cd0:	eafffd26 	b	12170 <GPIO05_drive_high>

00012cd4 <GPIO_21_drive_low>:
   12cd4:	eafffd2f 	b	12198 <GPIO05_drive_low>

00012cd8 <GPIO_21_no_drive>:
   12cd8:	eafffd38 	b	121c0 <GPIO05_no_drive>

00012cdc <GPIO_21_toggle_level>:
   12cdc:	eafffd41 	b	121e8 <GPIO05_toggle_level>

00012ce0 <GPIO_21_pull_up>:
   12ce0:	eafffd43 	b	121f4 <GPIO05_pull_up>

00012ce4 <GPIO_21_pull_down>:
   12ce4:	eafffd4c 	b	1221c <GPIO05_pull_down>

00012ce8 <GPIO_21_no_pull>:
   12ce8:	eafffd34 	b	121c0 <GPIO05_no_drive>

00012cec <GPIO_21_is_high_level>:
   12cec:	eafffd55 	b	12248 <GPIO05_is_high_level>

00012cf0 <GPIO_21_is_low_level>:
   12cf0:	eafffd5c 	b	12268 <GPIO05_is_low_level>

00012cf4 <GPIO_21_print_state>:
   12cf4:	eafffd62 	b	12284 <GPIO05_print_state>

00012cf8 <GPIO_22_drive_high>:
   12cf8:	eafffd64 	b	12290 <GPIO06_drive_high>

00012cfc <GPIO_22_drive_low>:
   12cfc:	eafffd6d 	b	122b8 <GPIO06_drive_low>

00012d00 <GPIO_22_no_drive>:
   12d00:	eafffd76 	b	122e0 <GPIO06_no_drive>

00012d04 <GPIO_22_toggle_level>:
   12d04:	eafffd7f 	b	12308 <GPIO06_toggle_level>

00012d08 <GPIO_22_pull_up>:
   12d08:	eafffd81 	b	12314 <GPIO06_pull_up>

00012d0c <GPIO_22_pull_down>:
   12d0c:	eafffd8a 	b	1233c <GPIO06_pull_down>

00012d10 <GPIO_22_no_pull>:
   12d10:	eafffd72 	b	122e0 <GPIO06_no_drive>

00012d14 <GPIO_22_is_high_level>:
   12d14:	eafffd93 	b	12368 <GPIO06_is_high_level>

00012d18 <GPIO_22_is_low_level>:
   12d18:	eafffd9a 	b	12388 <GPIO06_is_low_level>

00012d1c <GPIO_22_print_state>:
   12d1c:	eafffda0 	b	123a4 <GPIO06_print_state>

00012d20 <GPIO_26_drive_high>:
   12d20:	eafffda2 	b	123b0 <GPIO12_drive_high>

00012d24 <GPIO_26_drive_low>:
   12d24:	eafffdab 	b	123d8 <GPIO12_drive_low>

00012d28 <GPIO_26_no_drive>:
   12d28:	eafffdb4 	b	12400 <GPIO12_no_drive>

00012d2c <GPIO_26_toggle_level>:
   12d2c:	eafffdbd 	b	12428 <GPIO12_toggle_level>

00012d30 <GPIO_26_pull_up>:
   12d30:	eafffdbf 	b	12434 <GPIO12_pull_up>

00012d34 <GPIO_26_pull_down>:
   12d34:	eafffdc8 	b	1245c <GPIO12_pull_down>

00012d38 <GPIO_26_no_pull>:
   12d38:	eafffdb0 	b	12400 <GPIO12_no_drive>

00012d3c <GPIO_26_is_high_level>:
   12d3c:	eafffdd1 	b	12488 <GPIO12_is_high_level>

00012d40 <GPIO_26_is_low_level>:
   12d40:	eafffdd8 	b	124a8 <GPIO12_is_low_level>

00012d44 <GPIO_26_print_state>:
   12d44:	eafffdde 	b	124c4 <GPIO12_print_state>

00012d48 <GPIO_23_drive_high>:
   12d48:	eafffde0 	b	124d0 <GPIO13_drive_high>

00012d4c <GPIO_23_drive_low>:
   12d4c:	eafffde9 	b	124f8 <GPIO13_drive_low>

00012d50 <GPIO_23_no_drive>:
   12d50:	eafffdf2 	b	12520 <GPIO13_no_drive>

00012d54 <GPIO_23_toggle_level>:
   12d54:	eafffdfb 	b	12548 <GPIO13_toggle_level>

00012d58 <GPIO_23_pull_up>:
   12d58:	eafffdfd 	b	12554 <GPIO13_pull_up>

00012d5c <GPIO_23_pull_down>:
   12d5c:	eafffe06 	b	1257c <GPIO13_pull_down>

00012d60 <GPIO_23_no_pull>:
   12d60:	eafffdee 	b	12520 <GPIO13_no_drive>

00012d64 <GPIO_23_is_high_level>:
   12d64:	eafffe0f 	b	125a8 <GPIO13_is_high_level>

00012d68 <GPIO_23_is_low_level>:
   12d68:	eafffe16 	b	125c8 <GPIO13_is_low_level>

00012d6c <GPIO_23_print_state>:
   12d6c:	eafffe1c 	b	125e4 <GPIO13_print_state>

00012d70 <GPIO_24_drive_high>:
   12d70:	eafffe1e 	b	125f0 <GPIO19_drive_high>

00012d74 <GPIO_24_drive_low>:
   12d74:	eafffe27 	b	12618 <GPIO19_drive_low>

00012d78 <GPIO_24_no_drive>:
   12d78:	eafffe30 	b	12640 <GPIO19_no_drive>

00012d7c <GPIO_24_toggle_level>:
   12d7c:	eafffe39 	b	12668 <GPIO19_toggle_level>

00012d80 <GPIO_24_pull_up>:
   12d80:	eafffe3b 	b	12674 <GPIO19_pull_up>

00012d84 <GPIO_24_pull_down>:
   12d84:	eafffe44 	b	1269c <GPIO19_pull_down>

00012d88 <GPIO_24_no_pull>:
   12d88:	eafffe2c 	b	12640 <GPIO19_no_drive>

00012d8c <GPIO_24_is_high_level>:
   12d8c:	eafffe4d 	b	126c8 <GPIO19_is_high_level>

00012d90 <GPIO_24_is_low_level>:
   12d90:	eafffe54 	b	126e8 <GPIO19_is_low_level>

00012d94 <GPIO_24_print_state>:
   12d94:	eafffe5a 	b	12704 <GPIO19_print_state>

00012d98 <GPIO_27_drive_high>:
   12d98:	eafffe5c 	b	12710 <GPIO16_drive_high>

00012d9c <GPIO_27_drive_low>:
   12d9c:	eafffe65 	b	12738 <GPIO16_drive_low>

00012da0 <GPIO_27_no_drive>:
   12da0:	eafffe6e 	b	12760 <GPIO16_no_drive>

00012da4 <GPIO_27_toggle_level>:
   12da4:	eafffe77 	b	12788 <GPIO16_toggle_level>

00012da8 <GPIO_27_pull_up>:
   12da8:	eafffe79 	b	12794 <GPIO16_pull_up>

00012dac <GPIO_27_pull_down>:
   12dac:	eafffe82 	b	127bc <GPIO16_pull_down>

00012db0 <GPIO_27_no_pull>:
   12db0:	eafffe6a 	b	12760 <GPIO16_no_drive>

00012db4 <GPIO_27_is_high_level>:
   12db4:	eafffe8b 	b	127e8 <GPIO16_is_high_level>

00012db8 <GPIO_27_is_low_level>:
   12db8:	eafffe92 	b	12808 <GPIO16_is_low_level>

00012dbc <GPIO_27_print_state>:
   12dbc:	eafffe98 	b	12824 <GPIO16_print_state>

00012dc0 <GPIO_25_drive_high>:
   12dc0:	eafffe9a 	b	12830 <GPIO26_drive_high>

00012dc4 <GPIO_25_drive_low>:
   12dc4:	eafffea3 	b	12858 <GPIO26_drive_low>

00012dc8 <GPIO_25_no_drive>:
   12dc8:	eafffeac 	b	12880 <GPIO26_no_drive>

00012dcc <GPIO_25_toggle_level>:
   12dcc:	eafffeb5 	b	128a8 <GPIO26_toggle_level>

00012dd0 <GPIO_25_pull_up>:
   12dd0:	eafffeb7 	b	128b4 <GPIO26_pull_up>

00012dd4 <GPIO_25_pull_down>:
   12dd4:	eafffec0 	b	128dc <GPIO26_pull_down>

00012dd8 <GPIO_25_no_pull>:
   12dd8:	eafffea8 	b	12880 <GPIO26_no_drive>

00012ddc <GPIO_25_is_high_level>:
   12ddc:	eafffec9 	b	12908 <GPIO26_is_high_level>

00012de0 <GPIO_25_is_low_level>:
   12de0:	eafffed0 	b	12928 <GPIO26_is_low_level>

00012de4 <GPIO_25_print_state>:
   12de4:	eafffed6 	b	12944 <GPIO26_print_state>

00012de8 <GPIO_28_drive_high>:
   12de8:	eafffed8 	b	12950 <GPIO20_drive_high>

00012dec <GPIO_28_drive_low>:
   12dec:	eafffee1 	b	12978 <GPIO20_drive_low>

00012df0 <GPIO_28_no_drive>:
   12df0:	eafffeea 	b	129a0 <GPIO20_no_drive>

00012df4 <GPIO_28_toggle_level>:
   12df4:	eafffef3 	b	129c8 <GPIO20_toggle_level>

00012df8 <GPIO_28_pull_up>:
   12df8:	eafffef5 	b	129d4 <GPIO20_pull_up>

00012dfc <GPIO_28_pull_down>:
   12dfc:	eafffefe 	b	129fc <GPIO20_pull_down>

00012e00 <GPIO_28_no_pull>:
   12e00:	eafffee6 	b	129a0 <GPIO20_no_drive>

00012e04 <GPIO_28_is_high_level>:
   12e04:	eaffff07 	b	12a28 <GPIO20_is_high_level>

00012e08 <GPIO_28_is_low_level>:
   12e08:	eaffff0e 	b	12a48 <GPIO20_is_low_level>

00012e0c <GPIO_28_print_state>:
   12e0c:	eaffff14 	b	12a64 <GPIO20_print_state>

00012e10 <GPIO_29_drive_high>:
   12e10:	eaffff16 	b	12a70 <GPIO21_drive_high>

00012e14 <GPIO_29_drive_low>:
   12e14:	eaffff1f 	b	12a98 <GPIO21_drive_low>

00012e18 <GPIO_29_no_drive>:
   12e18:	eaffff28 	b	12ac0 <GPIO21_no_drive>

00012e1c <GPIO_29_toggle_level>:
   12e1c:	eaffff31 	b	12ae8 <GPIO21_toggle_level>

00012e20 <GPIO_29_pull_up>:
   12e20:	eaffff33 	b	12af4 <GPIO21_pull_up>

00012e24 <GPIO_29_pull_down>:
   12e24:	eaffff3c 	b	12b1c <GPIO21_pull_down>

00012e28 <GPIO_29_no_pull>:
   12e28:	eaffff24 	b	12ac0 <GPIO21_no_drive>

00012e2c <GPIO_29_is_high_level>:
   12e2c:	eaffff45 	b	12b48 <GPIO21_is_high_level>

00012e30 <GPIO_29_is_low_level>:
   12e30:	eaffff4c 	b	12b68 <GPIO21_is_low_level>

00012e34 <GPIO_29_print_state>:
   12e34:	eaffff52 	b	12b84 <GPIO21_print_state>

00012e38 <REQUEST_CLIENT_drive_high>:
   12e38:	eafff96c 	b	113f0 <GPIO17_drive_high>

00012e3c <REQUEST_CLIENT_drive_low>:
   12e3c:	eafff975 	b	11418 <GPIO17_drive_low>

00012e40 <REQUEST_CLIENT_no_drive>:
   12e40:	eafff97e 	b	11440 <GPIO17_no_drive>

00012e44 <REQUEST_CLIENT_toggle_level>:
   12e44:	eafff987 	b	11468 <GPIO17_toggle_level>

00012e48 <REQUEST_CLIENT_pull_up>:
   12e48:	eafff989 	b	11474 <GPIO17_pull_up>

00012e4c <REQUEST_CLIENT_pull_down>:
   12e4c:	eafff992 	b	1149c <GPIO17_pull_down>

00012e50 <REQUEST_CLIENT_no_pull>:
   12e50:	eafff97a 	b	11440 <GPIO17_no_drive>

00012e54 <REQUEST_CLIENT_is_high_level>:
   12e54:	eafff99b 	b	114c8 <GPIO17_is_high_level>

00012e58 <REQUEST_CLIENT_is_low_level>:
   12e58:	eafff9a2 	b	114e8 <GPIO17_is_low_level>

00012e5c <REQUEST_CLIENT_print_state>:
   12e5c:	eafff9a8 	b	11504 <GPIO17_print_state>

00012e60 <SPI0_CS_drive_high>:
   12e60:	eafffc32 	b	11f30 <SPI_CE0_drive_high>

00012e64 <SPI0_CS_drive_low>:
   12e64:	eafffc3b 	b	11f58 <SPI_CE0_drive_low>

00012e68 <SPI0_CS_no_drive>:
   12e68:	eafffc44 	b	11f80 <SPI_CE0_no_drive>

00012e6c <SPI0_CS_toggle_level>:
   12e6c:	eafffc4d 	b	11fa8 <SPI_CE0_toggle_level>

00012e70 <SPI0_CS_pull_up>:
   12e70:	eafffc4f 	b	11fb4 <SPI_CE0_pull_up>

00012e74 <SPI0_CS_pull_down>:
   12e74:	eafffc58 	b	11fdc <SPI_CE0_pull_down>

00012e78 <SPI0_CS_no_pull>:
   12e78:	eafffc40 	b	11f80 <SPI_CE0_no_drive>

00012e7c <SPI0_CS_is_high_level>:
   12e7c:	eafffc61 	b	12008 <SPI_CE0_is_high_level>

00012e80 <SPI0_CS_is_low_level>:
   12e80:	eafffc68 	b	12028 <SPI_CE0_is_low_level>

00012e84 <SPI0_CS_print_state>:
   12e84:	eafffc6e 	b	12044 <SPI_CE0_print_state>

00012e88 <LCD_RS_drive_high>:
   12e88:	eafffdd8 	b	125f0 <GPIO19_drive_high>

00012e8c <LCD_RS_drive_low>:
   12e8c:	eafffde1 	b	12618 <GPIO19_drive_low>

00012e90 <LCD_RS_no_drive>:
   12e90:	eafffdea 	b	12640 <GPIO19_no_drive>

00012e94 <LCD_RS_toggle_level>:
   12e94:	eafffdf3 	b	12668 <GPIO19_toggle_level>

00012e98 <LCD_RS_pull_up>:
   12e98:	eafffdf5 	b	12674 <GPIO19_pull_up>

00012e9c <LCD_RS_pull_down>:
   12e9c:	eafffdfe 	b	1269c <GPIO19_pull_down>

00012ea0 <LCD_RS_no_pull>:
   12ea0:	eafffde6 	b	12640 <GPIO19_no_drive>

00012ea4 <LCD_RS_is_high_level>:
   12ea4:	eafffe07 	b	126c8 <GPIO19_is_high_level>

00012ea8 <LCD_RS_is_low_level>:
   12ea8:	eafffe0e 	b	126e8 <GPIO19_is_low_level>

00012eac <LCD_RS_print_state>:
   12eac:	eafffe14 	b	12704 <GPIO19_print_state>

00012eb0 <LCD_EN_drive_high>:
   12eb0:	eafffe5e 	b	12830 <GPIO26_drive_high>

00012eb4 <LCD_EN_drive_low>:
   12eb4:	eafffe67 	b	12858 <GPIO26_drive_low>

00012eb8 <LCD_EN_no_drive>:
   12eb8:	eafffe70 	b	12880 <GPIO26_no_drive>

00012ebc <LCD_EN_toggle_level>:
   12ebc:	eafffe79 	b	128a8 <GPIO26_toggle_level>

00012ec0 <LCD_EN_pull_up>:
   12ec0:	eafffe7b 	b	128b4 <GPIO26_pull_up>

00012ec4 <LCD_EN_pull_down>:
   12ec4:	eafffe84 	b	128dc <GPIO26_pull_down>

00012ec8 <LCD_EN_no_pull>:
   12ec8:	eafffe6c 	b	12880 <GPIO26_no_drive>

00012ecc <LCD_EN_is_high_level>:
   12ecc:	eafffe8d 	b	12908 <GPIO26_is_high_level>

00012ed0 <LCD_EN_is_low_level>:
   12ed0:	eafffe94 	b	12928 <GPIO26_is_low_level>

00012ed4 <LCD_EN_print_state>:
   12ed4:	eafffe9a 	b	12944 <GPIO26_print_state>

00012ed8 <LCD_D4_drive_high>:
   12ed8:	eafffd34 	b	123b0 <GPIO12_drive_high>

00012edc <LCD_D4_drive_low>:
   12edc:	eafffd3d 	b	123d8 <GPIO12_drive_low>

00012ee0 <LCD_D4_no_drive>:
   12ee0:	eafffd46 	b	12400 <GPIO12_no_drive>

00012ee4 <LCD_D4_toggle_level>:
   12ee4:	eafffd4f 	b	12428 <GPIO12_toggle_level>

00012ee8 <LCD_D4_pull_up>:
   12ee8:	eafffd51 	b	12434 <GPIO12_pull_up>

00012eec <LCD_D4_pull_down>:
   12eec:	eafffd5a 	b	1245c <GPIO12_pull_down>

00012ef0 <LCD_D4_no_pull>:
   12ef0:	eafffd42 	b	12400 <GPIO12_no_drive>

00012ef4 <LCD_D4_is_high_level>:
   12ef4:	eafffd63 	b	12488 <GPIO12_is_high_level>

00012ef8 <LCD_D4_is_low_level>:
   12ef8:	eafffd6a 	b	124a8 <GPIO12_is_low_level>

00012efc <LCD_D4_print_state>:
   12efc:	eafffd70 	b	124c4 <GPIO12_print_state>

00012f00 <LCD_D5_drive_high>:
   12f00:	eafffe02 	b	12710 <GPIO16_drive_high>

00012f04 <LCD_D5_drive_low>:
   12f04:	eafffe0b 	b	12738 <GPIO16_drive_low>

00012f08 <LCD_D5_no_drive>:
   12f08:	eafffe14 	b	12760 <GPIO16_no_drive>

00012f0c <LCD_D5_toggle_level>:
   12f0c:	eafffe1d 	b	12788 <GPIO16_toggle_level>

00012f10 <LCD_D5_pull_up>:
   12f10:	eafffe1f 	b	12794 <GPIO16_pull_up>

00012f14 <LCD_D5_pull_down>:
   12f14:	eafffe28 	b	127bc <GPIO16_pull_down>

00012f18 <LCD_D5_no_pull>:
   12f18:	eafffe10 	b	12760 <GPIO16_no_drive>

00012f1c <LCD_D5_is_high_level>:
   12f1c:	eafffe31 	b	127e8 <GPIO16_is_high_level>

00012f20 <LCD_D5_is_low_level>:
   12f20:	eafffe38 	b	12808 <GPIO16_is_low_level>

00012f24 <LCD_D5_print_state>:
   12f24:	eafffe3e 	b	12824 <GPIO16_print_state>

00012f28 <LCD_D6_drive_high>:
   12f28:	eafffe88 	b	12950 <GPIO20_drive_high>

00012f2c <LCD_D6_drive_low>:
   12f2c:	eafffe91 	b	12978 <GPIO20_drive_low>

00012f30 <LCD_D6_no_drive>:
   12f30:	eafffe9a 	b	129a0 <GPIO20_no_drive>

00012f34 <LCD_D6_toggle_level>:
   12f34:	eafffea3 	b	129c8 <GPIO20_toggle_level>

00012f38 <LCD_D6_pull_up>:
   12f38:	eafffea5 	b	129d4 <GPIO20_pull_up>

00012f3c <LCD_D6_pull_down>:
   12f3c:	eafffeae 	b	129fc <GPIO20_pull_down>

00012f40 <LCD_D6_no_pull>:
   12f40:	eafffe96 	b	129a0 <GPIO20_no_drive>

00012f44 <LCD_D6_is_high_level>:
   12f44:	eafffeb7 	b	12a28 <GPIO20_is_high_level>

00012f48 <LCD_D6_is_low_level>:
   12f48:	eafffebe 	b	12a48 <GPIO20_is_low_level>

00012f4c <LCD_D6_print_state>:
   12f4c:	eafffec4 	b	12a64 <GPIO20_print_state>

00012f50 <LCD_D7_drive_high>:
   12f50:	eafffec6 	b	12a70 <GPIO21_drive_high>

00012f54 <LCD_D7_drive_low>:
   12f54:	eafffecf 	b	12a98 <GPIO21_drive_low>

00012f58 <LCD_D7_no_drive>:
   12f58:	eafffed8 	b	12ac0 <GPIO21_no_drive>

00012f5c <LCD_D7_toggle_level>:
   12f5c:	eafffee1 	b	12ae8 <GPIO21_toggle_level>

00012f60 <LCD_D7_pull_up>:
   12f60:	eafffee3 	b	12af4 <GPIO21_pull_up>

00012f64 <LCD_D7_pull_down>:
   12f64:	eafffeec 	b	12b1c <GPIO21_pull_down>

00012f68 <LCD_D7_no_pull>:
   12f68:	eafffed4 	b	12ac0 <GPIO21_no_drive>

00012f6c <LCD_D7_is_high_level>:
   12f6c:	eafffef5 	b	12b48 <GPIO21_is_high_level>

00012f70 <LCD_D7_is_low_level>:
   12f70:	eafffefc 	b	12b68 <GPIO21_is_low_level>

00012f74 <LCD_D7_print_state>:
   12f74:	eaffff02 	b	12b84 <GPIO21_print_state>

00012f78 <module_status_set_u8>:
   12f78:	e5d03000 	ldrb	r3, [r0]
   12f7c:	e1811003 	orr	r1, r1, r3
   12f80:	e5c01000 	strb	r1, [r0]
   12f84:	e12fff1e 	bx	lr

00012f88 <module_status_isset_u8>:
   12f88:	e5d03000 	ldrb	r3, [r0]
   12f8c:	e1110003 	tst	r1, r3
   12f90:	13a00001 	movne	r0, #1
   12f94:	03a00000 	moveq	r0, #0
   12f98:	e12fff1e 	bx	lr

00012f9c <module_status_unset_u8>:
   12f9c:	e5d03000 	ldrb	r3, [r0]
   12fa0:	e1c31001 	bic	r1, r3, r1
   12fa4:	e5c01000 	strb	r1, [r0]
   12fa8:	e12fff1e 	bx	lr

00012fac <module_status_clear_all_u8>:
   12fac:	e3a03000 	mov	r3, #0
   12fb0:	e5c03000 	strb	r3, [r0]
   12fb4:	e12fff1e 	bx	lr

00012fb8 <module_status_set_u16>:
   12fb8:	e1d030b0 	ldrh	r3, [r0]
   12fbc:	e1811003 	orr	r1, r1, r3
   12fc0:	e1c010b0 	strh	r1, [r0]
   12fc4:	e12fff1e 	bx	lr

00012fc8 <module_status_isset_u16>:
   12fc8:	e1d030b0 	ldrh	r3, [r0]
   12fcc:	e1110003 	tst	r1, r3
   12fd0:	13a00001 	movne	r0, #1
   12fd4:	03a00000 	moveq	r0, #0
   12fd8:	e12fff1e 	bx	lr

00012fdc <module_status_unset_u16>:
   12fdc:	e1d030b0 	ldrh	r3, [r0]
   12fe0:	e1c31001 	bic	r1, r3, r1
   12fe4:	e1c010b0 	strh	r1, [r0]
   12fe8:	e12fff1e 	bx	lr

00012fec <module_status_clear_all_u16>:
   12fec:	e3a03000 	mov	r3, #0
   12ff0:	e1c030b0 	strh	r3, [r0]
   12ff4:	e12fff1e 	bx	lr

00012ff8 <module_status_set_u32>:
   12ff8:	e5903000 	ldr	r3, [r0]
   12ffc:	e1831001 	orr	r1, r3, r1
   13000:	e5801000 	str	r1, [r0]
   13004:	e12fff1e 	bx	lr

00013008 <module_status_isset_u32>:
   13008:	e5903000 	ldr	r3, [r0]
   1300c:	e1110003 	tst	r1, r3
   13010:	13a00001 	movne	r0, #1
   13014:	03a00000 	moveq	r0, #0
   13018:	e12fff1e 	bx	lr

0001301c <module_status_unset_u32>:
   1301c:	e5903000 	ldr	r3, [r0]
   13020:	e1c31001 	bic	r1, r3, r1
   13024:	e5801000 	str	r1, [r0]
   13028:	e12fff1e 	bx	lr

0001302c <module_status_clear_all_u32>:
   1302c:	e3a03000 	mov	r3, #0
   13030:	e5803000 	str	r3, [r0]
   13034:	e12fff1e 	bx	lr

00013038 <mutex_request>:
   13038:	e5d03001 	ldrb	r3, [r0, #1]
   1303c:	e3530000 	cmp	r3, #0
   13040:	1a000006 	bne	13060 <mutex_request+0x28>
   13044:	e5d03000 	ldrb	r3, [r0]
   13048:	e3530000 	cmp	r3, #0
   1304c:	e3a03001 	mov	r3, #1
   13050:	05c03000 	strbeq	r3, [r0]
   13054:	e5c03001 	strb	r3, [r0, #1]
   13058:	e5d00000 	ldrb	r0, [r0]
   1305c:	e12fff1e 	bx	lr
   13060:	e3a00000 	mov	r0, #0
   13064:	e12fff1e 	bx	lr

00013068 <mutex_release>:
   13068:	e5d03001 	ldrb	r3, [r0, #1]
   1306c:	e3530000 	cmp	r3, #0
   13070:	012fff1e 	bxeq	lr
   13074:	e5d03000 	ldrb	r3, [r0]
   13078:	e1530001 	cmp	r3, r1
   1307c:	112fff1e 	bxne	lr
   13080:	e35300fe 	cmp	r3, #254	; 0xfe
   13084:	12833001 	addne	r3, r3, #1
   13088:	03a03001 	moveq	r3, #1
   1308c:	16ef3073 	uxtbne	r3, r3
   13090:	e5c03000 	strb	r3, [r0]
   13094:	e3a03000 	mov	r3, #0
   13098:	e5c03001 	strb	r3, [r0, #1]
   1309c:	e12fff1e 	bx	lr

000130a0 <mutex_is_requested>:
   130a0:	e5d00001 	ldrb	r0, [r0, #1]
   130a4:	e2900000 	adds	r0, r0, #0
   130a8:	13a00001 	movne	r0, #1
   130ac:	e12fff1e 	bx	lr

000130b0 <local_msg_buffer_init>:
   130b0:	e3a03000 	mov	r3, #0
   130b4:	e5c0300c 	strb	r3, [r0, #12]
   130b8:	e1c030b4 	strh	r3, [r0, #4]
   130bc:	e1c030b6 	strh	r3, [r0, #6]
   130c0:	e1c030b8 	strh	r3, [r0, #8]
   130c4:	e12fff1e 	bx	lr

000130c8 <local_msg_buffer_start_write>:
   130c8:	e5d0300c 	ldrb	r3, [r0, #12]
   130cc:	e2133002 	ands	r3, r3, #2
   130d0:	15d0300c 	ldrbne	r3, [r0, #12]
   130d4:	13833002 	orrne	r3, r3, #2
   130d8:	15c0300c 	strbne	r3, [r0, #12]
   130dc:	13a03001 	movne	r3, #1
   130e0:	e1a00003 	mov	r0, r3
   130e4:	e12fff1e 	bx	lr

000130e8 <local_msg_buffer_add_byte>:
   130e8:	e5d0300c 	ldrb	r3, [r0, #12]
   130ec:	e1d020ba 	ldrh	r2, [r0, #10]
   130f0:	e1d030b8 	ldrh	r3, [r0, #8]
   130f4:	e1520003 	cmp	r2, r3
   130f8:	012fff1e 	bxeq	lr
   130fc:	e1d030b6 	ldrh	r3, [r0, #6]
   13100:	e5902000 	ldr	r2, [r0]
   13104:	e6ff3073 	uxth	r3, r3
   13108:	e7c21003 	strb	r1, [r2, r3]
   1310c:	e1d030b6 	ldrh	r3, [r0, #6]
   13110:	e1d020ba 	ldrh	r2, [r0, #10]
   13114:	e2833001 	add	r3, r3, #1
   13118:	e6ff3073 	uxth	r3, r3
   1311c:	e1c030b6 	strh	r3, [r0, #6]
   13120:	e1d030b8 	ldrh	r3, [r0, #8]
   13124:	e2833001 	add	r3, r3, #1
   13128:	e6ff3073 	uxth	r3, r3
   1312c:	e1c030b8 	strh	r3, [r0, #8]
   13130:	e1d030b6 	ldrh	r3, [r0, #6]
   13134:	e1520003 	cmp	r2, r3
   13138:	03a03000 	moveq	r3, #0
   1313c:	01c030b6 	strheq	r3, [r0, #6]
   13140:	e12fff1e 	bx	lr

00013144 <local_msg_buffer_add_word>:
   13144:	e92d4070 	push	{r4, r5, r6, lr}
   13148:	e1a04001 	mov	r4, r1
   1314c:	e6ef1071 	uxtb	r1, r1
   13150:	ebffffe4 	bl	130e8 <local_msg_buffer_add_byte>
   13154:	e1a01424 	lsr	r1, r4, #8
   13158:	e8bd4070 	pop	{r4, r5, r6, lr}
   1315c:	eaffffe1 	b	130e8 <local_msg_buffer_add_byte>

00013160 <local_msg_buffer_add_long>:
   13160:	e92d4070 	push	{r4, r5, r6, lr}
   13164:	e1a04001 	mov	r4, r1
   13168:	e6ef1071 	uxtb	r1, r1
   1316c:	ebffffdd 	bl	130e8 <local_msg_buffer_add_byte>
   13170:	e1a01424 	lsr	r1, r4, #8
   13174:	e6ef1071 	uxtb	r1, r1
   13178:	ebffffda 	bl	130e8 <local_msg_buffer_add_byte>
   1317c:	e1a01824 	lsr	r1, r4, #16
   13180:	e6ef1071 	uxtb	r1, r1
   13184:	ebffffd7 	bl	130e8 <local_msg_buffer_add_byte>
   13188:	e1a01c24 	lsr	r1, r4, #24
   1318c:	e8bd4070 	pop	{r4, r5, r6, lr}
   13190:	eaffffd4 	b	130e8 <local_msg_buffer_add_byte>

00013194 <local_msg_buffer_add_N_bytes>:
   13194:	e92d4070 	push	{r4, r5, r6, lr}
   13198:	e1a06000 	mov	r6, r0
   1319c:	e1a04002 	mov	r4, r2
   131a0:	e0815002 	add	r5, r1, r2
   131a4:	e1540005 	cmp	r4, r5
   131a8:	08bd8070 	popeq	{r4, r5, r6, pc}
   131ac:	e4d41001 	ldrb	r1, [r4], #1
   131b0:	e1a00006 	mov	r0, r6
   131b4:	ebffffcb 	bl	130e8 <local_msg_buffer_add_byte>
   131b8:	eafffff9 	b	131a4 <local_msg_buffer_add_N_bytes+0x10>

000131bc <local_msg_buffer_stop_write>:
   131bc:	e5d0300c 	ldrb	r3, [r0, #12]
   131c0:	e20330fd 	and	r3, r3, #253	; 0xfd
   131c4:	e5c0300c 	strb	r3, [r0, #12]
   131c8:	e12fff1e 	bx	lr

000131cc <local_msg_buffer_start_read>:
   131cc:	e5d0300c 	ldrb	r3, [r0, #12]
   131d0:	e2133001 	ands	r3, r3, #1
   131d4:	15d0200c 	ldrbne	r2, [r0, #12]
   131d8:	13822001 	orrne	r2, r2, #1
   131dc:	15c0200c 	strbne	r2, [r0, #12]
   131e0:	e1a00003 	mov	r0, r3
   131e4:	e12fff1e 	bx	lr

000131e8 <local_msg_buffer_bytes_available>:
   131e8:	e1d000b8 	ldrh	r0, [r0, #8]
   131ec:	e12fff1e 	bx	lr

000131f0 <local_msg_buffer_bytes_free>:
   131f0:	e1d030b8 	ldrh	r3, [r0, #8]
   131f4:	e1d000ba 	ldrh	r0, [r0, #10]
   131f8:	e0400003 	sub	r0, r0, r3
   131fc:	e6ff0070 	uxth	r0, r0
   13200:	e12fff1e 	bx	lr

00013204 <local_msg_buffer_get_byte>:
   13204:	e5d0200c 	ldrb	r2, [r0, #12]
   13208:	e1a03000 	mov	r3, r0
   1320c:	e1d000b8 	ldrh	r0, [r0, #8]
   13210:	e6ff0070 	uxth	r0, r0
   13214:	e3500000 	cmp	r0, #0
   13218:	012fff1e 	bxeq	lr
   1321c:	e1d320b4 	ldrh	r2, [r3, #4]
   13220:	e5931000 	ldr	r1, [r3]
   13224:	e6ff2072 	uxth	r2, r2
   13228:	e7d10002 	ldrb	r0, [r1, r2]
   1322c:	e1d320b4 	ldrh	r2, [r3, #4]
   13230:	e1d310ba 	ldrh	r1, [r3, #10]
   13234:	e2822001 	add	r2, r2, #1
   13238:	e6ef0070 	uxtb	r0, r0
   1323c:	e6ff2072 	uxth	r2, r2
   13240:	e1c320b4 	strh	r2, [r3, #4]
   13244:	e1d320b8 	ldrh	r2, [r3, #8]
   13248:	e2422001 	sub	r2, r2, #1
   1324c:	e6ff2072 	uxth	r2, r2
   13250:	e1c320b8 	strh	r2, [r3, #8]
   13254:	e1d320b4 	ldrh	r2, [r3, #4]
   13258:	e1510002 	cmp	r1, r2
   1325c:	03a02000 	moveq	r2, #0
   13260:	01c320b4 	strheq	r2, [r3, #4]
   13264:	e12fff1e 	bx	lr

00013268 <local_msg_buffer_get_word>:
   13268:	e92d4070 	push	{r4, r5, r6, lr}
   1326c:	e1a05000 	mov	r5, r0
   13270:	ebffffe3 	bl	13204 <local_msg_buffer_get_byte>
   13274:	e1a04000 	mov	r4, r0
   13278:	e1a00005 	mov	r0, r5
   1327c:	ebffffe0 	bl	13204 <local_msg_buffer_get_byte>
   13280:	e1840400 	orr	r0, r4, r0, lsl #8
   13284:	e6ff0070 	uxth	r0, r0
   13288:	e8bd8070 	pop	{r4, r5, r6, pc}

0001328c <local_msg_buffer_get_long>:
   1328c:	e92d41f0 	push	{r4, r5, r6, r7, r8, lr}
   13290:	e1a05000 	mov	r5, r0
   13294:	ebffffda 	bl	13204 <local_msg_buffer_get_byte>
   13298:	e1a06000 	mov	r6, r0
   1329c:	e1a00005 	mov	r0, r5
   132a0:	ebffffd7 	bl	13204 <local_msg_buffer_get_byte>
   132a4:	e1a07000 	mov	r7, r0
   132a8:	e1a00005 	mov	r0, r5
   132ac:	ebffffd4 	bl	13204 <local_msg_buffer_get_byte>
   132b0:	e1a04800 	lsl	r4, r0, #16
   132b4:	e1a00005 	mov	r0, r5
   132b8:	ebffffd1 	bl	13204 <local_msg_buffer_get_byte>
   132bc:	e1844407 	orr	r4, r4, r7, lsl #8
   132c0:	e1844006 	orr	r4, r4, r6
   132c4:	e1840c00 	orr	r0, r4, r0, lsl #24
   132c8:	e8bd81f0 	pop	{r4, r5, r6, r7, r8, pc}

000132cc <local_msg_buffer_get_N_bytes>:
   132cc:	e92d41f0 	push	{r4, r5, r6, r7, r8, lr}
   132d0:	e1a05000 	mov	r5, r0
   132d4:	e1a06001 	mov	r6, r1
   132d8:	e1a07002 	mov	r7, r2
   132dc:	e3a04000 	mov	r4, #0
   132e0:	e1540006 	cmp	r4, r6
   132e4:	e6ff0074 	uxth	r0, r4
   132e8:	08bd81f0 	popeq	{r4, r5, r6, r7, r8, pc}
   132ec:	e1d530b8 	ldrh	r3, [r5, #8]
   132f0:	e3530000 	cmp	r3, #0
   132f4:	08bd81f0 	popeq	{r4, r5, r6, r7, r8, pc}
   132f8:	e1a00005 	mov	r0, r5
   132fc:	ebffffc0 	bl	13204 <local_msg_buffer_get_byte>
   13300:	e7c70004 	strb	r0, [r7, r4]
   13304:	e2844001 	add	r4, r4, #1
   13308:	eafffff4 	b	132e0 <local_msg_buffer_get_N_bytes+0x14>

0001330c <local_msg_buffer_stop_read>:
   1330c:	e5d0300c 	ldrb	r3, [r0, #12]
   13310:	e20330fe 	and	r3, r3, #254	; 0xfe
   13314:	e5c0300c 	strb	r3, [r0, #12]
   13318:	e12fff1e 	bx	lr

0001331c <local_msg_buffer_clear_all>:
   1331c:	e3a03000 	mov	r3, #0
   13320:	e1c030b4 	strh	r3, [r0, #4]
   13324:	e1c030b6 	strh	r3, [r0, #6]
   13328:	e1c030b8 	strh	r3, [r0, #8]
   1332c:	e12fff1e 	bx	lr

00013330 <local_msg_buffer_debug_print>:
   13330:	e12fff1e 	bx	lr

00013334 <signal_slot_init>:
   13334:	e3a03805 	mov	r3, #327680	; 0x50000
   13338:	e5803000 	str	r3, [r0]
   1333c:	e12fff1e 	bx	lr

00013340 <signal_slot_send>:
   13340:	e92d41f0 	push	{r4, r5, r6, r7, r8, lr}
   13344:	e1a07001 	mov	r7, r1
   13348:	e1d010b2 	ldrh	r1, [r0, #2]
   1334c:	e1a06000 	mov	r6, r0
   13350:	e3510000 	cmp	r1, #0
   13354:	1a00000c 	bne	1338c <signal_slot_send+0x4c>
   13358:	e59f405c 	ldr	r4, [pc, #92]	; 133bc <signal_slot_send+0x7c>
   1335c:	e5d43000 	ldrb	r3, [r4]
   13360:	e3530000 	cmp	r3, #0
   13364:	18bd81f0 	popne	{r4, r5, r6, r7, r8, pc}
   13368:	e5965004 	ldr	r5, [r6, #4]
   1336c:	e3a03001 	mov	r3, #1
   13370:	e5c43000 	strb	r3, [r4]
   13374:	e3550000 	cmp	r5, #0
   13378:	1a000008 	bne	133a0 <signal_slot_send+0x60>
   1337c:	eb0001ce 	bl	13abc <time_mgmnt_gettime_u16>
   13380:	e5c45000 	strb	r5, [r4]
   13384:	e1c600b0 	strh	r0, [r6]
   13388:	e8bd81f0 	pop	{r4, r5, r6, r7, r8, pc}
   1338c:	e1d000b0 	ldrh	r0, [r0]
   13390:	eb000205 	bl	13bac <time_mgmnt_istimeup_raw_u16>
   13394:	e3500000 	cmp	r0, #0
   13398:	1affffee 	bne	13358 <signal_slot_send+0x18>
   1339c:	e8bd81f0 	pop	{r4, r5, r6, r7, r8, pc}
   133a0:	e5953000 	ldr	r3, [r5]
   133a4:	e3530000 	cmp	r3, #0
   133a8:	0a000001 	beq	133b4 <signal_slot_send+0x74>
   133ac:	e1a00007 	mov	r0, r7
   133b0:	e12fff33 	blx	r3
   133b4:	e5955004 	ldr	r5, [r5, #4]
   133b8:	eaffffed 	b	13374 <signal_slot_send+0x34>
   133bc:	0002736c 	.word	0x0002736c

000133c0 <signal_slot_connect>:
   133c0:	e5903004 	ldr	r3, [r0, #4]
   133c4:	e3530000 	cmp	r3, #0
   133c8:	1a000002 	bne	133d8 <signal_slot_connect+0x18>
   133cc:	e5801004 	str	r1, [r0, #4]
   133d0:	e12fff1e 	bx	lr
   133d4:	e1a03002 	mov	r3, r2
   133d8:	e5932004 	ldr	r2, [r3, #4]
   133dc:	e3520000 	cmp	r2, #0
   133e0:	1afffffb 	bne	133d4 <signal_slot_connect+0x14>
   133e4:	e5831004 	str	r1, [r3, #4]
   133e8:	e5812004 	str	r2, [r1, #4]
   133ec:	e12fff1e 	bx	lr

000133f0 <common_tools_hex_dump>:
   133f0:	e92d4ff7 	push	{r0, r1, r2, r4, r5, r6, r7, r8, r9, sl, fp, lr}
   133f4:	e1a09000 	mov	r9, r0
   133f8:	e1a07001 	mov	r7, r1
   133fc:	e59f00f0 	ldr	r0, [pc, #240]	; 134f4 <common_tools_hex_dump+0x104>
   13400:	e3a01000 	mov	r1, #0
   13404:	ebfff541 	bl	10910 <printf@plt>
   13408:	e3a04000 	mov	r4, #0
   1340c:	e59fa0e4 	ldr	sl, [pc, #228]	; 134f8 <common_tools_hex_dump+0x108>
   13410:	e59fb0e4 	ldr	fp, [pc, #228]	; 134fc <common_tools_hex_dump+0x10c>
   13414:	e1a06004 	mov	r6, r4
   13418:	e1a08004 	mov	r8, r4
   1341c:	e1a05004 	mov	r5, r4
   13420:	e3570000 	cmp	r7, #0
   13424:	0a000022 	beq	134b4 <common_tools_hex_dump+0xc4>
   13428:	e2883001 	add	r3, r8, #1
   1342c:	e7d91008 	ldrb	r1, [r9, r8]
   13430:	e6ef3073 	uxtb	r3, r3
   13434:	e1a0000a 	mov	r0, sl
   13438:	e58d3004 	str	r3, [sp, #4]
   1343c:	e2477001 	sub	r7, r7, #1
   13440:	ebfff532 	bl	10910 <printf@plt>
   13444:	e59d3004 	ldr	r3, [sp, #4]
   13448:	e6ff7077 	uxth	r7, r7
   1344c:	e1a08003 	mov	r8, r3
   13450:	e3550000 	cmp	r5, #0
   13454:	e2855001 	add	r5, r5, #1
   13458:	0a000003 	beq	1346c <common_tools_hex_dump+0x7c>
   1345c:	e3150007 	tst	r5, #7
   13460:	1a000001 	bne	1346c <common_tools_hex_dump+0x7c>
   13464:	e3a00020 	mov	r0, #32
   13468:	ebfff567 	bl	10a0c <putchar@plt>
   1346c:	e6ff5075 	uxth	r5, r5
   13470:	e315000f 	tst	r5, #15
   13474:	1affffe9 	bne	13420 <common_tools_hex_dump+0x30>
   13478:	e1a0000b 	mov	r0, fp
   1347c:	ebfff523 	bl	10910 <printf@plt>
   13480:	e0892006 	add	r2, r9, r6
   13484:	e1580006 	cmp	r8, r6
   13488:	8a00000c 	bhi	134c0 <common_tools_hex_dump+0xd0>
   1348c:	e3a0000a 	mov	r0, #10
   13490:	ebfff55d 	bl	10a0c <putchar@plt>
   13494:	e3570000 	cmp	r7, #0
   13498:	0a000013 	beq	134ec <common_tools_hex_dump+0xfc>
   1349c:	e2844010 	add	r4, r4, #16
   134a0:	e59f004c 	ldr	r0, [pc, #76]	; 134f4 <common_tools_hex_dump+0x104>
   134a4:	e6ff4074 	uxth	r4, r4
   134a8:	e1a01004 	mov	r1, r4
   134ac:	ebfff517 	bl	10910 <printf@plt>
   134b0:	eaffffda 	b	13420 <common_tools_hex_dump+0x30>
   134b4:	e59f0044 	ldr	r0, [pc, #68]	; 13500 <common_tools_hex_dump+0x110>
   134b8:	ebfff514 	bl	10910 <printf@plt>
   134bc:	eaffffe3 	b	13450 <common_tools_hex_dump+0x60>
   134c0:	e4d20001 	ldrb	r0, [r2], #1
   134c4:	e2866001 	add	r6, r6, #1
   134c8:	e2403021 	sub	r3, r0, #33	; 0x21
   134cc:	e58d2004 	str	r2, [sp, #4]
   134d0:	e6ef3073 	uxtb	r3, r3
   134d4:	e35300de 	cmp	r3, #222	; 0xde
   134d8:	23a0002e 	movcs	r0, #46	; 0x2e
   134dc:	ebfff54a 	bl	10a0c <putchar@plt>
   134e0:	e6ef6076 	uxtb	r6, r6
   134e4:	e59d2004 	ldr	r2, [sp, #4]
   134e8:	eaffffe5 	b	13484 <common_tools_hex_dump+0x94>
   134ec:	e28dd00c 	add	sp, sp, #12
   134f0:	e8bd8ff0 	pop	{r4, r5, r6, r7, r8, r9, sl, fp, pc}
   134f4:	0001670f 	.word	0x0001670f
   134f8:	0001671a 	.word	0x0001671a
   134fc:	00016715 	.word	0x00016715
   13500:	00016720 	.word	0x00016720

00013504 <common_tools_string_get_char_count>:
   13504:	e92d4070 	push	{r4, r5, r6, lr}
   13508:	e1a05000 	mov	r5, r0
   1350c:	e1a00001 	mov	r0, r1
   13510:	e1a04001 	mov	r4, r1
   13514:	ebfff530 	bl	109dc <strlen@plt>
   13518:	e3a02000 	mov	r2, #0
   1351c:	e1a03002 	mov	r3, r2
   13520:	e6ffc072 	uxth	ip, r2
   13524:	e150000c 	cmp	r0, ip
   13528:	8a000001 	bhi	13534 <common_tools_string_get_char_count+0x30>
   1352c:	e1a00003 	mov	r0, r3
   13530:	e8bd8070 	pop	{r4, r5, r6, pc}
   13534:	e7d4100c 	ldrb	r1, [r4, ip]
   13538:	e2822001 	add	r2, r2, #1
   1353c:	e1510005 	cmp	r1, r5
   13540:	02833001 	addeq	r3, r3, #1
   13544:	06ff3073 	uxtheq	r3, r3
   13548:	eafffff4 	b	13520 <common_tools_string_get_char_count+0x1c>

0001354c <common_tools_string_clear>:
   1354c:	e1a02001 	mov	r2, r1
   13550:	e3a01000 	mov	r1, #0
   13554:	eafff529 	b	10a00 <memset@plt>

00013558 <common_tools_string_trim>:
   13558:	e92d4070 	push	{r4, r5, r6, lr}
   1355c:	e1a05000 	mov	r5, r0
   13560:	ebfff51d 	bl	109dc <strlen@plt>
   13564:	e6ff4070 	uxth	r4, r0
   13568:	e3540000 	cmp	r4, #0
   1356c:	08bd8070 	popeq	{r4, r5, r6, pc}
   13570:	e1a06000 	mov	r6, r0
   13574:	ebfff512 	bl	109c4 <__ctype_b_loc@plt>
   13578:	e3a03000 	mov	r3, #0
   1357c:	e5900000 	ldr	r0, [r0]
   13580:	e7d52003 	ldrb	r2, [r5, r3]
   13584:	e6ff1073 	uxth	r1, r3
   13588:	e1a02082 	lsl	r2, r2, #1
   1358c:	e19020b2 	ldrh	r2, [r0, r2]
   13590:	e3120a02 	tst	r2, #8192	; 0x2000
   13594:	0a000004 	beq	135ac <common_tools_string_trim+0x54>
   13598:	e2833001 	add	r3, r3, #1
   1359c:	e6ff2073 	uxth	r2, r3
   135a0:	e1540002 	cmp	r4, r2
   135a4:	8afffff5 	bhi	13580 <common_tools_string_trim+0x28>
   135a8:	e3a01000 	mov	r1, #0
   135ac:	e2443001 	sub	r3, r4, #1
   135b0:	e6f53073 	uxtah	r3, r5, r3
   135b4:	e3540001 	cmp	r4, #1
   135b8:	0a000006 	beq	135d8 <common_tools_string_trim+0x80>
   135bc:	e4532001 	ldrb	r2, [r3], #-1
   135c0:	e1a0c082 	lsl	ip, r2, #1
   135c4:	e2922000 	adds	r2, r2, #0
   135c8:	e190c0bc 	ldrh	ip, [r0, ip]
   135cc:	13a02001 	movne	r2, #1
   135d0:	e01226ac 	ands	r2, r2, ip, lsr #13
   135d4:	1a00000b 	bne	13608 <common_tools_string_trim+0xb0>
   135d8:	e0444001 	sub	r4, r4, r1
   135dc:	e1a00005 	mov	r0, r5
   135e0:	e6ff4074 	uxth	r4, r4
   135e4:	e1a02004 	mov	r2, r4
   135e8:	e0851001 	add	r1, r5, r1
   135ec:	ebfff4d0 	bl	10934 <memmove@plt>
   135f0:	e6ff2076 	uxth	r2, r6
   135f4:	e0422004 	sub	r2, r2, r4
   135f8:	e0850004 	add	r0, r5, r4
   135fc:	e3a01000 	mov	r1, #0
   13600:	e8bd4070 	pop	{r4, r5, r6, lr}
   13604:	eafff4fd 	b	10a00 <memset@plt>
   13608:	e2444001 	sub	r4, r4, #1
   1360c:	e6ff4074 	uxth	r4, r4
   13610:	eaffffe7 	b	135b4 <common_tools_string_trim+0x5c>

00013614 <common_tools_string_split>:
   13614:	e92d47f0 	push	{r4, r5, r6, r7, r8, r9, sl, lr}
   13618:	e1a08000 	mov	r8, r0
   1361c:	e1a00001 	mov	r0, r1
   13620:	e1a04001 	mov	r4, r1
   13624:	e1a0a003 	mov	sl, r3
   13628:	e1a06002 	mov	r6, r2
   1362c:	ebfff4ea 	bl	109dc <strlen@plt>
   13630:	e1dd72b4 	ldrh	r7, [sp, #36]	; 0x24
   13634:	e3a03000 	mov	r3, #0
   13638:	e59d5020 	ldr	r5, [sp, #32]
   1363c:	e1a01004 	mov	r1, r4
   13640:	e6f4e070 	uxtah	lr, r4, r0
   13644:	e1a04003 	mov	r4, r3
   13648:	e1a00003 	mov	r0, r3
   1364c:	e3550000 	cmp	r5, #0
   13650:	11540007 	cmpne	r4, r7
   13654:	33a09001 	movcc	r9, #1
   13658:	23a09000 	movcs	r9, #0
   1365c:	e150000a 	cmp	r0, sl
   13660:	23a0c000 	movcs	ip, #0
   13664:	33a0c001 	movcc	ip, #1
   13668:	e3560000 	cmp	r6, #0
   1366c:	03a0c000 	moveq	ip, #0
   13670:	e15e0001 	cmp	lr, r1
   13674:	1a00000c 	bne	136ac <common_tools_string_split+0x98>
   13678:	e35c0000 	cmp	ip, #0
   1367c:	0a000003 	beq	13690 <common_tools_string_split+0x7c>
   13680:	e04a2000 	sub	r2, sl, r0
   13684:	e3a01000 	mov	r1, #0
   13688:	e0860000 	add	r0, r6, r0
   1368c:	ebfff4db 	bl	10a00 <memset@plt>
   13690:	e3590000 	cmp	r9, #0
   13694:	08bd87f0 	popeq	{r4, r5, r6, r7, r8, r9, sl, pc}
   13698:	e0472004 	sub	r2, r7, r4
   1369c:	e0850004 	add	r0, r5, r4
   136a0:	e3a01000 	mov	r1, #0
   136a4:	e8bd47f0 	pop	{r4, r5, r6, r7, r8, r9, sl, lr}
   136a8:	eafff4d4 	b	10a00 <memset@plt>
   136ac:	e4d12001 	ldrb	r2, [r1], #1
   136b0:	e3520000 	cmp	r2, #0
   136b4:	0affffef 	beq	13678 <common_tools_string_split+0x64>
   136b8:	e3530000 	cmp	r3, #0
   136bc:	1a000007 	bne	136e0 <common_tools_string_split+0xcc>
   136c0:	e1520008 	cmp	r2, r8
   136c4:	03a03001 	moveq	r3, #1
   136c8:	0affffdf 	beq	1364c <common_tools_string_split+0x38>
   136cc:	e35c0000 	cmp	ip, #0
   136d0:	1280c001 	addne	ip, r0, #1
   136d4:	17c62000 	strbne	r2, [r6, r0]
   136d8:	16ff007c 	uxthne	r0, ip
   136dc:	eaffffda 	b	1364c <common_tools_string_split+0x38>
   136e0:	e3590000 	cmp	r9, #0
   136e4:	1284c001 	addne	ip, r4, #1
   136e8:	17c52004 	strbne	r2, [r5, r4]
   136ec:	16ff407c 	uxthne	r4, ip
   136f0:	eaffffd5 	b	1364c <common_tools_string_split+0x38>

000136f4 <common_tools_string_append>:
   136f4:	e92d47f0 	push	{r4, r5, r6, r7, r8, r9, sl, lr}
   136f8:	e1a09001 	mov	r9, r1
   136fc:	e1a07002 	mov	r7, r2
   13700:	e1a06000 	mov	r6, r0
   13704:	ebfff4b4 	bl	109dc <strlen@plt>
   13708:	e6ff5070 	uxth	r5, r0
   1370c:	e1a08000 	mov	r8, r0
   13710:	e1a00009 	mov	r0, r9
   13714:	ebfff4b0 	bl	109dc <strlen@plt>
   13718:	e0854000 	add	r4, r5, r0
   1371c:	e6ff4074 	uxth	r4, r4
   13720:	e1540007 	cmp	r4, r7
   13724:	8a000008 	bhi	1374c <common_tools_string_append+0x58>
   13728:	e6ff2070 	uxth	r2, r0
   1372c:	e1a01009 	mov	r1, r9
   13730:	e6f60078 	uxtah	r0, r6, r8
   13734:	ebfff481 	bl	10940 <memcpy@plt>
   13738:	e0472004 	sub	r2, r7, r4
   1373c:	e3a01000 	mov	r1, #0
   13740:	e0860004 	add	r0, r6, r4
   13744:	ebfff4ad 	bl	10a00 <memset@plt>
   13748:	e1a05004 	mov	r5, r4
   1374c:	e1a00005 	mov	r0, r5
   13750:	e8bd87f0 	pop	{r4, r5, r6, r7, r8, r9, sl, pc}

00013754 <common_tools_string_ends_with>:
   13754:	e92d4070 	push	{r4, r5, r6, lr}
   13758:	e1a05000 	mov	r5, r0
   1375c:	e1a04001 	mov	r4, r1
   13760:	ebfff49d 	bl	109dc <strlen@plt>
   13764:	e6ff3070 	uxth	r3, r0
   13768:	e3530000 	cmp	r3, #0
   1376c:	16f50070 	uxtahne	r0, r5, r0
   13770:	15500001 	ldrbne	r0, [r0, #-1]
   13774:	10400004 	subne	r0, r0, r4
   13778:	116f0f10 	clzne	r0, r0
   1377c:	11a002a0 	lsrne	r0, r0, #5
   13780:	01a00003 	moveq	r0, r3
   13784:	e8bd8070 	pop	{r4, r5, r6, pc}

00013788 <common_tools_string_length>:
   13788:	e92d4010 	push	{r4, lr}
   1378c:	ebfff492 	bl	109dc <strlen@plt>
   13790:	e6ff0070 	uxth	r0, r0
   13794:	e8bd8010 	pop	{r4, pc}

00013798 <common_tools_string_remove_last_character>:
   13798:	e92d4010 	push	{r4, lr}
   1379c:	e1a04000 	mov	r4, r0
   137a0:	ebfff48d 	bl	109dc <strlen@plt>
   137a4:	e6ff3070 	uxth	r3, r0
   137a8:	e3530000 	cmp	r3, #0
   137ac:	16f40070 	uxtahne	r0, r4, r0
   137b0:	13a03000 	movne	r3, #0
   137b4:	15403001 	strbne	r3, [r0, #-1]
   137b8:	e8bd8010 	pop	{r4, pc}

000137bc <common_tools_string_compare>:
   137bc:	e92d4070 	push	{r4, r5, r6, lr}
   137c0:	e1a04001 	mov	r4, r1
   137c4:	e1a06000 	mov	r6, r0
   137c8:	ebfff483 	bl	109dc <strlen@plt>
   137cc:	e1a05000 	mov	r5, r0
   137d0:	e1a00004 	mov	r0, r4
   137d4:	ebfff480 	bl	109dc <strlen@plt>
   137d8:	e1550000 	cmp	r5, r0
   137dc:	1a000006 	bne	137fc <common_tools_string_compare+0x40>
   137e0:	e1a02005 	mov	r2, r5
   137e4:	e1a01004 	mov	r1, r4
   137e8:	e1a00006 	mov	r0, r6
   137ec:	ebfff459 	bl	10958 <memcmp@plt>
   137f0:	e16f0f10 	clz	r0, r0
   137f4:	e1a002a0 	lsr	r0, r0, #5
   137f8:	e8bd8070 	pop	{r4, r5, r6, pc}
   137fc:	e3a00000 	mov	r0, #0
   13800:	e8bd8070 	pop	{r4, r5, r6, pc}

00013804 <common_tools_string_copy_string>:
   13804:	e92d41f0 	push	{r4, r5, r6, r7, r8, lr}
   13808:	e1a05001 	mov	r5, r1
   1380c:	e3a01000 	mov	r1, #0
   13810:	e1a07000 	mov	r7, r0
   13814:	e1a06002 	mov	r6, r2
   13818:	ebfff478 	bl	10a00 <memset@plt>
   1381c:	e3550000 	cmp	r5, #0
   13820:	01a04005 	moveq	r4, r5
   13824:	0a000009 	beq	13850 <common_tools_string_copy_string+0x4c>
   13828:	e1a00005 	mov	r0, r5
   1382c:	ebfff46a 	bl	109dc <strlen@plt>
   13830:	e1a01005 	mov	r1, r5
   13834:	e6ff4070 	uxth	r4, r0
   13838:	e1560004 	cmp	r6, r4
   1383c:	92464001 	subls	r4, r6, #1
   13840:	e1a00007 	mov	r0, r7
   13844:	96ff4074 	uxthls	r4, r4
   13848:	e1a02004 	mov	r2, r4
   1384c:	ebfff43b 	bl	10940 <memcpy@plt>
   13850:	e1a00004 	mov	r0, r4
   13854:	e8bd81f0 	pop	{r4, r5, r6, r7, r8, pc}

00013858 <common_tools_string_from_u8>:
   13858:	e1a03002 	mov	r3, r2
   1385c:	e59f2000 	ldr	r2, [pc]	; 13864 <common_tools_string_from_u8+0xc>
   13860:	eafff463 	b	109f4 <snprintf@plt>
   13864:	00016724 	.word	0x00016724

00013868 <common_tools_string_from_i32>:
   13868:	e1a03002 	mov	r3, r2
   1386c:	e59f2000 	ldr	r2, [pc]	; 13874 <common_tools_string_from_i32+0xc>
   13870:	eafff45f 	b	109f4 <snprintf@plt>
   13874:	00016724 	.word	0x00016724

00013878 <common_tools_hex_string_to_byte_array>:
   13878:	e3510001 	cmp	r1, #1
   1387c:	9a000031 	bls	13948 <common_tools_hex_string_to_byte_array+0xd0>
   13880:	e92d41f0 	push	{r4, r5, r6, r7, r8, lr}
   13884:	e1a04002 	mov	r4, r2
   13888:	e1a06001 	mov	r6, r1
   1388c:	e1a02003 	mov	r2, r3
   13890:	e1a07000 	mov	r7, r0
   13894:	e3a01000 	mov	r1, #0
   13898:	e1a00004 	mov	r0, r4
   1389c:	e1a05003 	mov	r5, r3
   138a0:	ebfff456 	bl	10a00 <memset@plt>
   138a4:	e3a03000 	mov	r3, #0
   138a8:	e3a02001 	mov	r2, #1
   138ac:	e1a00003 	mov	r0, r3
   138b0:	e6ffc073 	uxth	ip, r3
   138b4:	e156000c 	cmp	r6, ip
   138b8:	93a01000 	movls	r1, #0
   138bc:	83a01001 	movhi	r1, #1
   138c0:	e1500005 	cmp	r0, r5
   138c4:	23a01000 	movcs	r1, #0
   138c8:	e3510000 	cmp	r1, #0
   138cc:	08bd81f0 	popeq	{r4, r5, r6, r7, r8, pc}
   138d0:	e6ff1073 	uxth	r1, r3
   138d4:	e7d7c001 	ldrb	ip, [r7, r1]
   138d8:	e35c0000 	cmp	ip, #0
   138dc:	08bd81f0 	popeq	{r4, r5, r6, r7, r8, pc}
   138e0:	e24ce030 	sub	lr, ip, #48	; 0x30
   138e4:	e3520000 	cmp	r2, #0
   138e8:	e6efe07e 	uxtb	lr, lr
   138ec:	13a01010 	movne	r1, #16
   138f0:	03a01001 	moveq	r1, #1
   138f4:	e35e0009 	cmp	lr, #9
   138f8:	9a000008 	bls	13920 <common_tools_hex_string_to_byte_array+0xa8>
   138fc:	e24ce041 	sub	lr, ip, #65	; 0x41
   13900:	e35e0019 	cmp	lr, #25
   13904:	924cc037 	subls	ip, ip, #55	; 0x37
   13908:	9a000003 	bls	1391c <common_tools_hex_string_to_byte_array+0xa4>
   1390c:	e24ce062 	sub	lr, ip, #98	; 0x62
   13910:	e35e0017 	cmp	lr, #23
   13914:	8a000009 	bhi	13940 <common_tools_hex_string_to_byte_array+0xc8>
   13918:	e24cc057 	sub	ip, ip, #87	; 0x57
   1391c:	e6efe07c 	uxtb	lr, ip
   13920:	e7d4c000 	ldrb	ip, [r4, r0]
   13924:	e3520000 	cmp	r2, #0
   13928:	03a02001 	moveq	r2, #1
   1392c:	e02cc19e 	mla	ip, lr, r1, ip
   13930:	13a02000 	movne	r2, #0
   13934:	e7c4c000 	strb	ip, [r4, r0]
   13938:	02800001 	addeq	r0, r0, #1
   1393c:	06ff0070 	uxtheq	r0, r0
   13940:	e2833001 	add	r3, r3, #1
   13944:	eaffffd9 	b	138b0 <common_tools_hex_string_to_byte_array+0x38>
   13948:	e3a00000 	mov	r0, #0
   1394c:	e12fff1e 	bx	lr

00013950 <common_tools_byte_array_string_to_hex_string>:
   13950:	e3510000 	cmp	r1, #0
   13954:	13530001 	cmpne	r3, #1
   13958:	e92d41f0 	push	{r4, r5, r6, r7, r8, lr}
   1395c:	93a08001 	movls	r8, #1
   13960:	83a08000 	movhi	r8, #0
   13964:	9a000024 	bls	139fc <common_tools_byte_array_string_to_hex_string+0xac>
   13968:	e1a07001 	mov	r7, r1
   1396c:	e1a04002 	mov	r4, r2
   13970:	e1a06003 	mov	r6, r3
   13974:	e1a02003 	mov	r2, r3
   13978:	e1a05000 	mov	r5, r0
   1397c:	e1a01008 	mov	r1, r8
   13980:	e1a00004 	mov	r0, r4
   13984:	ebfff41d 	bl	10a00 <memset@plt>
   13988:	e1a02005 	mov	r2, r5
   1398c:	e1a00008 	mov	r0, r8
   13990:	e2463002 	sub	r3, r6, #2
   13994:	e6ff1077 	uxth	r1, r7
   13998:	e1500003 	cmp	r0, r3
   1399c:	a8bd81f0 	popge	{r4, r5, r6, r7, r8, pc}
   139a0:	e5d2c000 	ldrb	ip, [r2]
   139a4:	e1a06002 	mov	r6, r2
   139a8:	e280e001 	add	lr, r0, #1
   139ac:	e2822001 	add	r2, r2, #1
   139b0:	e1a0c22c 	lsr	ip, ip, #4
   139b4:	e35c0009 	cmp	ip, #9
   139b8:	828cc037 	addhi	ip, ip, #55	; 0x37
   139bc:	928cc030 	addls	ip, ip, #48	; 0x30
   139c0:	e7c4c000 	strb	ip, [r4, r0]
   139c4:	e5d6c000 	ldrb	ip, [r6]
   139c8:	e6ffe07e 	uxth	lr, lr
   139cc:	e2800002 	add	r0, r0, #2
   139d0:	e20cc00f 	and	ip, ip, #15
   139d4:	e35c0009 	cmp	ip, #9
   139d8:	828cc037 	addhi	ip, ip, #55	; 0x37
   139dc:	928cc030 	addls	ip, ip, #48	; 0x30
   139e0:	e7c4c00e 	strb	ip, [r4, lr]
   139e4:	e042c005 	sub	ip, r2, r5
   139e8:	e6ff0070 	uxth	r0, r0
   139ec:	e6ffc07c 	uxth	ip, ip
   139f0:	e151000c 	cmp	r1, ip
   139f4:	8affffe7 	bhi	13998 <common_tools_byte_array_string_to_hex_string+0x48>
   139f8:	e8bd81f0 	pop	{r4, r5, r6, r7, r8, pc}
   139fc:	e3a00000 	mov	r0, #0
   13a00:	e8bd81f0 	pop	{r4, r5, r6, r7, r8, pc}

00013a04 <common_tools_string_to_u16>:
   13a04:	e92d4010 	push	{r4, lr}
   13a08:	ebfff411 	bl	10a54 <atoi@plt>
   13a0c:	e6ff0070 	uxth	r0, r0
   13a10:	e8bd8010 	pop	{r4, pc}

00013a14 <common_tools_string_to_u32>:
   13a14:	eafff40e 	b	10a54 <atoi@plt>

00013a18 <empty_driver_initialize>:
   13a18:	e12fff1e 	bx	lr

00013a1c <empty_driver_configure>:
   13a1c:	e12fff1e 	bx	lr

00013a20 <empty_driver_bytes_available>:
   13a20:	e3a00000 	mov	r0, #0
   13a24:	e12fff1e 	bx	lr

00013a28 <empty_driver_get_N_bytes>:
   13a28:	e3a00000 	mov	r0, #0
   13a2c:	e12fff1e 	bx	lr

00013a30 <empty_driver_start_rx>:
   13a30:	e12fff1e 	bx	lr

00013a34 <empty_driver_wait_for_rx>:
   13a34:	e12fff1e 	bx	lr

00013a38 <empty_driver_set_address>:
   13a38:	e12fff1e 	bx	lr

00013a3c <__system_interface_add_event_dummy>:
   13a3c:	e12fff1e 	bx	lr

00013a40 <__system_interface_get_event_dummy>:
   13a40:	e3a00000 	mov	r0, #0
   13a44:	e12fff1e 	bx	lr

00013a48 <__system_interface_progmem_get_byte>:
   13a48:	e3a00000 	mov	r0, #0
   13a4c:	e12fff1e 	bx	lr

00013a50 <__system_interface_progmem_get_word>:
   13a50:	e3a00000 	mov	r0, #0
   13a54:	e12fff1e 	bx	lr

00013a58 <__system_interface_progmem_get_long>:
   13a58:	e3a00000 	mov	r0, #0
   13a5c:	e12fff1e 	bx	lr

00013a60 <__system_interface_progmem_get_N_bytes>:
   13a60:	e12fff1e 	bx	lr

00013a64 <empty_driver_set_N_bytes>:
   13a64:	e3a00000 	mov	r0, #0
   13a68:	e12fff1e 	bx	lr

00013a6c <empty_driver_wait_for_tx>:
   13a6c:	e12fff1e 	bx	lr

00013a70 <empty_driver_is_ready_for_tx>:
   13a70:	e3a00000 	mov	r0, #0
   13a74:	e12fff1e 	bx	lr

00013a78 <empty_driver_is_ready_for_rx>:
   13a78:	e3a00000 	mov	r0, #0
   13a7c:	e12fff1e 	bx	lr

00013a80 <empty_driver_mutex_request>:
   13a80:	e3a00000 	mov	r0, #0
   13a84:	e12fff1e 	bx	lr

00013a88 <empty_driver_mutex_release>:
   13a88:	e12fff1e 	bx	lr

00013a8c <empty_driver_clear_rx_buffer>:
   13a8c:	e12fff1e 	bx	lr

00013a90 <empty_driver_clear_tx_buffer>:
   13a90:	e12fff1e 	bx	lr

00013a94 <empty_driver_stop_rx>:
   13a94:	e12fff1e 	bx	lr

00013a98 <empty_driver_start_tx>:
   13a98:	e12fff1e 	bx	lr

00013a9c <empty_driver_stop_tx>:
   13a9c:	e12fff1e 	bx	lr

00013aa0 <empty_driver_power_off>:
   13aa0:	e12fff1e 	bx	lr

00013aa4 <empty_driver_set_rx_bytes>:
   13aa4:	e12fff1e 	bx	lr

00013aa8 <empty_driver_get_tx_bytes>:
   13aa8:	e3a00000 	mov	r0, #0
   13aac:	e12fff1e 	bx	lr

00013ab0 <empty_driver_get_tx_bytes_num_available>:
   13ab0:	e3a00000 	mov	r0, #0
   13ab4:	e12fff1e 	bx	lr

00013ab8 <time_mgmnt_gettime_u8>:
   13ab8:	ea000314 	b	14710 <local_rtc_timer_gettime_u8>

00013abc <time_mgmnt_gettime_u16>:
   13abc:	ea000317 	b	14720 <local_rtc_timer_gettime_u16>

00013ac0 <time_mgmnt_gettime_u32>:
   13ac0:	ea0002f0 	b	14688 <local_rtc_timer_gettime_u32>

00013ac4 <time_mgmnt_start_u8>:
   13ac4:	e92d4010 	push	{r4, lr}
   13ac8:	e1a04000 	mov	r4, r0
   13acc:	eb00030f 	bl	14710 <local_rtc_timer_gettime_u8>
   13ad0:	e3a03001 	mov	r3, #1
   13ad4:	e5c43000 	strb	r3, [r4]
   13ad8:	e5c40001 	strb	r0, [r4, #1]
   13adc:	e8bd8010 	pop	{r4, pc}

00013ae0 <time_mgmnt_start_u16>:
   13ae0:	e92d4010 	push	{r4, lr}
   13ae4:	e1a04000 	mov	r4, r0
   13ae8:	eb00030c 	bl	14720 <local_rtc_timer_gettime_u16>
   13aec:	e3a03001 	mov	r3, #1
   13af0:	e5c43000 	strb	r3, [r4]
   13af4:	e1c400b2 	strh	r0, [r4, #2]
   13af8:	e8bd8010 	pop	{r4, pc}

00013afc <time_mgmnt_start_u32>:
   13afc:	e92d4010 	push	{r4, lr}
   13b00:	e1a04000 	mov	r4, r0
   13b04:	eb0002df 	bl	14688 <local_rtc_timer_gettime_u32>
   13b08:	e3a03001 	mov	r3, #1
   13b0c:	e5c43000 	strb	r3, [r4]
   13b10:	e5840004 	str	r0, [r4, #4]
   13b14:	e8bd8010 	pop	{r4, pc}

00013b18 <time_mgmnt_stop_u8>:
   13b18:	e3a03000 	mov	r3, #0
   13b1c:	e5c03001 	strb	r3, [r0, #1]
   13b20:	e5c03000 	strb	r3, [r0]
   13b24:	e12fff1e 	bx	lr

00013b28 <time_mgmnt_stop_u16>:
   13b28:	e3a03000 	mov	r3, #0
   13b2c:	e1c030b2 	strh	r3, [r0, #2]
   13b30:	e5c03000 	strb	r3, [r0]
   13b34:	e12fff1e 	bx	lr

00013b38 <time_mgmnt_stop_u32>:
   13b38:	e3a03000 	mov	r3, #0
   13b3c:	e5803004 	str	r3, [r0, #4]
   13b40:	e5c03000 	strb	r3, [r0]
   13b44:	e12fff1e 	bx	lr

00013b48 <time_mgmnt_is_active_u8>:
   13b48:	e5d00000 	ldrb	r0, [r0]
   13b4c:	e2400001 	sub	r0, r0, #1
   13b50:	e16f0f10 	clz	r0, r0
   13b54:	e1a002a0 	lsr	r0, r0, #5
   13b58:	e12fff1e 	bx	lr

00013b5c <time_mgmnt_is_active_u16>:
   13b5c:	e5d00000 	ldrb	r0, [r0]
   13b60:	e2400001 	sub	r0, r0, #1
   13b64:	e16f0f10 	clz	r0, r0
   13b68:	e1a002a0 	lsr	r0, r0, #5
   13b6c:	e12fff1e 	bx	lr

00013b70 <time_mgmnt_is_active_u32>:
   13b70:	e5d00000 	ldrb	r0, [r0]
   13b74:	e2400001 	sub	r0, r0, #1
   13b78:	e16f0f10 	clz	r0, r0
   13b7c:	e1a002a0 	lsr	r0, r0, #5
   13b80:	e12fff1e 	bx	lr

00013b84 <time_mgmnt_istimeup_raw_u8>:
   13b84:	e92d4070 	push	{r4, r5, r6, lr}
   13b88:	e1a04000 	mov	r4, r0
   13b8c:	e1a05001 	mov	r5, r1
   13b90:	eb0002de 	bl	14710 <local_rtc_timer_gettime_u8>
   13b94:	e0400004 	sub	r0, r0, r4
   13b98:	e6ef0070 	uxtb	r0, r0
   13b9c:	e1550000 	cmp	r5, r0
   13ba0:	83a00000 	movhi	r0, #0
   13ba4:	93a00001 	movls	r0, #1
   13ba8:	e8bd8070 	pop	{r4, r5, r6, pc}

00013bac <time_mgmnt_istimeup_raw_u16>:
   13bac:	e92d4070 	push	{r4, r5, r6, lr}
   13bb0:	e1a04000 	mov	r4, r0
   13bb4:	e1a05001 	mov	r5, r1
   13bb8:	eb0002d8 	bl	14720 <local_rtc_timer_gettime_u16>
   13bbc:	e0400004 	sub	r0, r0, r4
   13bc0:	e6ff0070 	uxth	r0, r0
   13bc4:	e1550000 	cmp	r5, r0
   13bc8:	83a00000 	movhi	r0, #0
   13bcc:	93a00001 	movls	r0, #1
   13bd0:	e8bd8070 	pop	{r4, r5, r6, pc}

00013bd4 <time_mgmnt_istimeup_raw_u32>:
   13bd4:	e92d4070 	push	{r4, r5, r6, lr}
   13bd8:	e1a04000 	mov	r4, r0
   13bdc:	e1a05001 	mov	r5, r1
   13be0:	eb0002a8 	bl	14688 <local_rtc_timer_gettime_u32>
   13be4:	e0400004 	sub	r0, r0, r4
   13be8:	e1550000 	cmp	r5, r0
   13bec:	83a00000 	movhi	r0, #0
   13bf0:	93a00001 	movls	r0, #1
   13bf4:	e8bd8070 	pop	{r4, r5, r6, pc}

00013bf8 <time_mgmnt_elapsed_u8>:
   13bf8:	e5d03000 	ldrb	r3, [r0]
   13bfc:	e3530001 	cmp	r3, #1
   13c00:	1a000006 	bne	13c20 <time_mgmnt_elapsed_u8+0x28>
   13c04:	e92d4010 	push	{r4, lr}
   13c08:	e1a04000 	mov	r4, r0
   13c0c:	eb0002bf 	bl	14710 <local_rtc_timer_gettime_u8>
   13c10:	e5d43001 	ldrb	r3, [r4, #1]
   13c14:	e0400003 	sub	r0, r0, r3
   13c18:	e6ef0070 	uxtb	r0, r0
   13c1c:	e8bd8010 	pop	{r4, pc}
   13c20:	e3a00000 	mov	r0, #0
   13c24:	e12fff1e 	bx	lr

00013c28 <time_mgmnt_istimeup_u8>:
   13c28:	e92d4010 	push	{r4, lr}
   13c2c:	e1a04001 	mov	r4, r1
   13c30:	ebfffff0 	bl	13bf8 <time_mgmnt_elapsed_u8>
   13c34:	e1500004 	cmp	r0, r4
   13c38:	33a00000 	movcc	r0, #0
   13c3c:	23a00001 	movcs	r0, #1
   13c40:	e8bd8010 	pop	{r4, pc}

00013c44 <time_mgmnt_elapsed_u16>:
   13c44:	e5d03000 	ldrb	r3, [r0]
   13c48:	e3530001 	cmp	r3, #1
   13c4c:	1a000006 	bne	13c6c <time_mgmnt_elapsed_u16+0x28>
   13c50:	e92d4010 	push	{r4, lr}
   13c54:	e1a04000 	mov	r4, r0
   13c58:	eb0002b0 	bl	14720 <local_rtc_timer_gettime_u16>
   13c5c:	e1d430b2 	ldrh	r3, [r4, #2]
   13c60:	e0400003 	sub	r0, r0, r3
   13c64:	e6ff0070 	uxth	r0, r0
   13c68:	e8bd8010 	pop	{r4, pc}
   13c6c:	e3a00000 	mov	r0, #0
   13c70:	e12fff1e 	bx	lr

00013c74 <time_mgmnt_istimeup_u16>:
   13c74:	e92d4010 	push	{r4, lr}
   13c78:	e1a04001 	mov	r4, r1
   13c7c:	ebfffff0 	bl	13c44 <time_mgmnt_elapsed_u16>
   13c80:	e1500004 	cmp	r0, r4
   13c84:	33a00000 	movcc	r0, #0
   13c88:	23a00001 	movcs	r0, #1
   13c8c:	e8bd8010 	pop	{r4, pc}

00013c90 <time_mgmnt_elapsed_u32>:
   13c90:	e5d03000 	ldrb	r3, [r0]
   13c94:	e3530001 	cmp	r3, #1
   13c98:	1a000005 	bne	13cb4 <time_mgmnt_elapsed_u32+0x24>
   13c9c:	e92d4010 	push	{r4, lr}
   13ca0:	e1a04000 	mov	r4, r0
   13ca4:	eb000277 	bl	14688 <local_rtc_timer_gettime_u32>
   13ca8:	e5943004 	ldr	r3, [r4, #4]
   13cac:	e0400003 	sub	r0, r0, r3
   13cb0:	e8bd8010 	pop	{r4, pc}
   13cb4:	e3a00000 	mov	r0, #0
   13cb8:	e12fff1e 	bx	lr

00013cbc <time_mgmnt_istimeup_u32>:
   13cbc:	e92d4010 	push	{r4, lr}
   13cc0:	e1a04001 	mov	r4, r1
   13cc4:	ebfffff1 	bl	13c90 <time_mgmnt_elapsed_u32>
   13cc8:	e1500004 	cmp	r0, r4
   13ccc:	33a00000 	movcc	r0, #0
   13cd0:	23a00001 	movcs	r0, #1
   13cd4:	e8bd8010 	pop	{r4, pc}

00013cd8 <time_mgmnt_start_time_u8>:
   13cd8:	e5d00001 	ldrb	r0, [r0, #1]
   13cdc:	e12fff1e 	bx	lr

00013ce0 <time_mgmnt_start_time_u16>:
   13ce0:	e1d000b2 	ldrh	r0, [r0, #2]
   13ce4:	e12fff1e 	bx	lr

00013ce8 <time_mgmnt_start_time_u32>:
   13ce8:	e5900004 	ldr	r0, [r0, #4]
   13cec:	e12fff1e 	bx	lr

00013cf0 <mcu_task_controller_init>:
   13cf0:	e59f300c 	ldr	r3, [pc, #12]	; 13d04 <mcu_task_controller_init+0x14>
   13cf4:	e3a02000 	mov	r2, #0
   13cf8:	e5832000 	str	r2, [r3]
   13cfc:	e5832004 	str	r2, [r3, #4]
   13d00:	e12fff1e 	bx	lr
   13d04:	00027370 	.word	0x00027370

00013d08 <mcu_task_controller_register_task>:
   13d08:	e92d4070 	push	{r4, r5, r6, lr}
   13d0c:	e3a03000 	mov	r3, #0
   13d10:	e59f5078 	ldr	r5, [pc, #120]	; 13d90 <mcu_task_controller_register_task+0x88>
   13d14:	e580302c 	str	r3, [r0, #44]	; 0x2c
   13d18:	e1a04000 	mov	r4, r0
   13d1c:	e5d53000 	ldrb	r3, [r5]
   13d20:	e5c03000 	strb	r3, [r0]
   13d24:	e2833001 	add	r3, r3, #1
   13d28:	e5c53000 	strb	r3, [r5]
   13d2c:	e5903008 	ldr	r3, [r0, #8]
   13d30:	e12fff33 	blx	r3
   13d34:	e59f3058 	ldr	r3, [pc, #88]	; 13d94 <mcu_task_controller_register_task+0x8c>
   13d38:	e5933004 	ldr	r3, [r3, #4]
   13d3c:	e12fff33 	blx	r3
   13d40:	e594300c 	ldr	r3, [r4, #12]
   13d44:	e1c400b4 	strh	r0, [r4, #4]
   13d48:	e12fff33 	blx	r3
   13d4c:	e594300c 	ldr	r3, [r4, #12]
   13d50:	e1c400b2 	strh	r0, [r4, #2]
   13d54:	e12fff33 	blx	r3
   13d58:	e5953004 	ldr	r3, [r5, #4]
   13d5c:	e1500003 	cmp	r0, r3
   13d60:	2a000002 	bcs	13d70 <mcu_task_controller_register_task+0x68>
   13d64:	e594300c 	ldr	r3, [r4, #12]
   13d68:	e12fff33 	blx	r3
   13d6c:	e5850004 	str	r0, [r5, #4]
   13d70:	e59f3020 	ldr	r3, [pc, #32]	; 13d98 <mcu_task_controller_register_task+0x90>
   13d74:	e5932000 	ldr	r2, [r3]
   13d78:	e3520000 	cmp	r2, #0
   13d7c:	05834000 	streq	r4, [r3]
   13d80:	15932004 	ldrne	r2, [r3, #4]
   13d84:	e5834004 	str	r4, [r3, #4]
   13d88:	1582402c 	strne	r4, [r2, #44]	; 0x2c
   13d8c:	e8bd8070 	pop	{r4, r5, r6, pc}
   13d90:	00027238 	.word	0x00027238
   13d94:	00016728 	.word	0x00016728
   13d98:	00027370 	.word	0x00027370

00013d9c <mcu_task_controller_schedule>:
   13d9c:	e59f30b0 	ldr	r3, [pc, #176]	; 13e54 <mcu_task_controller_schedule+0xb8>
   13da0:	e92d41f0 	push	{r4, r5, r6, r7, r8, lr}
   13da4:	e3a05001 	mov	r5, #1
   13da8:	e5934000 	ldr	r4, [r3]
   13dac:	e59f60a4 	ldr	r6, [pc, #164]	; 13e58 <mcu_task_controller_schedule+0xbc>
   13db0:	e3540000 	cmp	r4, #0
   13db4:	1a000003 	bne	13dc8 <mcu_task_controller_schedule+0x2c>
   13db8:	e3550000 	cmp	r5, #0
   13dbc:	08bd81f0 	popeq	{r4, r5, r6, r7, r8, pc}
   13dc0:	e8bd41f0 	pop	{r4, r5, r6, r7, r8, lr}
   13dc4:	ea000059 	b	13f30 <mcu_idle_task_run>
   13dc8:	e594300c 	ldr	r3, [r4, #12]
   13dcc:	e12fff33 	blx	r3
   13dd0:	e3500000 	cmp	r0, #0
   13dd4:	1a00000e 	bne	13e14 <mcu_task_controller_schedule+0x78>
   13dd8:	e594300c 	ldr	r3, [r4, #12]
   13ddc:	e12fff33 	blx	r3
   13de0:	e3500000 	cmp	r0, #0
   13de4:	1a000012 	bne	13e34 <mcu_task_controller_schedule+0x98>
   13de8:	e5943010 	ldr	r3, [r4, #16]
   13dec:	e12fff33 	blx	r3
   13df0:	e3500000 	cmp	r0, #0
   13df4:	0a00000c 	beq	13e2c <mcu_task_controller_schedule+0x90>
   13df8:	e5943014 	ldr	r3, [r4, #20]
   13dfc:	e12fff33 	blx	r3
   13e00:	e5943010 	ldr	r3, [r4, #16]
   13e04:	e12fff33 	blx	r3
   13e08:	e3500000 	cmp	r0, #0
   13e0c:	13a05000 	movne	r5, #0
   13e10:	ea000005 	b	13e2c <mcu_task_controller_schedule+0x90>
   13e14:	e5963010 	ldr	r3, [r6, #16]
   13e18:	e1d410b2 	ldrh	r1, [r4, #2]
   13e1c:	e1d400b4 	ldrh	r0, [r4, #4]
   13e20:	e12fff33 	blx	r3
   13e24:	e3500000 	cmp	r0, #0
   13e28:	1affffea 	bne	13dd8 <mcu_task_controller_schedule+0x3c>
   13e2c:	e594402c 	ldr	r4, [r4, #44]	; 0x2c
   13e30:	eaffffde 	b	13db0 <mcu_task_controller_schedule+0x14>
   13e34:	e5963004 	ldr	r3, [r6, #4]
   13e38:	e12fff33 	blx	r3
   13e3c:	e594300c 	ldr	r3, [r4, #12]
   13e40:	e1a07000 	mov	r7, r0
   13e44:	e12fff33 	blx	r3
   13e48:	e1c470b4 	strh	r7, [r4, #4]
   13e4c:	e1c400b2 	strh	r0, [r4, #2]
   13e50:	eaffffe4 	b	13de8 <mcu_task_controller_schedule+0x4c>
   13e54:	00027370 	.word	0x00027370
   13e58:	00016728 	.word	0x00016728

00013e5c <mcu_task_controller_sleep>:
   13e5c:	e59f3024 	ldr	r3, [pc, #36]	; 13e88 <mcu_task_controller_sleep+0x2c>
   13e60:	e92d4010 	push	{r4, lr}
   13e64:	e5934000 	ldr	r4, [r3]
   13e68:	e3540000 	cmp	r4, #0
   13e6c:	08bd8010 	popeq	{r4, pc}
   13e70:	e594301c 	ldr	r3, [r4, #28]
   13e74:	e3530000 	cmp	r3, #0
   13e78:	0a000000 	beq	13e80 <mcu_task_controller_sleep+0x24>
   13e7c:	e12fff33 	blx	r3
   13e80:	e594402c 	ldr	r4, [r4, #44]	; 0x2c
   13e84:	eafffff7 	b	13e68 <mcu_task_controller_sleep+0xc>
   13e88:	00027370 	.word	0x00027370

00013e8c <mcu_task_controller_wakeup>:
   13e8c:	e59f3024 	ldr	r3, [pc, #36]	; 13eb8 <mcu_task_controller_wakeup+0x2c>
   13e90:	e92d4010 	push	{r4, lr}
   13e94:	e5934000 	ldr	r4, [r3]
   13e98:	e3540000 	cmp	r4, #0
   13e9c:	08bd8010 	popeq	{r4, pc}
   13ea0:	e5943020 	ldr	r3, [r4, #32]
   13ea4:	e3530000 	cmp	r3, #0
   13ea8:	0a000000 	beq	13eb0 <mcu_task_controller_wakeup+0x24>
   13eac:	e12fff33 	blx	r3
   13eb0:	e594402c 	ldr	r4, [r4, #44]	; 0x2c
   13eb4:	eafffff7 	b	13e98 <mcu_task_controller_wakeup+0xc>
   13eb8:	00027370 	.word	0x00027370

00013ebc <mcu_task_controller_terminate_all>:
   13ebc:	e59f3024 	ldr	r3, [pc, #36]	; 13ee8 <mcu_task_controller_terminate_all+0x2c>
   13ec0:	e92d4010 	push	{r4, lr}
   13ec4:	e5934000 	ldr	r4, [r3]
   13ec8:	e3540000 	cmp	r4, #0
   13ecc:	08bd8010 	popeq	{r4, pc}
   13ed0:	e5943028 	ldr	r3, [r4, #40]	; 0x28
   13ed4:	e3530000 	cmp	r3, #0
   13ed8:	0a000000 	beq	13ee0 <mcu_task_controller_terminate_all+0x24>
   13edc:	e12fff33 	blx	r3
   13ee0:	e594402c 	ldr	r4, [r4, #44]	; 0x2c
   13ee4:	eafffff7 	b	13ec8 <mcu_task_controller_terminate_all+0xc>
   13ee8:	00027370 	.word	0x00027370

00013eec <mcu_task_controller_background_run>:
   13eec:	e59f3024 	ldr	r3, [pc, #36]	; 13f18 <mcu_task_controller_background_run+0x2c>
   13ef0:	e92d4010 	push	{r4, lr}
   13ef4:	e5934000 	ldr	r4, [r3]
   13ef8:	e3540000 	cmp	r4, #0
   13efc:	08bd8010 	popeq	{r4, pc}
   13f00:	e5943018 	ldr	r3, [r4, #24]
   13f04:	e3530000 	cmp	r3, #0
   13f08:	0a000000 	beq	13f10 <mcu_task_controller_background_run+0x24>
   13f0c:	e12fff33 	blx	r3
   13f10:	e594402c 	ldr	r4, [r4, #44]	; 0x2c
   13f14:	eafffff7 	b	13ef8 <mcu_task_controller_background_run+0xc>
   13f18:	00027370 	.word	0x00027370

00013f1c <mcu_idle_task_init>:
   13f1c:	e12fff1e 	bx	lr

00013f20 <mcu_idle_task_get_schedule_interval>:
   13f20:	e3a00000 	mov	r0, #0
   13f24:	e12fff1e 	bx	lr

00013f28 <mcu_idle_task_is_runable>:
   13f28:	e3a00002 	mov	r0, #2
   13f2c:	e12fff1e 	bx	lr

00013f30 <mcu_idle_task_run>:
   13f30:	e59f0000 	ldr	r0, [pc]	; 13f38 <mcu_idle_task_run+0x8>
   13f34:	eafff290 	b	1097c <usleep@plt>
   13f38:	00001388 	.word	0x00001388

00013f3c <mcu_idle_task_background_run>:
   13f3c:	e12fff1e 	bx	lr

00013f40 <mcu_idle_task_sleep>:
   13f40:	e12fff1e 	bx	lr

00013f44 <mcu_idle_task_wakeup>:
   13f44:	e12fff1e 	bx	lr

00013f48 <mcu_idle_task_finish>:
   13f48:	e12fff1e 	bx	lr

00013f4c <mcu_idle_task_terminate>:
   13f4c:	e12fff1e 	bx	lr

00013f50 <rpi_protocol_task_get_schedule_interval>:
   13f50:	e59f3010 	ldr	r3, [pc, #16]	; 13f68 <rpi_protocol_task_get_schedule_interval+0x18>
   13f54:	e5933000 	ldr	r3, [r3]
   13f58:	e3530000 	cmp	r3, #0
   13f5c:	03a00005 	moveq	r0, #5
   13f60:	13a00000 	movne	r0, #0
   13f64:	e12fff1e 	bx	lr
   13f68:	00027240 	.word	0x00027240

00013f6c <rpi_protocol_new_cfg_object_CALLBACK>:
   13f6c:	e92d4010 	push	{r4, lr}
   13f70:	e2504000 	subs	r4, r0, #0
   13f74:	08bd8010 	popeq	{r4, pc}
   13f78:	e1a01004 	mov	r1, r4
   13f7c:	e59f0058 	ldr	r0, [pc, #88]	; 13fdc <rpi_protocol_new_cfg_object_CALLBACK+0x70>
   13f80:	ebfffe0d 	bl	137bc <common_tools_string_compare>
   13f84:	e3500000 	cmp	r0, #0
   13f88:	18bd8010 	popne	{r4, pc}
   13f8c:	e1a01004 	mov	r1, r4
   13f90:	e59f0048 	ldr	r0, [pc, #72]	; 13fe0 <rpi_protocol_new_cfg_object_CALLBACK+0x74>
   13f94:	ebfffe08 	bl	137bc <common_tools_string_compare>
   13f98:	e3500000 	cmp	r0, #0
   13f9c:	0a000004 	beq	13fb4 <rpi_protocol_new_cfg_object_CALLBACK+0x48>
   13fa0:	e28400ff 	add	r0, r4, #255	; 0xff
   13fa4:	ebfffe9a 	bl	13a14 <common_tools_string_to_u32>
   13fa8:	e59f3034 	ldr	r3, [pc, #52]	; 13fe4 <rpi_protocol_new_cfg_object_CALLBACK+0x78>
   13fac:	e583000c 	str	r0, [r3, #12]
   13fb0:	e8bd8010 	pop	{r4, pc}
   13fb4:	e1a01004 	mov	r1, r4
   13fb8:	e59f0028 	ldr	r0, [pc, #40]	; 13fe8 <rpi_protocol_new_cfg_object_CALLBACK+0x7c>
   13fbc:	ebfffdfe 	bl	137bc <common_tools_string_compare>
   13fc0:	e3500000 	cmp	r0, #0
   13fc4:	08bd8010 	popeq	{r4, pc}
   13fc8:	e28410ff 	add	r1, r4, #255	; 0xff
   13fcc:	e3a02040 	mov	r2, #64	; 0x40
   13fd0:	e59f0014 	ldr	r0, [pc, #20]	; 13fec <rpi_protocol_new_cfg_object_CALLBACK+0x80>
   13fd4:	e8bd4010 	pop	{r4, lr}
   13fd8:	eafffe09 	b	13804 <common_tools_string_copy_string>
   13fdc:	0001677c 	.word	0x0001677c
   13fe0:	00016780 	.word	0x00016780
   13fe4:	00027240 	.word	0x00027240
   13fe8:	0001678d 	.word	0x0001678d
   13fec:	00027250 	.word	0x00027250

00013ff0 <rpi_protocol_cfg_complete_CALLBACK>:
   13ff0:	e3a01002 	mov	r1, #2
   13ff4:	e59f0000 	ldr	r0, [pc]	; 13ffc <rpi_protocol_cfg_complete_CALLBACK+0xc>
   13ff8:	eafffbde 	b	12f78 <module_status_set_u8>
   13ffc:	00027378 	.word	0x00027378

00014000 <rpi_protocol_task_init>:
   14000:	e59f3010 	ldr	r3, [pc, #16]	; 14018 <rpi_protocol_task_init+0x18>
   14004:	e3a02000 	mov	r2, #0
   14008:	e59f000c 	ldr	r0, [pc, #12]	; 1401c <rpi_protocol_task_init+0x1c>
   1400c:	e5832000 	str	r2, [r3]
   14010:	e5832050 	str	r2, [r3, #80]	; 0x50
   14014:	eafffeb1 	b	13ae0 <time_mgmnt_start_u16>
   14018:	00027240 	.word	0x00027240
   1401c:	0002737a 	.word	0x0002737a

00014020 <rpi_protocol_task_get_state>:
   14020:	e59f3028 	ldr	r3, [pc, #40]	; 14050 <rpi_protocol_task_get_state+0x30>
   14024:	e5931050 	ldr	r1, [r3, #80]	; 0x50
   14028:	e3510001 	cmp	r1, #1
   1402c:	1a000005 	bne	14048 <rpi_protocol_task_get_state+0x28>
   14030:	e92d4010 	push	{r4, lr}
   14034:	e59f0018 	ldr	r0, [pc, #24]	; 14054 <rpi_protocol_task_get_state+0x34>
   14038:	ebfffbd2 	bl	12f88 <module_status_isset_u8>
   1403c:	e3500000 	cmp	r0, #0
   14040:	13a00002 	movne	r0, #2
   14044:	e8bd8010 	pop	{r4, pc}
   14048:	e3a00002 	mov	r0, #2
   1404c:	e12fff1e 	bx	lr
   14050:	00027240 	.word	0x00027240
   14054:	00027378 	.word	0x00027378

00014058 <RPI_HOST_COMMAND_RECEIVED_SIGNAL_init>:
   14058:	e59f0000 	ldr	r0, [pc]	; 14060 <RPI_HOST_COMMAND_RECEIVED_SIGNAL_init+0x8>
   1405c:	eafffcb4 	b	13334 <signal_slot_init>
   14060:	00027380 	.word	0x00027380

00014064 <RPI_HOST_COMMAND_RECEIVED_SIGNAL_send>:
   14064:	e1a01000 	mov	r1, r0
   14068:	e59f0000 	ldr	r0, [pc]	; 14070 <RPI_HOST_COMMAND_RECEIVED_SIGNAL_send+0xc>
   1406c:	eafffcb3 	b	13340 <signal_slot_send>
   14070:	00027380 	.word	0x00027380

00014074 <RPI_HOST_COMMAND_RECEIVED_SIGNAL_set_timeout>:
   14074:	e59f3004 	ldr	r3, [pc, #4]	; 14080 <RPI_HOST_COMMAND_RECEIVED_SIGNAL_set_timeout+0xc>
   14078:	e1c300ba 	strh	r0, [r3, #10]
   1407c:	e12fff1e 	bx	lr
   14080:	00027378 	.word	0x00027378

00014084 <RPI_HOST_COMMAND_RECEIVED_SIGNAL_connect>:
   14084:	e1a01000 	mov	r1, r0
   14088:	e59f0000 	ldr	r0, [pc]	; 14090 <RPI_HOST_COMMAND_RECEIVED_SIGNAL_connect+0xc>
   1408c:	eafffccb 	b	133c0 <signal_slot_connect>
   14090:	00027380 	.word	0x00027380

00014094 <RPI_HOST_RESPONSE_RECEIVED_SIGNAL_init>:
   14094:	e59f0000 	ldr	r0, [pc]	; 1409c <RPI_HOST_RESPONSE_RECEIVED_SIGNAL_init+0x8>
   14098:	eafffca5 	b	13334 <signal_slot_init>
   1409c:	00027388 	.word	0x00027388

000140a0 <RPI_HOST_RESPONSE_RECEIVED_SIGNAL_send>:
   140a0:	e1a01000 	mov	r1, r0
   140a4:	e59f0000 	ldr	r0, [pc]	; 140ac <RPI_HOST_RESPONSE_RECEIVED_SIGNAL_send+0xc>
   140a8:	eafffca4 	b	13340 <signal_slot_send>
   140ac:	00027388 	.word	0x00027388

000140b0 <RPI_HOST_RESPONSE_RECEIVED_SIGNAL_set_timeout>:
   140b0:	e59f3004 	ldr	r3, [pc, #4]	; 140bc <RPI_HOST_RESPONSE_RECEIVED_SIGNAL_set_timeout+0xc>
   140b4:	e1c301b2 	strh	r0, [r3, #18]
   140b8:	e12fff1e 	bx	lr
   140bc:	00027378 	.word	0x00027378

000140c0 <RPI_HOST_RESPONSE_RECEIVED_SIGNAL_connect>:
   140c0:	e1a01000 	mov	r1, r0
   140c4:	e59f0000 	ldr	r0, [pc]	; 140cc <RPI_HOST_RESPONSE_RECEIVED_SIGNAL_connect+0xc>
   140c8:	eafffcbc 	b	133c0 <signal_slot_connect>
   140cc:	00027388 	.word	0x00027388

000140d0 <RPI_HOST_RESPONSE_TIMEOUT_SIGNAL_init>:
   140d0:	e59f0000 	ldr	r0, [pc]	; 140d8 <RPI_HOST_RESPONSE_TIMEOUT_SIGNAL_init+0x8>
   140d4:	eafffc96 	b	13334 <signal_slot_init>
   140d8:	00027390 	.word	0x00027390

000140dc <RPI_HOST_RESPONSE_TIMEOUT_SIGNAL_send>:
   140dc:	e1a01000 	mov	r1, r0
   140e0:	e59f0000 	ldr	r0, [pc]	; 140e8 <RPI_HOST_RESPONSE_TIMEOUT_SIGNAL_send+0xc>
   140e4:	eafffc95 	b	13340 <signal_slot_send>
   140e8:	00027390 	.word	0x00027390

000140ec <RPI_HOST_RESPONSE_TIMEOUT_SIGNAL_set_timeout>:
   140ec:	e59f3004 	ldr	r3, [pc, #4]	; 140f8 <RPI_HOST_RESPONSE_TIMEOUT_SIGNAL_set_timeout+0xc>
   140f0:	e1c301ba 	strh	r0, [r3, #26]
   140f4:	e12fff1e 	bx	lr
   140f8:	00027378 	.word	0x00027378

000140fc <RPI_HOST_RESPONSE_TIMEOUT_SIGNAL_connect>:
   140fc:	e1a01000 	mov	r1, r0
   14100:	e59f0000 	ldr	r0, [pc]	; 14108 <RPI_HOST_RESPONSE_TIMEOUT_SIGNAL_connect+0xc>
   14104:	eafffcad 	b	133c0 <signal_slot_connect>
   14108:	00027390 	.word	0x00027390

0001410c <RPI_HOST_RESPONSE_OVERFLOW_SIGNAL_init>:
   1410c:	e59f0000 	ldr	r0, [pc]	; 14114 <RPI_HOST_RESPONSE_OVERFLOW_SIGNAL_init+0x8>
   14110:	eafffc87 	b	13334 <signal_slot_init>
   14114:	00027398 	.word	0x00027398

00014118 <RPI_HOST_RESPONSE_OVERFLOW_SIGNAL_send>:
   14118:	e1a01000 	mov	r1, r0
   1411c:	e59f0000 	ldr	r0, [pc]	; 14124 <RPI_HOST_RESPONSE_OVERFLOW_SIGNAL_send+0xc>
   14120:	eafffc86 	b	13340 <signal_slot_send>
   14124:	00027398 	.word	0x00027398

00014128 <RPI_HOST_RESPONSE_OVERFLOW_SIGNAL_set_timeout>:
   14128:	e59f3004 	ldr	r3, [pc, #4]	; 14134 <RPI_HOST_RESPONSE_OVERFLOW_SIGNAL_set_timeout+0xc>
   1412c:	e1c302b2 	strh	r0, [r3, #34]	; 0x22
   14130:	e12fff1e 	bx	lr
   14134:	00027378 	.word	0x00027378

00014138 <RPI_HOST_RESPONSE_OVERFLOW_SIGNAL_connect>:
   14138:	e1a01000 	mov	r1, r0
   1413c:	e59f0000 	ldr	r0, [pc]	; 14144 <RPI_HOST_RESPONSE_OVERFLOW_SIGNAL_connect+0xc>
   14140:	eafffc9e 	b	133c0 <signal_slot_connect>
   14144:	00027398 	.word	0x00027398

00014148 <RPI_HOST_COMMAND_RECEIVED_SLOT_connect>:
   14148:	e59f0008 	ldr	r0, [pc, #8]	; 14158 <RPI_HOST_COMMAND_RECEIVED_SLOT_connect+0x10>
   1414c:	e59f3008 	ldr	r3, [pc, #8]	; 1415c <RPI_HOST_COMMAND_RECEIVED_SLOT_connect+0x14>
   14150:	e5a03028 	str	r3, [r0, #40]!	; 0x28
   14154:	eaffffca 	b	14084 <RPI_HOST_COMMAND_RECEIVED_SIGNAL_connect>
   14158:	00027378 	.word	0x00027378
   1415c:	00014234 	.word	0x00014234

00014160 <RPI_HOST_NEW_CFG_OBJECT_SLOT_connect>:
   14160:	e59f0008 	ldr	r0, [pc, #8]	; 14170 <RPI_HOST_NEW_CFG_OBJECT_SLOT_connect+0x10>
   14164:	e59f3008 	ldr	r3, [pc, #8]	; 14174 <RPI_HOST_NEW_CFG_OBJECT_SLOT_connect+0x14>
   14168:	e5a03030 	str	r3, [r0, #48]!	; 0x30
   1416c:	ea000506 	b	1558c <CFG_PARSER_NEW_CFG_OBJECT_SIGNAL_connect>
   14170:	00027378 	.word	0x00027378
   14174:	00013f6c 	.word	0x00013f6c

00014178 <RPI_HOST_CFG_COMPLETE_SLOT_connect>:
   14178:	e59f0008 	ldr	r0, [pc, #8]	; 14188 <RPI_HOST_CFG_COMPLETE_SLOT_connect+0x10>
   1417c:	e59f3008 	ldr	r3, [pc, #8]	; 1418c <RPI_HOST_CFG_COMPLETE_SLOT_connect+0x14>
   14180:	e5a03038 	str	r3, [r0, #56]!	; 0x38
   14184:	ea0004f1 	b	15550 <CFG_PARSER_CFG_COMPLETE_SIGNAL_connect>
   14188:	00027378 	.word	0x00027378
   1418c:	00013ff0 	.word	0x00013ff0

00014190 <RPI_HOST_COMMAND_BUFFER_init>:
   14190:	e59f0000 	ldr	r0, [pc]	; 14198 <RPI_HOST_COMMAND_BUFFER_init+0x8>
   14194:	eafffbc5 	b	130b0 <local_msg_buffer_init>
   14198:	00027294 	.word	0x00027294

0001419c <RPI_HOST_COMMAND_BUFFER_bytes_available>:
   1419c:	e92d4010 	push	{r4, lr}
   141a0:	e59f0008 	ldr	r0, [pc, #8]	; 141b0 <RPI_HOST_COMMAND_BUFFER_bytes_available+0x14>
   141a4:	ebfffc0f 	bl	131e8 <local_msg_buffer_bytes_available>
   141a8:	e6ef0070 	uxtb	r0, r0
   141ac:	e8bd8010 	pop	{r4, pc}
   141b0:	00027294 	.word	0x00027294

000141b4 <RPI_HOST_COMMAND_BUFFER_bytes_free>:
   141b4:	e92d4010 	push	{r4, lr}
   141b8:	e59f0008 	ldr	r0, [pc, #8]	; 141c8 <RPI_HOST_COMMAND_BUFFER_bytes_free+0x14>
   141bc:	ebfffc0b 	bl	131f0 <local_msg_buffer_bytes_free>
   141c0:	e6ef0070 	uxtb	r0, r0
   141c4:	e8bd8010 	pop	{r4, pc}
   141c8:	00027294 	.word	0x00027294

000141cc <RPI_HOST_COMMAND_BUFFER_clear_all>:
   141cc:	e59f0000 	ldr	r0, [pc]	; 141d4 <RPI_HOST_COMMAND_BUFFER_clear_all+0x8>
   141d0:	eafffc51 	b	1331c <local_msg_buffer_clear_all>
   141d4:	00027294 	.word	0x00027294

000141d8 <RPI_HOST_COMMAND_BUFFER_start_write>:
   141d8:	e59f0000 	ldr	r0, [pc]	; 141e0 <RPI_HOST_COMMAND_BUFFER_start_write+0x8>
   141dc:	eafffbb9 	b	130c8 <local_msg_buffer_start_write>
   141e0:	00027294 	.word	0x00027294

000141e4 <RPI_HOST_COMMAND_BUFFER_add_byte>:
   141e4:	e1a01000 	mov	r1, r0
   141e8:	e59f0000 	ldr	r0, [pc]	; 141f0 <RPI_HOST_COMMAND_BUFFER_add_byte+0xc>
   141ec:	eafffbbd 	b	130e8 <local_msg_buffer_add_byte>
   141f0:	00027294 	.word	0x00027294

000141f4 <RPI_HOST_COMMAND_BUFFER_add_word>:
   141f4:	e1a01000 	mov	r1, r0
   141f8:	e59f0000 	ldr	r0, [pc]	; 14200 <RPI_HOST_COMMAND_BUFFER_add_word+0xc>
   141fc:	eafffbd0 	b	13144 <local_msg_buffer_add_word>
   14200:	00027294 	.word	0x00027294

00014204 <RPI_HOST_COMMAND_BUFFER_add_long>:
   14204:	e1a01000 	mov	r1, r0
   14208:	e59f0000 	ldr	r0, [pc]	; 14210 <RPI_HOST_COMMAND_BUFFER_add_long+0xc>
   1420c:	eafffbd3 	b	13160 <local_msg_buffer_add_long>
   14210:	00027294 	.word	0x00027294

00014214 <RPI_HOST_COMMAND_BUFFER_add_N_bytes>:
   14214:	e1a02001 	mov	r2, r1
   14218:	e1a01000 	mov	r1, r0
   1421c:	e59f0000 	ldr	r0, [pc]	; 14224 <RPI_HOST_COMMAND_BUFFER_add_N_bytes+0x10>
   14220:	eafffbdb 	b	13194 <local_msg_buffer_add_N_bytes>
   14224:	00027294 	.word	0x00027294

00014228 <RPI_HOST_COMMAND_BUFFER_stop_write>:
   14228:	e59f0000 	ldr	r0, [pc]	; 14230 <RPI_HOST_COMMAND_BUFFER_stop_write+0x8>
   1422c:	eafffbe2 	b	131bc <local_msg_buffer_stop_write>
   14230:	00027294 	.word	0x00027294

00014234 <rpi_protocol_handler_host_COMMAND_RECEIVED_SLOT_CALLBACK>:
   14234:	e92d4010 	push	{r4, lr}
   14238:	e1a04000 	mov	r4, r0
   1423c:	ebffffe5 	bl	141d8 <RPI_HOST_COMMAND_BUFFER_start_write>
   14240:	e1a01004 	mov	r1, r4
   14244:	e0d100b2 	ldrh	r0, [r1], #2
   14248:	ebfffff1 	bl	14214 <RPI_HOST_COMMAND_BUFFER_add_N_bytes>
   1424c:	ebfffff5 	bl	14228 <RPI_HOST_COMMAND_BUFFER_stop_write>
   14250:	e3a01001 	mov	r1, #1
   14254:	e59f0004 	ldr	r0, [pc, #4]	; 14260 <rpi_protocol_handler_host_COMMAND_RECEIVED_SLOT_CALLBACK+0x2c>
   14258:	e8bd4010 	pop	{r4, lr}
   1425c:	eafffb45 	b	12f78 <module_status_set_u8>
   14260:	00027378 	.word	0x00027378

00014264 <RPI_HOST_COMMAND_BUFFER_start_read>:
   14264:	e59f0000 	ldr	r0, [pc]	; 1426c <RPI_HOST_COMMAND_BUFFER_start_read+0x8>
   14268:	eafffbd7 	b	131cc <local_msg_buffer_start_read>
   1426c:	00027294 	.word	0x00027294

00014270 <RPI_HOST_COMMAND_BUFFER_get_byte>:
   14270:	e59f0000 	ldr	r0, [pc]	; 14278 <RPI_HOST_COMMAND_BUFFER_get_byte+0x8>
   14274:	eafffbe2 	b	13204 <local_msg_buffer_get_byte>
   14278:	00027294 	.word	0x00027294

0001427c <RPI_HOST_COMMAND_BUFFER_get_word>:
   1427c:	e59f0000 	ldr	r0, [pc]	; 14284 <RPI_HOST_COMMAND_BUFFER_get_word+0x8>
   14280:	eafffbf8 	b	13268 <local_msg_buffer_get_word>
   14284:	00027294 	.word	0x00027294

00014288 <RPI_HOST_COMMAND_BUFFER_get_long>:
   14288:	e59f0000 	ldr	r0, [pc]	; 14290 <RPI_HOST_COMMAND_BUFFER_get_long+0x8>
   1428c:	eafffbfe 	b	1328c <local_msg_buffer_get_long>
   14290:	00027294 	.word	0x00027294

00014294 <RPI_HOST_COMMAND_BUFFER_get_N_bytes>:
   14294:	e1a02001 	mov	r2, r1
   14298:	e1a01000 	mov	r1, r0
   1429c:	e59f0000 	ldr	r0, [pc]	; 142a4 <RPI_HOST_COMMAND_BUFFER_get_N_bytes+0x10>
   142a0:	eafffc09 	b	132cc <local_msg_buffer_get_N_bytes>
   142a4:	00027294 	.word	0x00027294

000142a8 <RPI_HOST_COMMAND_BUFFER_stop_read>:
   142a8:	e59f0000 	ldr	r0, [pc]	; 142b0 <RPI_HOST_COMMAND_BUFFER_stop_read+0x8>
   142ac:	eafffc16 	b	1330c <local_msg_buffer_stop_read>
   142b0:	00027294 	.word	0x00027294

000142b4 <rpi_protocol_task_run>:
   142b4:	e92d4070 	push	{r4, r5, r6, lr}
   142b8:	e24dd088 	sub	sp, sp, #136	; 0x88
   142bc:	e59f422c 	ldr	r4, [pc, #556]	; 144f0 <rpi_protocol_task_run+0x23c>
   142c0:	e5943050 	ldr	r3, [r4, #80]	; 0x50
   142c4:	e3530009 	cmp	r3, #9
   142c8:	979ff103 	ldrls	pc, [pc, r3, lsl #2]
   142cc:	ea000009 	b	142f8 <rpi_protocol_task_run+0x44>
   142d0:	00014300 	.word	0x00014300
   142d4:	00014348 	.word	0x00014348
   142d8:	00014388 	.word	0x00014388
   142dc:	00014374 	.word	0x00014374
   142e0:	000142f8 	.word	0x000142f8
   142e4:	000143ac 	.word	0x000143ac
   142e8:	00014408 	.word	0x00014408
   142ec:	000142f8 	.word	0x000142f8
   142f0:	000142f8 	.word	0x000142f8
   142f4:	000144e0 	.word	0x000144e0
   142f8:	e3a03000 	mov	r3, #0
   142fc:	e5843050 	str	r3, [r4, #80]	; 0x50
   14300:	e59f51ec 	ldr	r5, [pc, #492]	; 144f4 <rpi_protocol_task_run+0x240>
   14304:	e3a01002 	mov	r1, #2
   14308:	e1a00005 	mov	r0, r5
   1430c:	ebfffb1d 	bl	12f88 <module_status_isset_u8>
   14310:	e3500000 	cmp	r0, #0
   14314:	0a000009 	beq	14340 <rpi_protocol_task_run+0x8c>
   14318:	e3a0204c 	mov	r2, #76	; 0x4c
   1431c:	e59f11d4 	ldr	r1, [pc, #468]	; 144f8 <rpi_protocol_task_run+0x244>
   14320:	e2850040 	add	r0, r5, #64	; 0x40
   14324:	ebfff185 	bl	10940 <memcpy@plt>
   14328:	e595308c 	ldr	r3, [r5, #140]	; 0x8c
   1432c:	e2850040 	add	r0, r5, #64	; 0x40
   14330:	e5933008 	ldr	r3, [r3, #8]
   14334:	e12fff33 	blx	r3
   14338:	e3a03001 	mov	r3, #1
   1433c:	e5843050 	str	r3, [r4, #80]	; 0x50
   14340:	e28dd088 	add	sp, sp, #136	; 0x88
   14344:	e8bd8070 	pop	{r4, r5, r6, pc}
   14348:	e3a01001 	mov	r1, #1
   1434c:	e59f01a0 	ldr	r0, [pc, #416]	; 144f4 <rpi_protocol_task_run+0x240>
   14350:	ebfffb0c 	bl	12f88 <module_status_isset_u8>
   14354:	e3500000 	cmp	r0, #0
   14358:	05840000 	streq	r0, [r4]
   1435c:	0afffff7 	beq	14340 <rpi_protocol_task_run+0x8c>
   14360:	e3a01001 	mov	r1, #1
   14364:	e59f0188 	ldr	r0, [pc, #392]	; 144f4 <rpi_protocol_task_run+0x240>
   14368:	ebfffb0b 	bl	12f9c <module_status_unset_u8>
   1436c:	e3a03003 	mov	r3, #3
   14370:	e5843050 	str	r3, [r4, #80]	; 0x50
   14374:	ebfffab0 	bl	12e3c <REQUEST_CLIENT_drive_low>
   14378:	e3a03002 	mov	r3, #2
   1437c:	e59f0178 	ldr	r0, [pc, #376]	; 144fc <rpi_protocol_task_run+0x248>
   14380:	e5843050 	str	r3, [r4, #80]	; 0x50
   14384:	ebfffdd5 	bl	13ae0 <time_mgmnt_start_u16>
   14388:	e3a01040 	mov	r1, #64	; 0x40
   1438c:	e59f0168 	ldr	r0, [pc, #360]	; 144fc <rpi_protocol_task_run+0x248>
   14390:	ebfffe37 	bl	13c74 <time_mgmnt_istimeup_u16>
   14394:	e3500000 	cmp	r0, #0
   14398:	0affffe8 	beq	14340 <rpi_protocol_task_run+0x8c>
   1439c:	e3a03005 	mov	r3, #5
   143a0:	e59f0154 	ldr	r0, [pc, #340]	; 144fc <rpi_protocol_task_run+0x248>
   143a4:	e5843050 	str	r3, [r4, #80]	; 0x50
   143a8:	ebfffdcc 	bl	13ae0 <time_mgmnt_start_u16>
   143ac:	ebffff7a 	bl	1419c <RPI_HOST_COMMAND_BUFFER_bytes_available>
   143b0:	e59f513c 	ldr	r5, [pc, #316]	; 144f4 <rpi_protocol_task_run+0x240>
   143b4:	e1a06000 	mov	r6, r0
   143b8:	ebffffa9 	bl	14264 <RPI_HOST_COMMAND_BUFFER_start_read>
   143bc:	e28d1004 	add	r1, sp, #4
   143c0:	e6ff0076 	uxth	r0, r6
   143c4:	ebffffb2 	bl	14294 <RPI_HOST_COMMAND_BUFFER_get_N_bytes>
   143c8:	ebffffb6 	bl	142a8 <RPI_HOST_COMMAND_BUFFER_stop_read>
   143cc:	e595308c 	ldr	r3, [r5, #140]	; 0x8c
   143d0:	e593303c 	ldr	r3, [r3, #60]	; 0x3c
   143d4:	e12fff33 	blx	r3
   143d8:	e595308c 	ldr	r3, [r5, #140]	; 0x8c
   143dc:	e28d1004 	add	r1, sp, #4
   143e0:	e1a00006 	mov	r0, r6
   143e4:	e5933018 	ldr	r3, [r3, #24]
   143e8:	e12fff33 	blx	r3
   143ec:	e595308c 	ldr	r3, [r5, #140]	; 0x8c
   143f0:	e5933030 	ldr	r3, [r3, #48]	; 0x30
   143f4:	e12fff33 	blx	r3
   143f8:	e3a03006 	mov	r3, #6
   143fc:	e2850002 	add	r0, r5, #2
   14400:	e5843050 	str	r3, [r4, #80]	; 0x50
   14404:	ebfffdb5 	bl	13ae0 <time_mgmnt_start_u16>
   14408:	e59f50e4 	ldr	r5, [pc, #228]	; 144f4 <rpi_protocol_task_run+0x240>
   1440c:	e59f10ec 	ldr	r1, [pc, #236]	; 14500 <rpi_protocol_task_run+0x24c>
   14410:	e2850002 	add	r0, r5, #2
   14414:	ebfffe16 	bl	13c74 <time_mgmnt_istimeup_u16>
   14418:	e2506000 	subs	r6, r0, #0
   1441c:	0a000003 	beq	14430 <rpi_protocol_task_run+0x17c>
   14420:	e3a00000 	mov	r0, #0
   14424:	ebffff2c 	bl	140dc <RPI_HOST_RESPONSE_TIMEOUT_SIGNAL_send>
   14428:	e3a03009 	mov	r3, #9
   1442c:	eaffffc2 	b	1433c <rpi_protocol_task_run+0x88>
   14430:	e3a01032 	mov	r1, #50	; 0x32
   14434:	e2850002 	add	r0, r5, #2
   14438:	ebfffe0d 	bl	13c74 <time_mgmnt_istimeup_u16>
   1443c:	e3500000 	cmp	r0, #0
   14440:	0affffbe 	beq	14340 <rpi_protocol_task_run+0x8c>
   14444:	e595308c 	ldr	r3, [r5, #140]	; 0x8c
   14448:	e3a00001 	mov	r0, #1
   1444c:	e593301c 	ldr	r3, [r3, #28]
   14450:	e12fff33 	blx	r3
   14454:	e595308c 	ldr	r3, [r5, #140]	; 0x8c
   14458:	e5933010 	ldr	r3, [r3, #16]
   1445c:	e12fff33 	blx	r3
   14460:	e3500000 	cmp	r0, #0
   14464:	0affffb5 	beq	14340 <rpi_protocol_task_run+0x8c>
   14468:	e595308c 	ldr	r3, [r5, #140]	; 0x8c
   1446c:	e1cd60b4 	strh	r6, [sp, #4]
   14470:	e28d1004 	add	r1, sp, #4
   14474:	e5933014 	ldr	r3, [r3, #20]
   14478:	e3a00001 	mov	r0, #1
   1447c:	e12fff33 	blx	r3
   14480:	e1dd30b4 	ldrh	r3, [sp, #4]
   14484:	e3530000 	cmp	r3, #0
   14488:	0affffac 	beq	14340 <rpi_protocol_task_run+0x8c>
   1448c:	e3530080 	cmp	r3, #128	; 0x80
   14490:	9a000003 	bls	144a4 <rpi_protocol_task_run+0x1f0>
   14494:	e3a03080 	mov	r3, #128	; 0x80
   14498:	e1a00006 	mov	r0, r6
   1449c:	e1cd30b4 	strh	r3, [sp, #4]
   144a0:	ebffff1c 	bl	14118 <RPI_HOST_RESPONSE_OVERFLOW_SIGNAL_send>
   144a4:	e595308c 	ldr	r3, [r5, #140]	; 0x8c
   144a8:	e1dd00b4 	ldrh	r0, [sp, #4]
   144ac:	e593301c 	ldr	r3, [r3, #28]
   144b0:	e12fff33 	blx	r3
   144b4:	e595308c 	ldr	r3, [r5, #140]	; 0x8c
   144b8:	e28d1006 	add	r1, sp, #6
   144bc:	e5dd0004 	ldrb	r0, [sp, #4]
   144c0:	e5933014 	ldr	r3, [r3, #20]
   144c4:	e12fff33 	blx	r3
   144c8:	e28d0004 	add	r0, sp, #4
   144cc:	ebfffef3 	bl	140a0 <RPI_HOST_RESPONSE_RECEIVED_SIGNAL_send>
   144d0:	e3a03009 	mov	r3, #9
   144d4:	e59f0020 	ldr	r0, [pc, #32]	; 144fc <rpi_protocol_task_run+0x248>
   144d8:	e5843050 	str	r3, [r4, #80]	; 0x50
   144dc:	ebfffd7f 	bl	13ae0 <time_mgmnt_start_u16>
   144e0:	e3a03001 	mov	r3, #1
   144e4:	e5843050 	str	r3, [r4, #80]	; 0x50
   144e8:	ebfffa58 	bl	12e50 <REQUEST_CLIENT_no_pull>
   144ec:	eaffff93 	b	14340 <rpi_protocol_task_run+0x8c>
   144f0:	00027240 	.word	0x00027240
   144f4:	00027378 	.word	0x00027378
   144f8:	00027244 	.word	0x00027244
   144fc:	0002737a 	.word	0x0002737a
   14500:	000001f9 	.word	0x000001f9

00014504 <RPI_HOST_COMMAND_BUFFER_debug_print>:
   14504:	e59f0000 	ldr	r0, [pc]	; 1450c <RPI_HOST_COMMAND_BUFFER_debug_print+0x8>
   14508:	eafffb88 	b	13330 <local_msg_buffer_debug_print>
   1450c:	00027294 	.word	0x00027294

00014510 <RPI_HOST_COMMAND_BUFFER_size>:
   14510:	e3a00080 	mov	r0, #128	; 0x80
   14514:	e12fff1e 	bx	lr

00014518 <RPI_HOST_RESPONSE_BUFFER_init>:
   14518:	e59f0000 	ldr	r0, [pc]	; 14520 <RPI_HOST_RESPONSE_BUFFER_init+0x8>
   1451c:	eafffae3 	b	130b0 <local_msg_buffer_init>
   14520:	000272a4 	.word	0x000272a4

00014524 <RPI_HOST_RESPONSE_BUFFER_bytes_available>:
   14524:	e92d4010 	push	{r4, lr}
   14528:	e59f0008 	ldr	r0, [pc, #8]	; 14538 <RPI_HOST_RESPONSE_BUFFER_bytes_available+0x14>
   1452c:	ebfffb2d 	bl	131e8 <local_msg_buffer_bytes_available>
   14530:	e6ef0070 	uxtb	r0, r0
   14534:	e8bd8010 	pop	{r4, pc}
   14538:	000272a4 	.word	0x000272a4

0001453c <RPI_HOST_RESPONSE_BUFFER_bytes_free>:
   1453c:	e92d4010 	push	{r4, lr}
   14540:	e59f0008 	ldr	r0, [pc, #8]	; 14550 <RPI_HOST_RESPONSE_BUFFER_bytes_free+0x14>
   14544:	ebfffb29 	bl	131f0 <local_msg_buffer_bytes_free>
   14548:	e6ef0070 	uxtb	r0, r0
   1454c:	e8bd8010 	pop	{r4, pc}
   14550:	000272a4 	.word	0x000272a4

00014554 <RPI_HOST_RESPONSE_BUFFER_clear_all>:
   14554:	e59f0000 	ldr	r0, [pc]	; 1455c <RPI_HOST_RESPONSE_BUFFER_clear_all+0x8>
   14558:	eafffb6f 	b	1331c <local_msg_buffer_clear_all>
   1455c:	000272a4 	.word	0x000272a4

00014560 <RPI_HOST_RESPONSE_BUFFER_start_write>:
   14560:	e59f0000 	ldr	r0, [pc]	; 14568 <RPI_HOST_RESPONSE_BUFFER_start_write+0x8>
   14564:	eafffad7 	b	130c8 <local_msg_buffer_start_write>
   14568:	000272a4 	.word	0x000272a4

0001456c <RPI_HOST_RESPONSE_BUFFER_add_byte>:
   1456c:	e1a01000 	mov	r1, r0
   14570:	e59f0000 	ldr	r0, [pc]	; 14578 <RPI_HOST_RESPONSE_BUFFER_add_byte+0xc>
   14574:	eafffadb 	b	130e8 <local_msg_buffer_add_byte>
   14578:	000272a4 	.word	0x000272a4

0001457c <RPI_HOST_RESPONSE_BUFFER_add_word>:
   1457c:	e1a01000 	mov	r1, r0
   14580:	e59f0000 	ldr	r0, [pc]	; 14588 <RPI_HOST_RESPONSE_BUFFER_add_word+0xc>
   14584:	eafffaee 	b	13144 <local_msg_buffer_add_word>
   14588:	000272a4 	.word	0x000272a4

0001458c <RPI_HOST_RESPONSE_BUFFER_add_long>:
   1458c:	e1a01000 	mov	r1, r0
   14590:	e59f0000 	ldr	r0, [pc]	; 14598 <RPI_HOST_RESPONSE_BUFFER_add_long+0xc>
   14594:	eafffaf1 	b	13160 <local_msg_buffer_add_long>
   14598:	000272a4 	.word	0x000272a4

0001459c <RPI_HOST_RESPONSE_BUFFER_add_N_bytes>:
   1459c:	e1a02001 	mov	r2, r1
   145a0:	e1a01000 	mov	r1, r0
   145a4:	e59f0000 	ldr	r0, [pc]	; 145ac <RPI_HOST_RESPONSE_BUFFER_add_N_bytes+0x10>
   145a8:	eafffaf9 	b	13194 <local_msg_buffer_add_N_bytes>
   145ac:	000272a4 	.word	0x000272a4

000145b0 <RPI_HOST_RESPONSE_BUFFER_stop_write>:
   145b0:	e59f0000 	ldr	r0, [pc]	; 145b8 <RPI_HOST_RESPONSE_BUFFER_stop_write+0x8>
   145b4:	eafffb00 	b	131bc <local_msg_buffer_stop_write>
   145b8:	000272a4 	.word	0x000272a4

000145bc <RPI_HOST_RESPONSE_BUFFER_start_read>:
   145bc:	e59f0000 	ldr	r0, [pc]	; 145c4 <RPI_HOST_RESPONSE_BUFFER_start_read+0x8>
   145c0:	eafffb01 	b	131cc <local_msg_buffer_start_read>
   145c4:	000272a4 	.word	0x000272a4

000145c8 <RPI_HOST_RESPONSE_BUFFER_get_byte>:
   145c8:	e59f0000 	ldr	r0, [pc]	; 145d0 <RPI_HOST_RESPONSE_BUFFER_get_byte+0x8>
   145cc:	eafffb0c 	b	13204 <local_msg_buffer_get_byte>
   145d0:	000272a4 	.word	0x000272a4

000145d4 <RPI_HOST_RESPONSE_BUFFER_get_word>:
   145d4:	e59f0000 	ldr	r0, [pc]	; 145dc <RPI_HOST_RESPONSE_BUFFER_get_word+0x8>
   145d8:	eafffb22 	b	13268 <local_msg_buffer_get_word>
   145dc:	000272a4 	.word	0x000272a4

000145e0 <RPI_HOST_RESPONSE_BUFFER_get_long>:
   145e0:	e59f0000 	ldr	r0, [pc]	; 145e8 <RPI_HOST_RESPONSE_BUFFER_get_long+0x8>
   145e4:	eafffb28 	b	1328c <local_msg_buffer_get_long>
   145e8:	000272a4 	.word	0x000272a4

000145ec <RPI_HOST_RESPONSE_BUFFER_get_N_bytes>:
   145ec:	e1a02001 	mov	r2, r1
   145f0:	e1a01000 	mov	r1, r0
   145f4:	e59f0000 	ldr	r0, [pc]	; 145fc <RPI_HOST_RESPONSE_BUFFER_get_N_bytes+0x10>
   145f8:	eafffb33 	b	132cc <local_msg_buffer_get_N_bytes>
   145fc:	000272a4 	.word	0x000272a4

00014600 <RPI_HOST_RESPONSE_BUFFER_stop_read>:
   14600:	e59f0000 	ldr	r0, [pc]	; 14608 <RPI_HOST_RESPONSE_BUFFER_stop_read+0x8>
   14604:	eafffb40 	b	1330c <local_msg_buffer_stop_read>
   14608:	000272a4 	.word	0x000272a4

0001460c <RPI_HOST_RESPONSE_BUFFER_debug_print>:
   1460c:	e59f0000 	ldr	r0, [pc]	; 14614 <RPI_HOST_RESPONSE_BUFFER_debug_print+0x8>
   14610:	eafffb46 	b	13330 <local_msg_buffer_debug_print>
   14614:	000272a4 	.word	0x000272a4

00014618 <RPI_HOST_RESPONSE_BUFFER_size>:
   14618:	e3a00080 	mov	r0, #128	; 0x80
   1461c:	e12fff1e 	bx	lr

00014620 <rpi_protocol_init>:
   14620:	e92d4070 	push	{r4, r5, r6, lr}
   14624:	e1a05000 	mov	r5, r0
   14628:	e59f4034 	ldr	r4, [pc, #52]	; 14664 <rpi_protocol_init+0x44>
   1462c:	e1a00004 	mov	r0, r4
   14630:	ebfffa5d 	bl	12fac <module_status_clear_all_u8>
   14634:	ebfffa03 	bl	12e48 <REQUEST_CLIENT_pull_up>
   14638:	e584508c 	str	r5, [r4, #140]	; 0x8c
   1463c:	ebfffe85 	bl	14058 <RPI_HOST_COMMAND_RECEIVED_SIGNAL_init>
   14640:	ebfffe93 	bl	14094 <RPI_HOST_RESPONSE_RECEIVED_SIGNAL_init>
   14644:	ebfffea1 	bl	140d0 <RPI_HOST_RESPONSE_TIMEOUT_SIGNAL_init>
   14648:	ebfffeaf 	bl	1410c <RPI_HOST_RESPONSE_OVERFLOW_SIGNAL_init>
   1464c:	ebfffebd 	bl	14148 <RPI_HOST_COMMAND_RECEIVED_SLOT_connect>
   14650:	ebfffec2 	bl	14160 <RPI_HOST_NEW_CFG_OBJECT_SLOT_connect>
   14654:	ebfffec7 	bl	14178 <RPI_HOST_CFG_COMPLETE_SLOT_connect>
   14658:	e59f0008 	ldr	r0, [pc, #8]	; 14668 <rpi_protocol_init+0x48>
   1465c:	e8bd4070 	pop	{r4, r5, r6, lr}
   14660:	eafffda8 	b	13d08 <mcu_task_controller_register_task>
   14664:	00027378 	.word	0x00027378
   14668:	000272b4 	.word	0x000272b4

0001466c <rpi_protocol_handler_get_actual_state>:
   1466c:	e59f3004 	ldr	r3, [pc, #4]	; 14678 <rpi_protocol_handler_get_actual_state+0xc>
   14670:	e5d30050 	ldrb	r0, [r3, #80]	; 0x50
   14674:	e12fff1e 	bx	lr
   14678:	00027240 	.word	0x00027240
   1467c:	00000000 	.word	0x00000000

00014680 <rtc_driver_init>:
   14680:	e12fff1e 	bx	lr

00014684 <rtc_driver_deinit>:
   14684:	e12fff1e 	bx	lr

00014688 <local_rtc_timer_gettime_u32>:
   14688:	e52de004 	push	{lr}		; (str lr, [sp, #-4]!)
   1468c:	ed2d8b02 	vpush	{d8}
   14690:	e3a00001 	mov	r0, #1
   14694:	e24dd00c 	sub	sp, sp, #12
   14698:	e1a0100d 	mov	r1, sp
   1469c:	ebfff0ef 	bl	10a60 <clock_gettime@plt>
   146a0:	e3500000 	cmp	r0, #0
   146a4:	13a00000 	movne	r0, #0
   146a8:	1a000010 	bne	146f0 <local_rtc_timer_gettime_u32+0x68>
   146ac:	e59d0000 	ldr	r0, [sp]
   146b0:	e1a01fc0 	asr	r1, r0, #31
   146b4:	eb000743 	bl	163c8 <__aeabi_ul2d>
   146b8:	eddd7a01 	vldr	s15, [sp, #4]
   146bc:	ed9f6b0f 	vldr	d6, [pc, #60]	; 14700 <local_rtc_timer_gettime_u32+0x78>
   146c0:	eeb87b67 	vcvt.f64.u32	d7, s15
   146c4:	ee878b06 	vdiv.f64	d8, d7, d6
   146c8:	ed9f7b0e 	vldr	d7, [pc, #56]	; 14708 <local_rtc_timer_gettime_u32+0x80>
   146cc:	ec410b16 	vmov	d6, r0, r1
   146d0:	ee267b07 	vmul.f64	d7, d6, d7
   146d4:	ec510b17 	vmov	r0, r1, d7
   146d8:	eb000758 	bl	16440 <__aeabi_d2ulz>
   146dc:	ee070a90 	vmov	s15, r0
   146e0:	eeb87b67 	vcvt.f64.u32	d7, s15
   146e4:	ee388b07 	vadd.f64	d8, d8, d7
   146e8:	eefc7bc8 	vcvt.u32.f64	s15, d8
   146ec:	ee170a90 	vmov	r0, s15
   146f0:	e28dd00c 	add	sp, sp, #12
   146f4:	ecbd8b02 	vpop	{d8}
   146f8:	e49df004 	pop	{pc}		; (ldr pc, [sp], #4)
   146fc:	e1a00000 	nop			; (mov r0, r0)
   14700:	00000000 	.word	0x00000000
   14704:	412e8480 	.word	0x412e8480
   14708:	00000000 	.word	0x00000000
   1470c:	408f4000 	.word	0x408f4000

00014710 <local_rtc_timer_gettime_u8>:
   14710:	e92d4010 	push	{r4, lr}
   14714:	ebffffdb 	bl	14688 <local_rtc_timer_gettime_u32>
   14718:	e6ef0070 	uxtb	r0, r0
   1471c:	e8bd8010 	pop	{r4, pc}

00014720 <local_rtc_timer_gettime_u16>:
   14720:	e92d4010 	push	{r4, lr}
   14724:	ebffffd7 	bl	14688 <local_rtc_timer_gettime_u32>
   14728:	e6ff0070 	uxth	r0, r0
   1472c:	e8bd8010 	pop	{r4, pc}

00014730 <local_rtc_timer_istimeup_u8>:
   14730:	e92d4070 	push	{r4, r5, r6, lr}
   14734:	e1a04000 	mov	r4, r0
   14738:	e1a05001 	mov	r5, r1
   1473c:	ebffffd1 	bl	14688 <local_rtc_timer_gettime_u32>
   14740:	e0400004 	sub	r0, r0, r4
   14744:	e6ef0070 	uxtb	r0, r0
   14748:	e1550000 	cmp	r5, r0
   1474c:	23a00000 	movcs	r0, #0
   14750:	33a00001 	movcc	r0, #1
   14754:	e8bd8070 	pop	{r4, r5, r6, pc}

00014758 <local_rtc_timer_istimeup_u16>:
   14758:	e92d4070 	push	{r4, r5, r6, lr}
   1475c:	e1a04000 	mov	r4, r0
   14760:	e1a05001 	mov	r5, r1
   14764:	ebffffc7 	bl	14688 <local_rtc_timer_gettime_u32>
   14768:	e0400004 	sub	r0, r0, r4
   1476c:	e6ff0070 	uxth	r0, r0
   14770:	e1550000 	cmp	r5, r0
   14774:	23a00000 	movcs	r0, #0
   14778:	33a00001 	movcc	r0, #1
   1477c:	e8bd8070 	pop	{r4, r5, r6, pc}

00014780 <local_rtc_timer_istimeup_u32>:
   14780:	e92d4070 	push	{r4, r5, r6, lr}
   14784:	e1a04000 	mov	r4, r0
   14788:	e1a05001 	mov	r5, r1
   1478c:	ebffffbd 	bl	14688 <local_rtc_timer_gettime_u32>
   14790:	e0400004 	sub	r0, r0, r4
   14794:	e1550000 	cmp	r5, r0
   14798:	23a00000 	movcs	r0, #0
   1479c:	33a00001 	movcc	r0, #1
   147a0:	e8bd8070 	pop	{r4, r5, r6, pc}

000147a4 <rtc_timer_elapsed_u8>:
   147a4:	e92d4010 	push	{r4, lr}
   147a8:	e1a04000 	mov	r4, r0
   147ac:	ebffffb5 	bl	14688 <local_rtc_timer_gettime_u32>
   147b0:	e0400004 	sub	r0, r0, r4
   147b4:	e6ef0070 	uxtb	r0, r0
   147b8:	e8bd8010 	pop	{r4, pc}

000147bc <rtc_timer_elapsed_u16>:
   147bc:	e92d4010 	push	{r4, lr}
   147c0:	e1a04000 	mov	r4, r0
   147c4:	ebffffaf 	bl	14688 <local_rtc_timer_gettime_u32>
   147c8:	e0400004 	sub	r0, r0, r4
   147cc:	e6ff0070 	uxth	r0, r0
   147d0:	e8bd8010 	pop	{r4, pc}

000147d4 <rtc_timer_elapsed_u32>:
   147d4:	e92d4010 	push	{r4, lr}
   147d8:	e1a04000 	mov	r4, r0
   147dc:	ebffffa9 	bl	14688 <local_rtc_timer_gettime_u32>
   147e0:	e0400004 	sub	r0, r0, r4
   147e4:	e8bd8010 	pop	{r4, pc}

000147e8 <clock_driver_init>:
   147e8:	e12fff1e 	bx	lr

000147ec <gpio_driver_get_pin_id>:
   147ec:	e5d03000 	ldrb	r3, [r0]
   147f0:	e3530001 	cmp	r3, #1
   147f4:	1a000005 	bne	14810 <gpio_driver_get_pin_id+0x24>
   147f8:	e5d03001 	ldrb	r3, [r0, #1]
   147fc:	e3530040 	cmp	r3, #64	; 0x40
   14800:	13a030ff 	movne	r3, #255	; 0xff
   14804:	03a03007 	moveq	r3, #7
   14808:	e1a00003 	mov	r0, r3
   1480c:	e12fff1e 	bx	lr
   14810:	e3530002 	cmp	r3, #2
   14814:	1a00000f 	bne	14858 <gpio_driver_get_pin_id+0x6c>
   14818:	e5d02001 	ldrb	r2, [r0, #1]
   1481c:	e3520004 	cmp	r2, #4
   14820:	03a03000 	moveq	r3, #0
   14824:	0afffff7 	beq	14808 <gpio_driver_get_pin_id+0x1c>
   14828:	e3520008 	cmp	r2, #8
   1482c:	03a03001 	moveq	r3, #1
   14830:	0afffff4 	beq	14808 <gpio_driver_get_pin_id+0x1c>
   14834:	e3520010 	cmp	r2, #16
   14838:	0afffff2 	beq	14808 <gpio_driver_get_pin_id+0x1c>
   1483c:	e3520040 	cmp	r2, #64	; 0x40
   14840:	03a03003 	moveq	r3, #3
   14844:	0affffef 	beq	14808 <gpio_driver_get_pin_id+0x1c>
   14848:	e3520080 	cmp	r2, #128	; 0x80
   1484c:	13a030ff 	movne	r3, #255	; 0xff
   14850:	03a03004 	moveq	r3, #4
   14854:	eaffffeb 	b	14808 <gpio_driver_get_pin_id+0x1c>
   14858:	e3530003 	cmp	r3, #3
   1485c:	1a00000a 	bne	1488c <gpio_driver_get_pin_id+0xa0>
   14860:	e5d03001 	ldrb	r3, [r0, #1]
   14864:	e3530002 	cmp	r3, #2
   14868:	03a03005 	moveq	r3, #5
   1486c:	0affffe5 	beq	14808 <gpio_driver_get_pin_id+0x1c>
   14870:	e3530020 	cmp	r3, #32
   14874:	03a03006 	moveq	r3, #6
   14878:	0affffe2 	beq	14808 <gpio_driver_get_pin_id+0x1c>
   1487c:	e3530080 	cmp	r3, #128	; 0x80
   14880:	13a030ff 	movne	r3, #255	; 0xff
   14884:	03a0300a 	moveq	r3, #10
   14888:	eaffffde 	b	14808 <gpio_driver_get_pin_id+0x1c>
   1488c:	e3530004 	cmp	r3, #4
   14890:	1a00000a 	bne	148c0 <gpio_driver_get_pin_id+0xd4>
   14894:	e5d03001 	ldrb	r3, [r0, #1]
   14898:	e3530010 	cmp	r3, #16
   1489c:	03a03015 	moveq	r3, #21
   148a0:	0affffd8 	beq	14808 <gpio_driver_get_pin_id+0x1c>
   148a4:	e3530040 	cmp	r3, #64	; 0x40
   148a8:	03a03016 	moveq	r3, #22
   148ac:	0affffd5 	beq	14808 <gpio_driver_get_pin_id+0x1c>
   148b0:	e3530080 	cmp	r3, #128	; 0x80
   148b4:	13a030ff 	movne	r3, #255	; 0xff
   148b8:	03a0301a 	moveq	r3, #26
   148bc:	eaffffd1 	b	14808 <gpio_driver_get_pin_id+0x1c>
   148c0:	e3530005 	cmp	r3, #5
   148c4:	13a030ff 	movne	r3, #255	; 0xff
   148c8:	1affffce 	bne	14808 <gpio_driver_get_pin_id+0x1c>
   148cc:	e5d03001 	ldrb	r3, [r0, #1]
   148d0:	e3530001 	cmp	r3, #1
   148d4:	03a03017 	moveq	r3, #23
   148d8:	0affffca 	beq	14808 <gpio_driver_get_pin_id+0x1c>
   148dc:	e3530004 	cmp	r3, #4
   148e0:	03a03018 	moveq	r3, #24
   148e4:	0affffc7 	beq	14808 <gpio_driver_get_pin_id+0x1c>
   148e8:	e3530008 	cmp	r3, #8
   148ec:	03a0301b 	moveq	r3, #27
   148f0:	0affffc4 	beq	14808 <gpio_driver_get_pin_id+0x1c>
   148f4:	e3530010 	cmp	r3, #16
   148f8:	03a03019 	moveq	r3, #25
   148fc:	0affffc1 	beq	14808 <gpio_driver_get_pin_id+0x1c>
   14900:	e3530020 	cmp	r3, #32
   14904:	03a0301c 	moveq	r3, #28
   14908:	0affffbe 	beq	14808 <gpio_driver_get_pin_id+0x1c>
   1490c:	e3530080 	cmp	r3, #128	; 0x80
   14910:	13a030ff 	movne	r3, #255	; 0xff
   14914:	03a0301d 	moveq	r3, #29
   14918:	eaffffba 	b	14808 <gpio_driver_get_pin_id+0x1c>

0001491c <gpio_driver_set_direction>:
   1491c:	e92d4010 	push	{r4, lr}
   14920:	ebffffb1 	bl	147ec <gpio_driver_get_pin_id>
   14924:	e8bd4010 	pop	{r4, lr}
   14928:	e2411001 	sub	r1, r1, #1
   1492c:	e16f1f11 	clz	r1, r1
   14930:	e1a012a1 	lsr	r1, r1, #5
   14934:	eafff037 	b	10a18 <pinMode@plt>

00014938 <gpio_driver_set_level>:
   14938:	e92d4010 	push	{r4, lr}
   1493c:	e1a04000 	mov	r4, r0
   14940:	ebffffa9 	bl	147ec <gpio_driver_get_pin_id>
   14944:	e5d43002 	ldrb	r3, [r4, #2]
   14948:	e1b033a3 	lsrs	r3, r3, #7
   1494c:	0a000001 	beq	14958 <gpio_driver_set_level+0x20>
   14950:	e2511001 	subs	r1, r1, #1
   14954:	13a01001 	movne	r1, #1
   14958:	e3510000 	cmp	r1, #0
   1495c:	0a000001 	beq	14968 <gpio_driver_set_level+0x30>
   14960:	e3510001 	cmp	r1, #1
   14964:	1a000001 	bne	14970 <gpio_driver_set_level+0x38>
   14968:	e8bd4010 	pop	{r4, lr}
   1496c:	eaffeff6 	b	1094c <digitalWrite@plt>
   14970:	e3a01002 	mov	r1, #2
   14974:	e8bd4010 	pop	{r4, lr}
   14978:	eafff02c 	b	10a30 <pullUpDnControl@plt>

0001497c <gpio_driver_init_pin>:
   1497c:	e92d4010 	push	{r4, lr}
   14980:	e1a04000 	mov	r4, r0
   14984:	e5d01002 	ldrb	r1, [r0, #2]
   14988:	e2111008 	ands	r1, r1, #8
   1498c:	13a01001 	movne	r1, #1
   14990:	ebffffe1 	bl	1491c <gpio_driver_set_direction>
   14994:	e5d43002 	ldrb	r3, [r4, #2]
   14998:	e3130020 	tst	r3, #32
   1499c:	13a01000 	movne	r1, #0
   149a0:	1a000002 	bne	149b0 <gpio_driver_init_pin+0x34>
   149a4:	e3130040 	tst	r3, #64	; 0x40
   149a8:	03a01002 	moveq	r1, #2
   149ac:	13a01001 	movne	r1, #1
   149b0:	e1a00004 	mov	r0, r4
   149b4:	e8bd4010 	pop	{r4, lr}
   149b8:	eaffffde 	b	14938 <gpio_driver_set_level>

000149bc <gpio_driver_init>:
   149bc:	e92d4010 	push	{r4, lr}
   149c0:	ebfff017 	bl	10a24 <wiringPiSetup@plt>
   149c4:	e3500000 	cmp	r0, #0
   149c8:	b8bd8010 	poplt	{r4, pc}
   149cc:	e59f30d4 	ldr	r3, [pc, #212]	; 14aa8 <gpio_driver_init+0xec>
   149d0:	e5930000 	ldr	r0, [r3]
   149d4:	ebffffe8 	bl	1497c <gpio_driver_init_pin>
   149d8:	e59f30cc 	ldr	r3, [pc, #204]	; 14aac <gpio_driver_init+0xf0>
   149dc:	e5930000 	ldr	r0, [r3]
   149e0:	ebffffe5 	bl	1497c <gpio_driver_init_pin>
   149e4:	e59f30c4 	ldr	r3, [pc, #196]	; 14ab0 <gpio_driver_init+0xf4>
   149e8:	e5930000 	ldr	r0, [r3]
   149ec:	ebffffe2 	bl	1497c <gpio_driver_init_pin>
   149f0:	e59f30bc 	ldr	r3, [pc, #188]	; 14ab4 <gpio_driver_init+0xf8>
   149f4:	e5930000 	ldr	r0, [r3]
   149f8:	ebffffdf 	bl	1497c <gpio_driver_init_pin>
   149fc:	e59f30b4 	ldr	r3, [pc, #180]	; 14ab8 <gpio_driver_init+0xfc>
   14a00:	e5930000 	ldr	r0, [r3]
   14a04:	ebffffdc 	bl	1497c <gpio_driver_init_pin>
   14a08:	e59f30ac 	ldr	r3, [pc, #172]	; 14abc <gpio_driver_init+0x100>
   14a0c:	e5930000 	ldr	r0, [r3]
   14a10:	ebffffd9 	bl	1497c <gpio_driver_init_pin>
   14a14:	e59f30a4 	ldr	r3, [pc, #164]	; 14ac0 <gpio_driver_init+0x104>
   14a18:	e5930000 	ldr	r0, [r3]
   14a1c:	ebffffd6 	bl	1497c <gpio_driver_init_pin>
   14a20:	e59f309c 	ldr	r3, [pc, #156]	; 14ac4 <gpio_driver_init+0x108>
   14a24:	e5930000 	ldr	r0, [r3]
   14a28:	ebffffd3 	bl	1497c <gpio_driver_init_pin>
   14a2c:	e59f3094 	ldr	r3, [pc, #148]	; 14ac8 <gpio_driver_init+0x10c>
   14a30:	e5930000 	ldr	r0, [r3]
   14a34:	ebffffd0 	bl	1497c <gpio_driver_init_pin>
   14a38:	e59f308c 	ldr	r3, [pc, #140]	; 14acc <gpio_driver_init+0x110>
   14a3c:	e5930000 	ldr	r0, [r3]
   14a40:	ebffffcd 	bl	1497c <gpio_driver_init_pin>
   14a44:	e59f3084 	ldr	r3, [pc, #132]	; 14ad0 <gpio_driver_init+0x114>
   14a48:	e5930000 	ldr	r0, [r3]
   14a4c:	ebffffca 	bl	1497c <gpio_driver_init_pin>
   14a50:	e59f307c 	ldr	r3, [pc, #124]	; 14ad4 <gpio_driver_init+0x118>
   14a54:	e5930000 	ldr	r0, [r3]
   14a58:	ebffffc7 	bl	1497c <gpio_driver_init_pin>
   14a5c:	e59f3074 	ldr	r3, [pc, #116]	; 14ad8 <gpio_driver_init+0x11c>
   14a60:	e5930000 	ldr	r0, [r3]
   14a64:	ebffffc4 	bl	1497c <gpio_driver_init_pin>
   14a68:	e59f306c 	ldr	r3, [pc, #108]	; 14adc <gpio_driver_init+0x120>
   14a6c:	e5930000 	ldr	r0, [r3]
   14a70:	ebffffc1 	bl	1497c <gpio_driver_init_pin>
   14a74:	e59f3064 	ldr	r3, [pc, #100]	; 14ae0 <gpio_driver_init+0x124>
   14a78:	e5930000 	ldr	r0, [r3]
   14a7c:	ebffffbe 	bl	1497c <gpio_driver_init_pin>
   14a80:	e59f305c 	ldr	r3, [pc, #92]	; 14ae4 <gpio_driver_init+0x128>
   14a84:	e5930000 	ldr	r0, [r3]
   14a88:	ebffffbb 	bl	1497c <gpio_driver_init_pin>
   14a8c:	e59f3054 	ldr	r3, [pc, #84]	; 14ae8 <gpio_driver_init+0x12c>
   14a90:	e5930000 	ldr	r0, [r3]
   14a94:	ebffffb8 	bl	1497c <gpio_driver_init_pin>
   14a98:	e59f304c 	ldr	r3, [pc, #76]	; 14aec <gpio_driver_init+0x130>
   14a9c:	e8bd4010 	pop	{r4, lr}
   14aa0:	e5930000 	ldr	r0, [r3]
   14aa4:	eaffffb4 	b	1497c <gpio_driver_init_pin>
   14aa8:	000270ec 	.word	0x000270ec
   14aac:	000270e0 	.word	0x000270e0
   14ab0:	000270dc 	.word	0x000270dc
   14ab4:	000270d8 	.word	0x000270d8
   14ab8:	000270d4 	.word	0x000270d4
   14abc:	000270d0 	.word	0x000270d0
   14ac0:	000270cc 	.word	0x000270cc
   14ac4:	000270c0 	.word	0x000270c0
   14ac8:	000270b8 	.word	0x000270b8
   14acc:	000270b0 	.word	0x000270b0
   14ad0:	000270ac 	.word	0x000270ac
   14ad4:	000270a8 	.word	0x000270a8
   14ad8:	000270a4 	.word	0x000270a4
   14adc:	000270a0 	.word	0x000270a0
   14ae0:	0002709c 	.word	0x0002709c
   14ae4:	00027098 	.word	0x00027098
   14ae8:	00027094 	.word	0x00027094
   14aec:	00027090 	.word	0x00027090

00014af0 <gpio_driver_get_level>:
   14af0:	e92d4010 	push	{r4, lr}
   14af4:	e1a04000 	mov	r4, r0
   14af8:	ebffff3b 	bl	147ec <gpio_driver_get_pin_id>
   14afc:	ebffef89 	bl	10928 <digitalRead@plt>
   14b00:	e5d43002 	ldrb	r3, [r4, #2]
   14b04:	e1b033a3 	lsrs	r3, r3, #7
   14b08:	1a000002 	bne	14b18 <gpio_driver_get_level+0x28>
   14b0c:	e2900000 	adds	r0, r0, #0
   14b10:	13a00001 	movne	r0, #1
   14b14:	e8bd8010 	pop	{r4, pc}
   14b18:	e16f0f10 	clz	r0, r0
   14b1c:	e1a002a0 	lsr	r0, r0, #5
   14b20:	e8bd8010 	pop	{r4, pc}

00014b24 <gpio_driver_toggle_level>:
   14b24:	e5d02002 	ldrb	r2, [r0, #2]
   14b28:	e3120008 	tst	r2, #8
   14b2c:	012fff1e 	bxeq	lr
   14b30:	e92d4010 	push	{r4, lr}
   14b34:	e1a04000 	mov	r4, r0
   14b38:	ebffffec 	bl	14af0 <gpio_driver_get_level>
   14b3c:	e2501001 	subs	r1, r0, #1
   14b40:	13a01001 	movne	r1, #1
   14b44:	e1a00004 	mov	r0, r4
   14b48:	e8bd4010 	pop	{r4, lr}
   14b4c:	eaffff79 	b	14938 <gpio_driver_set_level>

00014b50 <gpio_driver_print_pin_state>:
   14b50:	e12fff1e 	bx	lr

00014b54 <SPI0_TX_BUFFER_init>:
   14b54:	e59f0000 	ldr	r0, [pc]	; 14b5c <SPI0_TX_BUFFER_init+0x8>
   14b58:	eafff954 	b	130b0 <local_msg_buffer_init>
   14b5c:	000272e4 	.word	0x000272e4

00014b60 <SPI0_TX_BUFFER_bytes_available>:
   14b60:	e92d4010 	push	{r4, lr}
   14b64:	e59f0008 	ldr	r0, [pc, #8]	; 14b74 <SPI0_TX_BUFFER_bytes_available+0x14>
   14b68:	ebfff99e 	bl	131e8 <local_msg_buffer_bytes_available>
   14b6c:	e6ef0070 	uxtb	r0, r0
   14b70:	e8bd8010 	pop	{r4, pc}
   14b74:	000272e4 	.word	0x000272e4

00014b78 <SPI0_TX_BUFFER_bytes_free>:
   14b78:	e92d4010 	push	{r4, lr}
   14b7c:	e59f0008 	ldr	r0, [pc, #8]	; 14b8c <SPI0_TX_BUFFER_bytes_free+0x14>
   14b80:	ebfff99a 	bl	131f0 <local_msg_buffer_bytes_free>
   14b84:	e6ef0070 	uxtb	r0, r0
   14b88:	e8bd8010 	pop	{r4, pc}
   14b8c:	000272e4 	.word	0x000272e4

00014b90 <SPI0_TX_BUFFER_clear_all>:
   14b90:	e59f0000 	ldr	r0, [pc]	; 14b98 <SPI0_TX_BUFFER_clear_all+0x8>
   14b94:	eafff9e0 	b	1331c <local_msg_buffer_clear_all>
   14b98:	000272e4 	.word	0x000272e4

00014b9c <SPI0_TX_BUFFER_start_write>:
   14b9c:	e59f0000 	ldr	r0, [pc]	; 14ba4 <SPI0_TX_BUFFER_start_write+0x8>
   14ba0:	eafff948 	b	130c8 <local_msg_buffer_start_write>
   14ba4:	000272e4 	.word	0x000272e4

00014ba8 <SPI0_TX_BUFFER_add_byte>:
   14ba8:	e1a01000 	mov	r1, r0
   14bac:	e59f0000 	ldr	r0, [pc]	; 14bb4 <SPI0_TX_BUFFER_add_byte+0xc>
   14bb0:	eafff94c 	b	130e8 <local_msg_buffer_add_byte>
   14bb4:	000272e4 	.word	0x000272e4

00014bb8 <SPI0_TX_BUFFER_add_word>:
   14bb8:	e1a01000 	mov	r1, r0
   14bbc:	e59f0000 	ldr	r0, [pc]	; 14bc4 <SPI0_TX_BUFFER_add_word+0xc>
   14bc0:	eafff95f 	b	13144 <local_msg_buffer_add_word>
   14bc4:	000272e4 	.word	0x000272e4

00014bc8 <SPI0_TX_BUFFER_add_long>:
   14bc8:	e1a01000 	mov	r1, r0
   14bcc:	e59f0000 	ldr	r0, [pc]	; 14bd4 <SPI0_TX_BUFFER_add_long+0xc>
   14bd0:	eafff962 	b	13160 <local_msg_buffer_add_long>
   14bd4:	000272e4 	.word	0x000272e4

00014bd8 <SPI0_TX_BUFFER_add_N_bytes>:
   14bd8:	e1a02001 	mov	r2, r1
   14bdc:	e1a01000 	mov	r1, r0
   14be0:	e59f0000 	ldr	r0, [pc]	; 14be8 <SPI0_TX_BUFFER_add_N_bytes+0x10>
   14be4:	eafff96a 	b	13194 <local_msg_buffer_add_N_bytes>
   14be8:	000272e4 	.word	0x000272e4

00014bec <SPI0_TX_BUFFER_stop_write>:
   14bec:	e59f0000 	ldr	r0, [pc]	; 14bf4 <SPI0_TX_BUFFER_stop_write+0x8>
   14bf0:	eafff971 	b	131bc <local_msg_buffer_stop_write>
   14bf4:	000272e4 	.word	0x000272e4

00014bf8 <SPI0_TX_BUFFER_start_read>:
   14bf8:	e59f0000 	ldr	r0, [pc]	; 14c00 <SPI0_TX_BUFFER_start_read+0x8>
   14bfc:	eafff972 	b	131cc <local_msg_buffer_start_read>
   14c00:	000272e4 	.word	0x000272e4

00014c04 <SPI0_TX_BUFFER_get_byte>:
   14c04:	e59f0000 	ldr	r0, [pc]	; 14c0c <SPI0_TX_BUFFER_get_byte+0x8>
   14c08:	eafff97d 	b	13204 <local_msg_buffer_get_byte>
   14c0c:	000272e4 	.word	0x000272e4

00014c10 <SPI0_TX_BUFFER_get_word>:
   14c10:	e59f0000 	ldr	r0, [pc]	; 14c18 <SPI0_TX_BUFFER_get_word+0x8>
   14c14:	eafff993 	b	13268 <local_msg_buffer_get_word>
   14c18:	000272e4 	.word	0x000272e4

00014c1c <SPI0_TX_BUFFER_get_long>:
   14c1c:	e59f0000 	ldr	r0, [pc]	; 14c24 <SPI0_TX_BUFFER_get_long+0x8>
   14c20:	eafff999 	b	1328c <local_msg_buffer_get_long>
   14c24:	000272e4 	.word	0x000272e4

00014c28 <SPI0_TX_BUFFER_get_N_bytes>:
   14c28:	e1a02001 	mov	r2, r1
   14c2c:	e1a01000 	mov	r1, r0
   14c30:	e59f0000 	ldr	r0, [pc]	; 14c38 <SPI0_TX_BUFFER_get_N_bytes+0x10>
   14c34:	eafff9a4 	b	132cc <local_msg_buffer_get_N_bytes>
   14c38:	000272e4 	.word	0x000272e4

00014c3c <SPI0_TX_BUFFER_stop_read>:
   14c3c:	e59f0000 	ldr	r0, [pc]	; 14c44 <SPI0_TX_BUFFER_stop_read+0x8>
   14c40:	eafff9b1 	b	1330c <local_msg_buffer_stop_read>
   14c44:	000272e4 	.word	0x000272e4

00014c48 <SPI0_TX_BUFFER_debug_print>:
   14c48:	e59f0000 	ldr	r0, [pc]	; 14c50 <SPI0_TX_BUFFER_debug_print+0x8>
   14c4c:	eafff9b7 	b	13330 <local_msg_buffer_debug_print>
   14c50:	000272e4 	.word	0x000272e4

00014c54 <SPI0_TX_BUFFER_size>:
   14c54:	e3a00080 	mov	r0, #128	; 0x80
   14c58:	e12fff1e 	bx	lr

00014c5c <SPI0_RX_BUFFER_init>:
   14c5c:	e59f0000 	ldr	r0, [pc]	; 14c64 <SPI0_RX_BUFFER_init+0x8>
   14c60:	eafff912 	b	130b0 <local_msg_buffer_init>
   14c64:	000272f4 	.word	0x000272f4

00014c68 <SPI0_RX_BUFFER_bytes_available>:
   14c68:	e92d4010 	push	{r4, lr}
   14c6c:	e59f0008 	ldr	r0, [pc, #8]	; 14c7c <SPI0_RX_BUFFER_bytes_available+0x14>
   14c70:	ebfff95c 	bl	131e8 <local_msg_buffer_bytes_available>
   14c74:	e6ef0070 	uxtb	r0, r0
   14c78:	e8bd8010 	pop	{r4, pc}
   14c7c:	000272f4 	.word	0x000272f4

00014c80 <SPI0_RX_BUFFER_bytes_free>:
   14c80:	e92d4010 	push	{r4, lr}
   14c84:	e59f0008 	ldr	r0, [pc, #8]	; 14c94 <SPI0_RX_BUFFER_bytes_free+0x14>
   14c88:	ebfff958 	bl	131f0 <local_msg_buffer_bytes_free>
   14c8c:	e6ef0070 	uxtb	r0, r0
   14c90:	e8bd8010 	pop	{r4, pc}
   14c94:	000272f4 	.word	0x000272f4

00014c98 <SPI0_RX_BUFFER_clear_all>:
   14c98:	e59f0000 	ldr	r0, [pc]	; 14ca0 <SPI0_RX_BUFFER_clear_all+0x8>
   14c9c:	eafff99e 	b	1331c <local_msg_buffer_clear_all>
   14ca0:	000272f4 	.word	0x000272f4

00014ca4 <SPI0_RX_BUFFER_start_write>:
   14ca4:	e59f0000 	ldr	r0, [pc]	; 14cac <SPI0_RX_BUFFER_start_write+0x8>
   14ca8:	eafff906 	b	130c8 <local_msg_buffer_start_write>
   14cac:	000272f4 	.word	0x000272f4

00014cb0 <SPI0_RX_BUFFER_add_byte>:
   14cb0:	e1a01000 	mov	r1, r0
   14cb4:	e59f0000 	ldr	r0, [pc]	; 14cbc <SPI0_RX_BUFFER_add_byte+0xc>
   14cb8:	eafff90a 	b	130e8 <local_msg_buffer_add_byte>
   14cbc:	000272f4 	.word	0x000272f4

00014cc0 <SPI0_RX_BUFFER_add_word>:
   14cc0:	e1a01000 	mov	r1, r0
   14cc4:	e59f0000 	ldr	r0, [pc]	; 14ccc <SPI0_RX_BUFFER_add_word+0xc>
   14cc8:	eafff91d 	b	13144 <local_msg_buffer_add_word>
   14ccc:	000272f4 	.word	0x000272f4

00014cd0 <SPI0_RX_BUFFER_add_long>:
   14cd0:	e1a01000 	mov	r1, r0
   14cd4:	e59f0000 	ldr	r0, [pc]	; 14cdc <SPI0_RX_BUFFER_add_long+0xc>
   14cd8:	eafff920 	b	13160 <local_msg_buffer_add_long>
   14cdc:	000272f4 	.word	0x000272f4

00014ce0 <SPI0_RX_BUFFER_add_N_bytes>:
   14ce0:	e1a02001 	mov	r2, r1
   14ce4:	e1a01000 	mov	r1, r0
   14ce8:	e59f0000 	ldr	r0, [pc]	; 14cf0 <SPI0_RX_BUFFER_add_N_bytes+0x10>
   14cec:	eafff928 	b	13194 <local_msg_buffer_add_N_bytes>
   14cf0:	000272f4 	.word	0x000272f4

00014cf4 <SPI0_RX_BUFFER_stop_write>:
   14cf4:	e59f0000 	ldr	r0, [pc]	; 14cfc <SPI0_RX_BUFFER_stop_write+0x8>
   14cf8:	eafff92f 	b	131bc <local_msg_buffer_stop_write>
   14cfc:	000272f4 	.word	0x000272f4

00014d00 <SPI0_RX_BUFFER_start_read>:
   14d00:	e59f0000 	ldr	r0, [pc]	; 14d08 <SPI0_RX_BUFFER_start_read+0x8>
   14d04:	eafff930 	b	131cc <local_msg_buffer_start_read>
   14d08:	000272f4 	.word	0x000272f4

00014d0c <SPI0_RX_BUFFER_get_byte>:
   14d0c:	e59f0000 	ldr	r0, [pc]	; 14d14 <SPI0_RX_BUFFER_get_byte+0x8>
   14d10:	eafff93b 	b	13204 <local_msg_buffer_get_byte>
   14d14:	000272f4 	.word	0x000272f4

00014d18 <SPI0_RX_BUFFER_get_word>:
   14d18:	e59f0000 	ldr	r0, [pc]	; 14d20 <SPI0_RX_BUFFER_get_word+0x8>
   14d1c:	eafff951 	b	13268 <local_msg_buffer_get_word>
   14d20:	000272f4 	.word	0x000272f4

00014d24 <SPI0_RX_BUFFER_get_long>:
   14d24:	e59f0000 	ldr	r0, [pc]	; 14d2c <SPI0_RX_BUFFER_get_long+0x8>
   14d28:	eafff957 	b	1328c <local_msg_buffer_get_long>
   14d2c:	000272f4 	.word	0x000272f4

00014d30 <SPI0_RX_BUFFER_get_N_bytes>:
   14d30:	e1a02001 	mov	r2, r1
   14d34:	e1a01000 	mov	r1, r0
   14d38:	e59f0000 	ldr	r0, [pc]	; 14d40 <SPI0_RX_BUFFER_get_N_bytes+0x10>
   14d3c:	eafff962 	b	132cc <local_msg_buffer_get_N_bytes>
   14d40:	000272f4 	.word	0x000272f4

00014d44 <SPI0_RX_BUFFER_stop_read>:
   14d44:	e59f0000 	ldr	r0, [pc]	; 14d4c <SPI0_RX_BUFFER_stop_read+0x8>
   14d48:	eafff96f 	b	1330c <local_msg_buffer_stop_read>
   14d4c:	000272f4 	.word	0x000272f4

00014d50 <SPI0_RX_BUFFER_debug_print>:
   14d50:	e59f0000 	ldr	r0, [pc]	; 14d58 <SPI0_RX_BUFFER_debug_print+0x8>
   14d54:	eafff975 	b	13330 <local_msg_buffer_debug_print>
   14d58:	000272f4 	.word	0x000272f4

00014d5c <SPI0_RX_BUFFER_size>:
   14d5c:	e3a00080 	mov	r0, #128	; 0x80
   14d60:	e12fff1e 	bx	lr

00014d64 <spi0_driver_initialize>:
   14d64:	e59f3024 	ldr	r3, [pc, #36]	; 14d90 <spi0_driver_initialize+0x2c>
   14d68:	e3a02003 	mov	r2, #3
   14d6c:	e3a00008 	mov	r0, #8
   14d70:	e5832004 	str	r2, [r3, #4]
   14d74:	e3a01b96 	mov	r1, #153600	; 0x25800
   14d78:	e3a02000 	mov	r2, #0
   14d7c:	e1c321b0 	strh	r2, [r3, #16]
   14d80:	e3a02001 	mov	r2, #1
   14d84:	e1c300f8 	strd	r0, [r3, #8]
   14d88:	e5c32012 	strb	r2, [r3, #18]
   14d8c:	e12fff1e 	bx	lr
   14d90:	00027508 	.word	0x00027508

00014d94 <spi0_driver_configure>:
   14d94:	e92d4070 	push	{r4, r5, r6, lr}
   14d98:	e1a05000 	mov	r5, r0
   14d9c:	e59f40f8 	ldr	r4, [pc, #248]	; 14e9c <spi0_driver_configure+0x108>
   14da0:	ebfff832 	bl	12e70 <SPI0_CS_pull_up>
   14da4:	e5943000 	ldr	r3, [r4]
   14da8:	e3730001 	cmn	r3, #1
   14dac:	08bd8070 	popeq	{r4, r5, r6, pc}
   14db0:	e5953008 	ldr	r3, [r5, #8]
   14db4:	e3530b96 	cmp	r3, #153600	; 0x25800
   14db8:	83a03b96 	movhi	r3, #153600	; 0x25800
   14dbc:	8a000001 	bhi	14dc8 <spi0_driver_configure+0x34>
   14dc0:	e3530ffa 	cmp	r3, #1000	; 0x3e8
   14dc4:	33a03ffa 	movcc	r3, #1000	; 0x3e8
   14dc8:	e3a01002 	mov	r1, #2
   14dcc:	e285000c 	add	r0, r5, #12
   14dd0:	e584300c 	str	r3, [r4, #12]
   14dd4:	ebffeef4 	bl	109ac <open@plt>
   14dd8:	e3500000 	cmp	r0, #0
   14ddc:	e5840000 	str	r0, [r4]
   14de0:	aa000006 	bge	14e00 <spi0_driver_configure+0x6c>
   14de4:	e3a01002 	mov	r1, #2
   14de8:	e59f00b0 	ldr	r0, [pc, #176]	; 14ea0 <spi0_driver_configure+0x10c>
   14dec:	ebffeeee 	bl	109ac <open@plt>
   14df0:	e3500000 	cmp	r0, #0
   14df4:	b3e03000 	mvnlt	r3, #0
   14df8:	a5840000 	strge	r0, [r4]
   14dfc:	b5843000 	strlt	r3, [r4]
   14e00:	e59f209c 	ldr	r2, [pc, #156]	; 14ea4 <spi0_driver_configure+0x110>
   14e04:	e59f109c 	ldr	r1, [pc, #156]	; 14ea8 <spi0_driver_configure+0x114>
   14e08:	e5940000 	ldr	r0, [r4]
   14e0c:	ebffeed7 	bl	10970 <ioctl@plt>
   14e10:	e3500000 	cmp	r0, #0
   14e14:	18bd8070 	popne	{r4, r5, r6, pc}
   14e18:	e59f2084 	ldr	r2, [pc, #132]	; 14ea4 <spi0_driver_configure+0x110>
   14e1c:	e59f1088 	ldr	r1, [pc, #136]	; 14eac <spi0_driver_configure+0x118>
   14e20:	e5940000 	ldr	r0, [r4]
   14e24:	ebffeed1 	bl	10970 <ioctl@plt>
   14e28:	e3500000 	cmp	r0, #0
   14e2c:	18bd8070 	popne	{r4, r5, r6, pc}
   14e30:	e59f2078 	ldr	r2, [pc, #120]	; 14eb0 <spi0_driver_configure+0x11c>
   14e34:	e59f1078 	ldr	r1, [pc, #120]	; 14eb4 <spi0_driver_configure+0x120>
   14e38:	e5940000 	ldr	r0, [r4]
   14e3c:	ebffeecb 	bl	10970 <ioctl@plt>
   14e40:	e3500000 	cmp	r0, #0
   14e44:	18bd8070 	popne	{r4, r5, r6, pc}
   14e48:	e59f2060 	ldr	r2, [pc, #96]	; 14eb0 <spi0_driver_configure+0x11c>
   14e4c:	e59f1064 	ldr	r1, [pc, #100]	; 14eb8 <spi0_driver_configure+0x124>
   14e50:	e5940000 	ldr	r0, [r4]
   14e54:	ebffeec5 	bl	10970 <ioctl@plt>
   14e58:	e3500000 	cmp	r0, #0
   14e5c:	18bd8070 	popne	{r4, r5, r6, pc}
   14e60:	e59f2054 	ldr	r2, [pc, #84]	; 14ebc <spi0_driver_configure+0x128>
   14e64:	e59f1054 	ldr	r1, [pc, #84]	; 14ec0 <spi0_driver_configure+0x12c>
   14e68:	e5940000 	ldr	r0, [r4]
   14e6c:	ebffeebf 	bl	10970 <ioctl@plt>
   14e70:	e3500000 	cmp	r0, #0
   14e74:	18bd8070 	popne	{r4, r5, r6, pc}
   14e78:	e59f203c 	ldr	r2, [pc, #60]	; 14ebc <spi0_driver_configure+0x128>
   14e7c:	e59f1040 	ldr	r1, [pc, #64]	; 14ec4 <spi0_driver_configure+0x130>
   14e80:	e5940000 	ldr	r0, [r4]
   14e84:	ebffeeb9 	bl	10970 <ioctl@plt>
   14e88:	e3500000 	cmp	r0, #0
   14e8c:	03a03001 	moveq	r3, #1
   14e90:	01c401b0 	strheq	r0, [r4, #16]
   14e94:	05c43012 	strbeq	r3, [r4, #18]
   14e98:	e8bd8070 	pop	{r4, r5, r6, pc}
   14e9c:	00027508 	.word	0x00027508
   14ea0:	00016798 	.word	0x00016798
   14ea4:	0002750c 	.word	0x0002750c
   14ea8:	40046b05 	.word	0x40046b05
   14eac:	80046b05 	.word	0x80046b05
   14eb0:	00027510 	.word	0x00027510
   14eb4:	40016b03 	.word	0x40016b03
   14eb8:	80016b03 	.word	0x80016b03
   14ebc:	00027514 	.word	0x00027514
   14ec0:	40046b04 	.word	0x40046b04
   14ec4:	80046b04 	.word	0x80046b04

00014ec8 <spi0_driver_power_off>:
   14ec8:	e92d4010 	push	{r4, lr}
   14ecc:	e59f4018 	ldr	r4, [pc, #24]	; 14eec <spi0_driver_power_off+0x24>
   14ed0:	e5940000 	ldr	r0, [r4]
   14ed4:	e3700001 	cmn	r0, #1
   14ed8:	08bd8010 	popeq	{r4, pc}
   14edc:	ebffeee8 	bl	10a84 <close@plt>
   14ee0:	e3e03000 	mvn	r3, #0
   14ee4:	e5843000 	str	r3, [r4]
   14ee8:	e8bd8010 	pop	{r4, pc}
   14eec:	00027508 	.word	0x00027508

00014ef0 <spi0_driver_bytes_available>:
   14ef0:	eaffff5c 	b	14c68 <SPI0_RX_BUFFER_bytes_available>

00014ef4 <spi0_driver_get_N_bytes>:
   14ef4:	e92d4070 	push	{r4, r5, r6, lr}
   14ef8:	e1a04000 	mov	r4, r0
   14efc:	e1a05001 	mov	r5, r1
   14f00:	ebffff7e 	bl	14d00 <SPI0_RX_BUFFER_start_read>
   14f04:	e1a01005 	mov	r1, r5
   14f08:	e1a00004 	mov	r0, r4
   14f0c:	ebffff87 	bl	14d30 <SPI0_RX_BUFFER_get_N_bytes>
   14f10:	e1a04000 	mov	r4, r0
   14f14:	ebffff8a 	bl	14d44 <SPI0_RX_BUFFER_stop_read>
   14f18:	e6ef0074 	uxtb	r0, r4
   14f1c:	e8bd8070 	pop	{r4, r5, r6, pc}

00014f20 <spi0_driver_set_N_bytes>:
   14f20:	e3500080 	cmp	r0, #128	; 0x80
   14f24:	e92d4070 	push	{r4, r5, r6, lr}
   14f28:	31a04000 	movcc	r4, r0
   14f2c:	23a04080 	movcs	r4, #128	; 0x80
   14f30:	e1a05001 	mov	r5, r1
   14f34:	ebffff18 	bl	14b9c <SPI0_TX_BUFFER_start_write>
   14f38:	e1a00004 	mov	r0, r4
   14f3c:	e1a01005 	mov	r1, r5
   14f40:	ebffff24 	bl	14bd8 <SPI0_TX_BUFFER_add_N_bytes>
   14f44:	ebffff28 	bl	14bec <SPI0_TX_BUFFER_stop_write>
   14f48:	e1a00004 	mov	r0, r4
   14f4c:	e8bd8070 	pop	{r4, r5, r6, pc}

00014f50 <spi0_driver_is_ready_for_tx>:
   14f50:	e59f300c 	ldr	r3, [pc, #12]	; 14f64 <spi0_driver_is_ready_for_tx+0x14>
   14f54:	e5d30011 	ldrb	r0, [r3, #17]
   14f58:	e16f0f10 	clz	r0, r0
   14f5c:	e1a002a0 	lsr	r0, r0, #5
   14f60:	e12fff1e 	bx	lr
   14f64:	00027508 	.word	0x00027508

00014f68 <spi0_driver_is_ready_for_rx>:
   14f68:	e59f300c 	ldr	r3, [pc, #12]	; 14f7c <spi0_driver_is_ready_for_rx+0x14>
   14f6c:	e5d30010 	ldrb	r0, [r3, #16]
   14f70:	e16f0f10 	clz	r0, r0
   14f74:	e1a002a0 	lsr	r0, r0, #5
   14f78:	e12fff1e 	bx	lr
   14f7c:	00027508 	.word	0x00027508

00014f80 <spi0_driver_start_rx>:
   14f80:	e92d4070 	push	{r4, r5, r6, lr}
   14f84:	e24dde12 	sub	sp, sp, #288	; 0x120
   14f88:	e59f5090 	ldr	r5, [pc, #144]	; 15020 <spi0_driver_start_rx+0xa0>
   14f8c:	e5953000 	ldr	r3, [r5]
   14f90:	e3730001 	cmn	r3, #1
   14f94:	0a00001f 	beq	15018 <spi0_driver_start_rx+0x98>
   14f98:	e3500080 	cmp	r0, #128	; 0x80
   14f9c:	31a04000 	movcc	r4, r0
   14fa0:	23a04080 	movcs	r4, #128	; 0x80
   14fa4:	e28d6020 	add	r6, sp, #32
   14fa8:	e1a02004 	mov	r2, r4
   14fac:	e3a01000 	mov	r1, #0
   14fb0:	e1a00006 	mov	r0, r6
   14fb4:	ebffee91 	bl	10a00 <memset@plt>
   14fb8:	e3a03000 	mov	r3, #0
   14fbc:	e58d3018 	str	r3, [sp, #24]
   14fc0:	e58d301c 	str	r3, [sp, #28]
   14fc4:	e58d3004 	str	r3, [sp, #4]
   14fc8:	e58d300c 	str	r3, [sp, #12]
   14fcc:	e595300c 	ldr	r3, [r5, #12]
   14fd0:	e58d6000 	str	r6, [sp]
   14fd4:	e58d3014 	str	r3, [sp, #20]
   14fd8:	e5953008 	ldr	r3, [r5, #8]
   14fdc:	e28d60a0 	add	r6, sp, #160	; 0xa0
   14fe0:	e5cd301a 	strb	r3, [sp, #26]
   14fe4:	e58d6008 	str	r6, [sp, #8]
   14fe8:	e58d4010 	str	r4, [sp, #16]
   14fec:	ebfff79c 	bl	12e64 <SPI0_CS_drive_low>
   14ff0:	e1a0200d 	mov	r2, sp
   14ff4:	e59f1028 	ldr	r1, [pc, #40]	; 15024 <spi0_driver_start_rx+0xa4>
   14ff8:	e5950000 	ldr	r0, [r5]
   14ffc:	ebffee5b 	bl	10970 <ioctl@plt>
   15000:	ebfff79a 	bl	12e70 <SPI0_CS_pull_up>
   15004:	ebffff26 	bl	14ca4 <SPI0_RX_BUFFER_start_write>
   15008:	e1a01006 	mov	r1, r6
   1500c:	e1a00004 	mov	r0, r4
   15010:	ebffff32 	bl	14ce0 <SPI0_RX_BUFFER_add_N_bytes>
   15014:	ebffff36 	bl	14cf4 <SPI0_RX_BUFFER_stop_write>
   15018:	e28dde12 	add	sp, sp, #288	; 0x120
   1501c:	e8bd8070 	pop	{r4, r5, r6, pc}
   15020:	00027508 	.word	0x00027508
   15024:	40206b00 	.word	0x40206b00

00015028 <spi0_driver_wait_for_rx>:
   15028:	e12fff1e 	bx	lr

0001502c <spi0_driver_stop_rx>:
   1502c:	e12fff1e 	bx	lr

00015030 <spi0_driver_start_tx>:
   15030:	e92d4070 	push	{r4, r5, r6, lr}
   15034:	e24dde12 	sub	sp, sp, #288	; 0x120
   15038:	e59f4094 	ldr	r4, [pc, #148]	; 150d4 <spi0_driver_start_tx+0xa4>
   1503c:	e5943000 	ldr	r3, [r4]
   15040:	e3730001 	cmn	r3, #1
   15044:	0a000020 	beq	150cc <spi0_driver_start_tx+0x9c>
   15048:	ebfffec4 	bl	14b60 <SPI0_TX_BUFFER_bytes_available>
   1504c:	e3500000 	cmp	r0, #0
   15050:	0a00001d 	beq	150cc <spi0_driver_start_tx+0x9c>
   15054:	ebfffec1 	bl	14b60 <SPI0_TX_BUFFER_bytes_available>
   15058:	e28d6020 	add	r6, sp, #32
   1505c:	e1a05000 	mov	r5, r0
   15060:	ebfffee4 	bl	14bf8 <SPI0_TX_BUFFER_start_read>
   15064:	e3550080 	cmp	r5, #128	; 0x80
   15068:	31a00005 	movcc	r0, r5
   1506c:	23a00080 	movcs	r0, #128	; 0x80
   15070:	e1a01006 	mov	r1, r6
   15074:	e6ff0070 	uxth	r0, r0
   15078:	ebfffeea 	bl	14c28 <SPI0_TX_BUFFER_get_N_bytes>
   1507c:	e1a05000 	mov	r5, r0
   15080:	ebfffeed 	bl	14c3c <SPI0_TX_BUFFER_stop_read>
   15084:	e3a03000 	mov	r3, #0
   15088:	e28d20a0 	add	r2, sp, #160	; 0xa0
   1508c:	e58d3018 	str	r3, [sp, #24]
   15090:	e1cd20f8 	strd	r2, [sp, #8]
   15094:	e58d301c 	str	r3, [sp, #28]
   15098:	e58d3004 	str	r3, [sp, #4]
   1509c:	e594300c 	ldr	r3, [r4, #12]
   150a0:	e58d6000 	str	r6, [sp]
   150a4:	e58d3014 	str	r3, [sp, #20]
   150a8:	e5943008 	ldr	r3, [r4, #8]
   150ac:	e58d5010 	str	r5, [sp, #16]
   150b0:	e5cd301a 	strb	r3, [sp, #26]
   150b4:	ebfff76a 	bl	12e64 <SPI0_CS_drive_low>
   150b8:	e1a0200d 	mov	r2, sp
   150bc:	e59f1014 	ldr	r1, [pc, #20]	; 150d8 <spi0_driver_start_tx+0xa8>
   150c0:	e5940000 	ldr	r0, [r4]
   150c4:	ebffee29 	bl	10970 <ioctl@plt>
   150c8:	ebfff768 	bl	12e70 <SPI0_CS_pull_up>
   150cc:	e28dde12 	add	sp, sp, #288	; 0x120
   150d0:	e8bd8070 	pop	{r4, r5, r6, pc}
   150d4:	00027508 	.word	0x00027508
   150d8:	40206b00 	.word	0x40206b00

000150dc <spi0_driver_wait_for_tx>:
   150dc:	e12fff1e 	bx	lr

000150e0 <spi0_driver_stop_tx>:
   150e0:	e12fff1e 	bx	lr

000150e4 <spi0_driver_clear_rx_buffer>:
   150e4:	e12fff1e 	bx	lr

000150e8 <spi0_driver_clear_tx_buffer>:
   150e8:	e12fff1e 	bx	lr

000150ec <spi0_driver_set_address>:
   150ec:	e12fff1e 	bx	lr

000150f0 <spi0_driver_mutex_request>:
   150f0:	e92d4010 	push	{r4, lr}
   150f4:	e59f001c 	ldr	r0, [pc, #28]	; 15118 <spi0_driver_mutex_request+0x28>
   150f8:	ebfff7e8 	bl	130a0 <mutex_is_requested>
   150fc:	e3500000 	cmp	r0, #0
   15100:	1a000002 	bne	15110 <spi0_driver_mutex_request+0x20>
   15104:	e59f000c 	ldr	r0, [pc, #12]	; 15118 <spi0_driver_mutex_request+0x28>
   15108:	e8bd4010 	pop	{r4, lr}
   1510c:	eafff7c9 	b	13038 <mutex_request>
   15110:	e3a00000 	mov	r0, #0
   15114:	e8bd8010 	pop	{r4, pc}
   15118:	0002751b 	.word	0x0002751b

0001511c <spi0_driver_mutex_release>:
   1511c:	e1a01000 	mov	r1, r0
   15120:	e59f0000 	ldr	r0, [pc]	; 15128 <spi0_driver_mutex_release+0xc>
   15124:	eafff7cf 	b	13068 <mutex_release>
   15128:	0002751b 	.word	0x0002751b

0001512c <console_write_line>:
   1512c:	eaffee15 	b	10988 <puts@plt>

00015130 <console_write>:
   15130:	e1a01000 	mov	r1, r0
   15134:	e59f0000 	ldr	r0, [pc]	; 1513c <console_write+0xc>
   15138:	eaffedf4 	b	10910 <printf@plt>
   1513c:	000167a7 	.word	0x000167a7

00015140 <console_write_string>:
   15140:	e1a02001 	mov	r2, r1
   15144:	e1a01000 	mov	r1, r0
   15148:	e59f0000 	ldr	r0, [pc]	; 15150 <console_write_string+0x10>
   1514c:	eaffedef 	b	10910 <printf@plt>
   15150:	000167aa 	.word	0x000167aa

00015154 <console_write_number>:
   15154:	e1a01000 	mov	r1, r0
   15158:	e59f0000 	ldr	r0, [pc]	; 15160 <console_write_number+0xc>
   1515c:	eaffedeb 	b	10910 <printf@plt>
   15160:	00016724 	.word	0x00016724

00015164 <console_new_line>:
   15164:	e3a0000a 	mov	r0, #10
   15168:	eaffee27 	b	10a0c <putchar@plt>

0001516c <console_hex_dump>:
   1516c:	e1a03001 	mov	r3, r1
   15170:	e1a01000 	mov	r1, r0
   15174:	e1a00003 	mov	r0, r3
   15178:	eafff89c 	b	133f0 <common_tools_hex_dump>

0001517c <lcd_set_pins>:
   1517c:	e3100080 	tst	r0, #128	; 0x80
   15180:	e92d4010 	push	{r4, lr}
   15184:	e1a04000 	mov	r4, r0
   15188:	0a000013 	beq	151dc <lcd_set_pins+0x60>
   1518c:	ebfff73d 	bl	12e88 <LCD_RS_drive_high>
   15190:	e3140001 	tst	r4, #1
   15194:	0a000012 	beq	151e4 <lcd_set_pins+0x68>
   15198:	ebfff74e 	bl	12ed8 <LCD_D4_drive_high>
   1519c:	e3140002 	tst	r4, #2
   151a0:	0a000011 	beq	151ec <lcd_set_pins+0x70>
   151a4:	ebfff755 	bl	12f00 <LCD_D5_drive_high>
   151a8:	e3140004 	tst	r4, #4
   151ac:	0a000010 	beq	151f4 <lcd_set_pins+0x78>
   151b0:	ebfff75c 	bl	12f28 <LCD_D6_drive_high>
   151b4:	e3140008 	tst	r4, #8
   151b8:	0a00000f 	beq	151fc <lcd_set_pins+0x80>
   151bc:	ebfff763 	bl	12f50 <LCD_D7_drive_high>
   151c0:	e3a00032 	mov	r0, #50	; 0x32
   151c4:	ebffedec 	bl	1097c <usleep@plt>
   151c8:	ebfff738 	bl	12eb0 <LCD_EN_drive_high>
   151cc:	e3a00032 	mov	r0, #50	; 0x32
   151d0:	ebffede9 	bl	1097c <usleep@plt>
   151d4:	e8bd4010 	pop	{r4, lr}
   151d8:	eafff735 	b	12eb4 <LCD_EN_drive_low>
   151dc:	ebfff72a 	bl	12e8c <LCD_RS_drive_low>
   151e0:	eaffffea 	b	15190 <lcd_set_pins+0x14>
   151e4:	ebfff73c 	bl	12edc <LCD_D4_drive_low>
   151e8:	eaffffeb 	b	1519c <lcd_set_pins+0x20>
   151ec:	ebfff744 	bl	12f04 <LCD_D5_drive_low>
   151f0:	eaffffec 	b	151a8 <lcd_set_pins+0x2c>
   151f4:	ebfff74c 	bl	12f2c <LCD_D6_drive_low>
   151f8:	eaffffed 	b	151b4 <lcd_set_pins+0x38>
   151fc:	ebfff754 	bl	12f54 <LCD_D7_drive_low>
   15200:	eaffffee 	b	151c0 <lcd_set_pins+0x44>

00015204 <lcd_write_char>:
   15204:	e92d4010 	push	{r4, lr}
   15208:	e1a04000 	mov	r4, r0
   1520c:	e3e0007f 	mvn	r0, #127	; 0x7f
   15210:	e1800224 	orr	r0, r0, r4, lsr #4
   15214:	e200008f 	and	r0, r0, #143	; 0x8f
   15218:	ebffffd7 	bl	1517c <lcd_set_pins>
   1521c:	e204000f 	and	r0, r4, #15
   15220:	e3800080 	orr	r0, r0, #128	; 0x80
   15224:	e8bd4010 	pop	{r4, lr}
   15228:	eaffffd3 	b	1517c <lcd_set_pins>

0001522c <lcd_init>:
   1522c:	e92d4070 	push	{r4, r5, r6, lr}
   15230:	e59f40e8 	ldr	r4, [pc, #232]	; 15320 <lcd_init+0xf4>
   15234:	e5d43000 	ldrb	r3, [r4]
   15238:	e3530000 	cmp	r3, #0
   1523c:	08bd8070 	popeq	{r4, r5, r6, pc}
   15240:	ebfff711 	bl	12e8c <LCD_RS_drive_low>
   15244:	ebfff71a 	bl	12eb4 <LCD_EN_drive_low>
   15248:	ebfff723 	bl	12edc <LCD_D4_drive_low>
   1524c:	ebfff72c 	bl	12f04 <LCD_D5_drive_low>
   15250:	ebfff735 	bl	12f2c <LCD_D6_drive_low>
   15254:	ebfff73e 	bl	12f54 <LCD_D7_drive_low>
   15258:	e59f00c4 	ldr	r0, [pc, #196]	; 15324 <lcd_init+0xf8>
   1525c:	ebffedc6 	bl	1097c <usleep@plt>
   15260:	e3a00003 	mov	r0, #3
   15264:	ebffffc4 	bl	1517c <lcd_set_pins>
   15268:	e59f00b8 	ldr	r0, [pc, #184]	; 15328 <lcd_init+0xfc>
   1526c:	ebffedc2 	bl	1097c <usleep@plt>
   15270:	e3a00003 	mov	r0, #3
   15274:	ebffffc0 	bl	1517c <lcd_set_pins>
   15278:	e3a00064 	mov	r0, #100	; 0x64
   1527c:	ebffedbe 	bl	1097c <usleep@plt>
   15280:	e3a00003 	mov	r0, #3
   15284:	ebffffbc 	bl	1517c <lcd_set_pins>
   15288:	e59f0098 	ldr	r0, [pc, #152]	; 15328 <lcd_init+0xfc>
   1528c:	ebffedba 	bl	1097c <usleep@plt>
   15290:	e3a00002 	mov	r0, #2
   15294:	ebffffb8 	bl	1517c <lcd_set_pins>
   15298:	e59f0088 	ldr	r0, [pc, #136]	; 15328 <lcd_init+0xfc>
   1529c:	ebffedb6 	bl	1097c <usleep@plt>
   152a0:	e3a00002 	mov	r0, #2
   152a4:	ebffffb4 	bl	1517c <lcd_set_pins>
   152a8:	e3a00008 	mov	r0, #8
   152ac:	ebffffb2 	bl	1517c <lcd_set_pins>
   152b0:	e3a00000 	mov	r0, #0
   152b4:	ebffffb0 	bl	1517c <lcd_set_pins>
   152b8:	e3a0000c 	mov	r0, #12
   152bc:	ebffffae 	bl	1517c <lcd_set_pins>
   152c0:	e3a00000 	mov	r0, #0
   152c4:	ebffffac 	bl	1517c <lcd_set_pins>
   152c8:	e3a00001 	mov	r0, #1
   152cc:	ebffffaa 	bl	1517c <lcd_set_pins>
   152d0:	e3a00000 	mov	r0, #0
   152d4:	ebffffa8 	bl	1517c <lcd_set_pins>
   152d8:	e3a00006 	mov	r0, #6
   152dc:	ebffffa6 	bl	1517c <lcd_set_pins>
   152e0:	e3a00e7d 	mov	r0, #2000	; 0x7d0
   152e4:	ebffeda4 	bl	1097c <usleep@plt>
   152e8:	e3a02010 	mov	r2, #16
   152ec:	e3a01020 	mov	r1, #32
   152f0:	e2840001 	add	r0, r4, #1
   152f4:	ebffedc1 	bl	10a00 <memset@plt>
   152f8:	e3a05000 	mov	r5, #0
   152fc:	e3a02010 	mov	r2, #16
   15300:	e3a01020 	mov	r1, #32
   15304:	e2840012 	add	r0, r4, #18
   15308:	e5c45011 	strb	r5, [r4, #17]
   1530c:	ebffedbb 	bl	10a00 <memset@plt>
   15310:	e3a03001 	mov	r3, #1
   15314:	e5c45022 	strb	r5, [r4, #34]	; 0x22
   15318:	e5c43023 	strb	r3, [r4, #35]	; 0x23
   1531c:	e8bd8070 	pop	{r4, r5, r6, pc}
   15320:	0002761d 	.word	0x0002761d
   15324:	00003a98 	.word	0x00003a98
   15328:	00001388 	.word	0x00001388

0001532c <lcd_deinit>:
   1532c:	e59f3008 	ldr	r3, [pc, #8]	; 1533c <lcd_deinit+0x10>
   15330:	e3a02000 	mov	r2, #0
   15334:	e5c32023 	strb	r2, [r3, #35]	; 0x23
   15338:	e12fff1e 	bx	lr
   1533c:	0002761d 	.word	0x0002761d

00015340 <lcd_set_enabled>:
   15340:	e59f300c 	ldr	r3, [pc, #12]	; 15354 <lcd_set_enabled+0x14>
   15344:	e2900000 	adds	r0, r0, #0
   15348:	13a00001 	movne	r0, #1
   1534c:	e5c30000 	strb	r0, [r3]
   15350:	e12fff1e 	bx	lr
   15354:	0002761d 	.word	0x0002761d

00015358 <lcd_write_line>:
   15358:	e59f30f0 	ldr	r3, [pc, #240]	; 15450 <lcd_write_line+0xf8>
   1535c:	e5d32000 	ldrb	r2, [r3]
   15360:	e3520000 	cmp	r2, #0
   15364:	012fff1e 	bxeq	lr
   15368:	e92d41f0 	push	{r4, r5, r6, r7, r8, lr}
   1536c:	e1a04000 	mov	r4, r0
   15370:	e5d33023 	ldrb	r3, [r3, #35]	; 0x23
   15374:	e3530000 	cmp	r3, #0
   15378:	1a000000 	bne	15380 <lcd_write_line+0x28>
   1537c:	ebffffaa 	bl	1522c <lcd_init>
   15380:	e59f50cc 	ldr	r5, [pc, #204]	; 15454 <lcd_write_line+0xfc>
   15384:	e3a03010 	mov	r3, #16
   15388:	e1a02005 	mov	r2, r5
   1538c:	e1a07005 	mov	r7, r5
   15390:	e5d21011 	ldrb	r1, [r2, #17]
   15394:	e2433001 	sub	r3, r3, #1
   15398:	e21330ff 	ands	r3, r3, #255	; 0xff
   1539c:	e4c21001 	strb	r1, [r2], #1
   153a0:	1afffffa 	bne	15390 <lcd_write_line+0x38>
   153a4:	e1a00004 	mov	r0, r4
   153a8:	ebffed8b 	bl	109dc <strlen@plt>
   153ac:	e59f60a4 	ldr	r6, [pc, #164]	; 15458 <lcd_write_line+0x100>
   153b0:	e1a02006 	mov	r2, r6
   153b4:	e6ef3070 	uxtb	r3, r0
   153b8:	e3530010 	cmp	r3, #16
   153bc:	23a03010 	movcs	r3, #16
   153c0:	e1a00004 	mov	r0, r4
   153c4:	e0841003 	add	r1, r4, r3
   153c8:	e1510000 	cmp	r1, r0
   153cc:	1a000018 	bne	15434 <lcd_write_line+0xdc>
   153d0:	e3a01020 	mov	r1, #32
   153d4:	e6ef2073 	uxtb	r2, r3
   153d8:	e352000f 	cmp	r2, #15
   153dc:	9a000017 	bls	15440 <lcd_write_line+0xe8>
   153e0:	e3a00008 	mov	r0, #8
   153e4:	ebffff64 	bl	1517c <lcd_set_pins>
   153e8:	e3a00000 	mov	r0, #0
   153ec:	ebffff62 	bl	1517c <lcd_set_pins>
   153f0:	e3a04010 	mov	r4, #16
   153f4:	e4d50001 	ldrb	r0, [r5], #1
   153f8:	e2444001 	sub	r4, r4, #1
   153fc:	ebffff80 	bl	15204 <lcd_write_char>
   15400:	e21440ff 	ands	r4, r4, #255	; 0xff
   15404:	1afffffa 	bne	153f4 <lcd_write_line+0x9c>
   15408:	e3a0000c 	mov	r0, #12
   1540c:	ebffff5a 	bl	1517c <lcd_set_pins>
   15410:	e1a00004 	mov	r0, r4
   15414:	ebffff58 	bl	1517c <lcd_set_pins>
   15418:	e2844001 	add	r4, r4, #1
   1541c:	e4d60001 	ldrb	r0, [r6], #1
   15420:	e6ef4074 	uxtb	r4, r4
   15424:	ebffff76 	bl	15204 <lcd_write_char>
   15428:	e3540010 	cmp	r4, #16
   1542c:	1afffff9 	bne	15418 <lcd_write_line+0xc0>
   15430:	e8bd81f0 	pop	{r4, r5, r6, r7, r8, pc}
   15434:	e4d0c001 	ldrb	ip, [r0], #1
   15438:	e4c2c001 	strb	ip, [r2], #1
   1543c:	eaffffe1 	b	153c8 <lcd_write_line+0x70>
   15440:	e0872003 	add	r2, r7, r3
   15444:	e2833001 	add	r3, r3, #1
   15448:	e5c21011 	strb	r1, [r2, #17]
   1544c:	eaffffe0 	b	153d4 <lcd_write_line+0x7c>
   15450:	0002761d 	.word	0x0002761d
   15454:	0002761e 	.word	0x0002761e
   15458:	0002762f 	.word	0x0002762f

0001545c <cfg_file_parser_task_init>:
   1545c:	e59f3008 	ldr	r3, [pc, #8]	; 1546c <cfg_file_parser_task_init+0x10>
   15460:	e3a02000 	mov	r2, #0
   15464:	e5832000 	str	r2, [r3]
   15468:	e12fff1e 	bx	lr
   1546c:	00027644 	.word	0x00027644

00015470 <cfg_file_parser_CFG_FILE_SLOT_CALLBACK>:
   15470:	e92d4010 	push	{r4, lr}
   15474:	e2504000 	subs	r4, r0, #0
   15478:	08bd8010 	popeq	{r4, pc}
   1547c:	ebffed56 	bl	109dc <strlen@plt>
   15480:	e35000ff 	cmp	r0, #255	; 0xff
   15484:	88bd8010 	pophi	{r4, pc}
   15488:	e5d43000 	ldrb	r3, [r4]
   1548c:	e3530000 	cmp	r3, #0
   15490:	08bd8010 	popeq	{r4, pc}
   15494:	e3a020ff 	mov	r2, #255	; 0xff
   15498:	e3a01000 	mov	r1, #0
   1549c:	e59f0028 	ldr	r0, [pc, #40]	; 154cc <cfg_file_parser_CFG_FILE_SLOT_CALLBACK+0x5c>
   154a0:	ebffed56 	bl	10a00 <memset@plt>
   154a4:	e1a00004 	mov	r0, r4
   154a8:	ebffed4b 	bl	109dc <strlen@plt>
   154ac:	e1a01004 	mov	r1, r4
   154b0:	e1a02000 	mov	r2, r0
   154b4:	e59f0010 	ldr	r0, [pc, #16]	; 154cc <cfg_file_parser_CFG_FILE_SLOT_CALLBACK+0x5c>
   154b8:	ebffed20 	bl	10940 <memcpy@plt>
   154bc:	e3a01001 	mov	r1, #1
   154c0:	e59f0008 	ldr	r0, [pc, #8]	; 154d0 <cfg_file_parser_CFG_FILE_SLOT_CALLBACK+0x60>
   154c4:	e8bd4010 	pop	{r4, lr}
   154c8:	eafff6aa 	b	12f78 <module_status_set_u8>
   154cc:	00027648 	.word	0x00027648
   154d0:	00027747 	.word	0x00027747

000154d4 <cfg_file_parser_task_terminate>:
   154d4:	e12fff1e 	bx	lr

000154d8 <cfg_file_parser_task_finish>:
   154d8:	e12fff1e 	bx	lr

000154dc <cfg_file_parser_task_get_schedule_interval>:
   154dc:	e92d4010 	push	{r4, lr}
   154e0:	e3a01001 	mov	r1, #1
   154e4:	e59f0010 	ldr	r0, [pc, #16]	; 154fc <cfg_file_parser_task_get_schedule_interval+0x20>
   154e8:	ebfff6a6 	bl	12f88 <module_status_isset_u8>
   154ec:	e3500000 	cmp	r0, #0
   154f0:	03a00ffa 	moveq	r0, #1000	; 0x3e8
   154f4:	13a00000 	movne	r0, #0
   154f8:	e8bd8010 	pop	{r4, pc}
   154fc:	00027747 	.word	0x00027747

00015500 <cfg_file_parser_task_get_state>:
   15500:	e92d4010 	push	{r4, lr}
   15504:	e3a01001 	mov	r1, #1
   15508:	e59f0010 	ldr	r0, [pc, #16]	; 15520 <cfg_file_parser_task_get_state+0x20>
   1550c:	ebfff69d 	bl	12f88 <module_status_isset_u8>
   15510:	e3500000 	cmp	r0, #0
   15514:	13a00002 	movne	r0, #2
   15518:	03a00000 	moveq	r0, #0
   1551c:	e8bd8010 	pop	{r4, pc}
   15520:	00027747 	.word	0x00027747

00015524 <CFG_PARSER_CFG_COMPLETE_SIGNAL_init>:
   15524:	e59f0000 	ldr	r0, [pc]	; 1552c <CFG_PARSER_CFG_COMPLETE_SIGNAL_init+0x8>
   15528:	eafff781 	b	13334 <signal_slot_init>
   1552c:	00027748 	.word	0x00027748

00015530 <CFG_PARSER_CFG_COMPLETE_SIGNAL_send>:
   15530:	e1a01000 	mov	r1, r0
   15534:	e59f0000 	ldr	r0, [pc]	; 1553c <CFG_PARSER_CFG_COMPLETE_SIGNAL_send+0xc>
   15538:	eafff780 	b	13340 <signal_slot_send>
   1553c:	00027748 	.word	0x00027748

00015540 <CFG_PARSER_CFG_COMPLETE_SIGNAL_set_timeout>:
   15540:	e59f3004 	ldr	r3, [pc, #4]	; 1554c <CFG_PARSER_CFG_COMPLETE_SIGNAL_set_timeout+0xc>
   15544:	e1c300b2 	strh	r0, [r3, #2]
   15548:	e12fff1e 	bx	lr
   1554c:	00027748 	.word	0x00027748

00015550 <CFG_PARSER_CFG_COMPLETE_SIGNAL_connect>:
   15550:	e1a01000 	mov	r1, r0
   15554:	e59f0000 	ldr	r0, [pc]	; 1555c <CFG_PARSER_CFG_COMPLETE_SIGNAL_connect+0xc>
   15558:	eafff798 	b	133c0 <signal_slot_connect>
   1555c:	00027748 	.word	0x00027748

00015560 <CFG_PARSER_NEW_CFG_OBJECT_SIGNAL_init>:
   15560:	e59f0000 	ldr	r0, [pc]	; 15568 <CFG_PARSER_NEW_CFG_OBJECT_SIGNAL_init+0x8>
   15564:	eafff772 	b	13334 <signal_slot_init>
   15568:	00027750 	.word	0x00027750

0001556c <CFG_PARSER_NEW_CFG_OBJECT_SIGNAL_send>:
   1556c:	e1a01000 	mov	r1, r0
   15570:	e59f0000 	ldr	r0, [pc]	; 15578 <CFG_PARSER_NEW_CFG_OBJECT_SIGNAL_send+0xc>
   15574:	eafff771 	b	13340 <signal_slot_send>
   15578:	00027750 	.word	0x00027750

0001557c <CFG_PARSER_NEW_CFG_OBJECT_SIGNAL_set_timeout>:
   1557c:	e59f3004 	ldr	r3, [pc, #4]	; 15588 <CFG_PARSER_NEW_CFG_OBJECT_SIGNAL_set_timeout+0xc>
   15580:	e1c300b2 	strh	r0, [r3, #2]
   15584:	e12fff1e 	bx	lr
   15588:	00027750 	.word	0x00027750

0001558c <CFG_PARSER_NEW_CFG_OBJECT_SIGNAL_connect>:
   1558c:	e1a01000 	mov	r1, r0
   15590:	e59f0000 	ldr	r0, [pc]	; 15598 <CFG_PARSER_NEW_CFG_OBJECT_SIGNAL_connect+0xc>
   15594:	eafff789 	b	133c0 <signal_slot_connect>
   15598:	00027750 	.word	0x00027750

0001559c <CFG_PARSER_CFG_FILE_SLOT_connect>:
   1559c:	e59f0008 	ldr	r0, [pc, #8]	; 155ac <CFG_PARSER_CFG_FILE_SLOT_connect+0x10>
   155a0:	e59f3008 	ldr	r3, [pc, #8]	; 155b0 <CFG_PARSER_CFG_FILE_SLOT_connect+0x14>
   155a4:	e5a03114 	str	r3, [r0, #276]!	; 0x114
   155a8:	ea0001a1 	b	15c34 <CLI_CONFIGURATION_SIGNAL_connect>
   155ac:	00027644 	.word	0x00027644
   155b0:	00015470 	.word	0x00015470

000155b4 <CFG_FILE_open>:
   155b4:	e59f0000 	ldr	r0, [pc]	; 155bc <CFG_FILE_open+0x8>
   155b8:	ea0000eb 	b	1596c <file_open>
   155bc:	00027760 	.word	0x00027760

000155c0 <CFG_FILE_is_open>:
   155c0:	e59f0000 	ldr	r0, [pc]	; 155c8 <CFG_FILE_is_open+0x8>
   155c4:	ea0000b3 	b	15898 <file_is_open>
   155c8:	00027760 	.word	0x00027760

000155cc <CFG_FILE_open_path>:
   155cc:	e92d4010 	push	{r4, lr}
   155d0:	e1a01000 	mov	r1, r0
   155d4:	e59f4010 	ldr	r4, [pc, #16]	; 155ec <CFG_FILE_open_path+0x20>
   155d8:	e1a00004 	mov	r0, r4
   155dc:	eb000091 	bl	15828 <file_set_path>
   155e0:	e1a00004 	mov	r0, r4
   155e4:	e8bd4010 	pop	{r4, lr}
   155e8:	ea0000df 	b	1596c <file_open>
   155ec:	00027760 	.word	0x00027760

000155f0 <CFG_FILE_set_path>:
   155f0:	e1a01000 	mov	r1, r0
   155f4:	e59f0000 	ldr	r0, [pc]	; 155fc <CFG_FILE_set_path+0xc>
   155f8:	ea00008a 	b	15828 <file_set_path>
   155fc:	00027760 	.word	0x00027760

00015600 <CFG_FILE_close>:
   15600:	e59f0000 	ldr	r0, [pc]	; 15608 <CFG_FILE_close+0x8>
   15604:	ea0000c2 	b	15914 <file_close>
   15608:	00027760 	.word	0x00027760

0001560c <CFG_FILE_has_changed>:
   1560c:	e59f0000 	ldr	r0, [pc]	; 15614 <CFG_FILE_has_changed+0x8>
   15610:	ea000091 	b	1585c <file_has_changed>
   15614:	00027760 	.word	0x00027760

00015618 <CFG_FILE_is_existing>:
   15618:	e59f0000 	ldr	r0, [pc]	; 15620 <CFG_FILE_is_existing+0x8>
   1561c:	ea0000a1 	b	158a8 <file_is_existing>
   15620:	00027760 	.word	0x00027760

00015624 <CFG_FILE_is_readable>:
   15624:	e59f0000 	ldr	r0, [pc]	; 1562c <CFG_FILE_is_readable+0x8>
   15628:	ea0000a6 	b	158c8 <file_is_readable>
   1562c:	00027760 	.word	0x00027760

00015630 <CFG_FILE_get_size>:
   15630:	e59f0000 	ldr	r0, [pc]	; 15638 <CFG_FILE_get_size+0x8>
   15634:	ea0000a5 	b	158d0 <file_get_size>
   15638:	00027760 	.word	0x00027760

0001563c <CFG_FILE_create>:
   1563c:	e59f0000 	ldr	r0, [pc]	; 15644 <CFG_FILE_create+0x8>
   15640:	ea0000bd 	b	1593c <file_create>
   15644:	00027760 	.word	0x00027760

00015648 <CFG_FILE_delete>:
   15648:	e59f0000 	ldr	r0, [pc]	; 15650 <CFG_FILE_delete+0x8>
   1564c:	ea0000a8 	b	158f4 <file_delete>
   15650:	00027760 	.word	0x00027760

00015654 <CFG_FILE_rename>:
   15654:	e1a01000 	mov	r1, r0
   15658:	e59f0000 	ldr	r0, [pc]	; 15660 <CFG_FILE_rename+0xc>
   1565c:	ea0000a8 	b	15904 <file_rename>
   15660:	00027760 	.word	0x00027760

00015664 <CFG_FILE_read_next_line>:
   15664:	e1a02001 	mov	r2, r1
   15668:	e1a01000 	mov	r1, r0
   1566c:	e59f0000 	ldr	r0, [pc]	; 15674 <CFG_FILE_read_next_line+0x10>
   15670:	ea0000e8 	b	15a18 <file_read_next_line>
   15674:	00027760 	.word	0x00027760

00015678 <cfg_file_parser_parse_configuration_file>:
   15678:	e92d4010 	push	{r4, lr}
   1567c:	e24ddfc2 	sub	sp, sp, #776	; 0x308
   15680:	e28d3f42 	add	r3, sp, #264	; 0x108
   15684:	e28340ff 	add	r4, r3, #255	; 0xff
   15688:	e3a010ff 	mov	r1, #255	; 0xff
   1568c:	e28d0008 	add	r0, sp, #8
   15690:	ebfffff3 	bl	15664 <CFG_FILE_read_next_line>
   15694:	e3500000 	cmp	r0, #0
   15698:	da00001a 	ble	15708 <cfg_file_parser_parse_configuration_file+0x90>
   1569c:	e28d0008 	add	r0, sp, #8
   156a0:	ebfff7ac 	bl	13558 <common_tools_string_trim>
   156a4:	e5dd3008 	ldrb	r3, [sp, #8]
   156a8:	e3530000 	cmp	r3, #0
   156ac:	13530023 	cmpne	r3, #35	; 0x23
   156b0:	0afffff4 	beq	15688 <cfg_file_parser_parse_configuration_file+0x10>
   156b4:	e28d1008 	add	r1, sp, #8
   156b8:	e3a0003d 	mov	r0, #61	; 0x3d
   156bc:	ebfff790 	bl	13504 <common_tools_string_get_char_count>
   156c0:	e3500001 	cmp	r0, #1
   156c4:	1affffef 	bne	15688 <cfg_file_parser_parse_configuration_file+0x10>
   156c8:	e3a030ff 	mov	r3, #255	; 0xff
   156cc:	e58d3004 	str	r3, [sp, #4]
   156d0:	e58d4000 	str	r4, [sp]
   156d4:	e28d2f42 	add	r2, sp, #264	; 0x108
   156d8:	e28d1008 	add	r1, sp, #8
   156dc:	e3a0003d 	mov	r0, #61	; 0x3d
   156e0:	ebfff7cb 	bl	13614 <common_tools_string_split>
   156e4:	e5dd3108 	ldrb	r3, [sp, #264]	; 0x108
   156e8:	e3530000 	cmp	r3, #0
   156ec:	0affffe5 	beq	15688 <cfg_file_parser_parse_configuration_file+0x10>
   156f0:	e5dd3207 	ldrb	r3, [sp, #519]	; 0x207
   156f4:	e3530000 	cmp	r3, #0
   156f8:	0affffe2 	beq	15688 <cfg_file_parser_parse_configuration_file+0x10>
   156fc:	e28d0f42 	add	r0, sp, #264	; 0x108
   15700:	ebffff99 	bl	1556c <CFG_PARSER_NEW_CFG_OBJECT_SIGNAL_send>
   15704:	eaffffdf 	b	15688 <cfg_file_parser_parse_configuration_file+0x10>
   15708:	e3700001 	cmn	r0, #1
   1570c:	1affffdd 	bne	15688 <cfg_file_parser_parse_configuration_file+0x10>
   15710:	e3a00000 	mov	r0, #0
   15714:	ebffff85 	bl	15530 <CFG_PARSER_CFG_COMPLETE_SIGNAL_send>
   15718:	e28ddfc2 	add	sp, sp, #776	; 0x308
   1571c:	e8bd8010 	pop	{r4, pc}

00015720 <cfg_file_parser_task_run>:
   15720:	e92d4070 	push	{r4, r5, r6, lr}
   15724:	e59f4078 	ldr	r4, [pc, #120]	; 157a4 <cfg_file_parser_task_run+0x84>
   15728:	e5943000 	ldr	r3, [r4]
   1572c:	e3530001 	cmp	r3, #1
   15730:	0a000010 	beq	15778 <cfg_file_parser_task_run+0x58>
   15734:	e3530000 	cmp	r3, #0
   15738:	0a000003 	beq	1574c <cfg_file_parser_task_run+0x2c>
   1573c:	e3530002 	cmp	r3, #2
   15740:	0a000013 	beq	15794 <cfg_file_parser_task_run+0x74>
   15744:	e3a03001 	mov	r3, #1
   15748:	e5843000 	str	r3, [r4]
   1574c:	e59f5054 	ldr	r5, [pc, #84]	; 157a8 <cfg_file_parser_task_run+0x88>
   15750:	e3a01001 	mov	r1, #1
   15754:	e1a00005 	mov	r0, r5
   15758:	ebfff60a 	bl	12f88 <module_status_isset_u8>
   1575c:	e3500000 	cmp	r0, #0
   15760:	08bd8070 	popeq	{r4, r5, r6, pc}
   15764:	e3a01001 	mov	r1, #1
   15768:	e1a00005 	mov	r0, r5
   1576c:	ebfff60a 	bl	12f9c <module_status_unset_u8>
   15770:	e3a03001 	mov	r3, #1
   15774:	e5843000 	str	r3, [r4]
   15778:	e59f002c 	ldr	r0, [pc, #44]	; 157ac <cfg_file_parser_task_run+0x8c>
   1577c:	ebffff92 	bl	155cc <CFG_FILE_open_path>
   15780:	e3500000 	cmp	r0, #0
   15784:	03a03001 	moveq	r3, #1
   15788:	0a000003 	beq	1579c <cfg_file_parser_task_run+0x7c>
   1578c:	e3a03002 	mov	r3, #2
   15790:	e5843000 	str	r3, [r4]
   15794:	ebffffb7 	bl	15678 <cfg_file_parser_parse_configuration_file>
   15798:	e3a03000 	mov	r3, #0
   1579c:	e5843000 	str	r3, [r4]
   157a0:	e8bd8070 	pop	{r4, r5, r6, pc}
   157a4:	00027644 	.word	0x00027644
   157a8:	00027747 	.word	0x00027747
   157ac:	00027648 	.word	0x00027648

000157b0 <CFG_FILE_read_line>:
   157b0:	e1a03002 	mov	r3, r2
   157b4:	e1a02000 	mov	r2, r0
   157b8:	e59f0000 	ldr	r0, [pc]	; 157c0 <CFG_FILE_read_line+0x10>
   157bc:	ea000099 	b	15a28 <file_read_specific_line>
   157c0:	00027760 	.word	0x00027760

000157c4 <CFG_FILE_append_line>:
   157c4:	e1a01000 	mov	r1, r0
   157c8:	e59f0000 	ldr	r0, [pc]	; 157d0 <CFG_FILE_append_line+0xc>
   157cc:	ea0000aa 	b	15a7c <file_append_line>
   157d0:	00027760 	.word	0x00027760

000157d4 <CFG_FILE_get_path>:
   157d4:	e59f0000 	ldr	r0, [pc]	; 157dc <CFG_FILE_get_path+0x8>
   157d8:	ea00002d 	b	15894 <file_get_path>
   157dc:	00027760 	.word	0x00027760

000157e0 <cfg_file_parser_init>:
   157e0:	e92d4070 	push	{r4, r5, r6, lr}
   157e4:	ebffff5d 	bl	15560 <CFG_PARSER_NEW_CFG_OBJECT_SIGNAL_init>
   157e8:	e59f4024 	ldr	r4, [pc, #36]	; 15814 <cfg_file_parser_init+0x34>
   157ec:	e3a05000 	mov	r5, #0
   157f0:	e2843f43 	add	r3, r4, #268	; 0x10c
   157f4:	e2844f41 	add	r4, r4, #260	; 0x104
   157f8:	e1c350b2 	strh	r5, [r3, #2]
   157fc:	ebffff48 	bl	15524 <CFG_PARSER_CFG_COMPLETE_SIGNAL_init>
   15800:	e1c450b2 	strh	r5, [r4, #2]
   15804:	ebffff64 	bl	1559c <CFG_PARSER_CFG_FILE_SLOT_connect>
   15808:	e59f0008 	ldr	r0, [pc, #8]	; 15818 <cfg_file_parser_init+0x38>
   1580c:	e8bd4070 	pop	{r4, r5, r6, lr}
   15810:	eafff93c 	b	13d08 <mcu_task_controller_register_task>
   15814:	00027644 	.word	0x00027644
   15818:	00027304 	.word	0x00027304

0001581c <cfg_file_parser_task_background_run>:
   1581c:	e12fff1e 	bx	lr

00015820 <cfg_file_parser_task_sleep>:
   15820:	e12fff1e 	bx	lr

00015824 <cfg_file_parser_task_wakeup>:
   15824:	e12fff1e 	bx	lr

00015828 <file_set_path>:
   15828:	e92d4070 	push	{r4, r5, r6, lr}
   1582c:	e3a02c01 	mov	r2, #256	; 0x100
   15830:	e1a04001 	mov	r4, r1
   15834:	e3a01000 	mov	r1, #0
   15838:	e1a05000 	mov	r5, r0
   1583c:	ebffec6f 	bl	10a00 <memset@plt>
   15840:	e1a00004 	mov	r0, r4
   15844:	ebffec64 	bl	109dc <strlen@plt>
   15848:	e1a01004 	mov	r1, r4
   1584c:	e1a02000 	mov	r2, r0
   15850:	e1a00005 	mov	r0, r5
   15854:	e8bd4070 	pop	{r4, r5, r6, lr}
   15858:	eaffec38 	b	10940 <memcpy@plt>

0001585c <file_has_changed>:
   1585c:	e92d4010 	push	{r4, lr}
   15860:	e24dd058 	sub	sp, sp, #88	; 0x58
   15864:	e1a0100d 	mov	r1, sp
   15868:	e1a04000 	mov	r4, r0
   1586c:	eb00031c 	bl	164e4 <__stat>
   15870:	e3500000 	cmp	r0, #0
   15874:	0a000004 	beq	1588c <file_has_changed+0x30>
   15878:	e59d0040 	ldr	r0, [sp, #64]	; 0x40
   1587c:	e594310c 	ldr	r3, [r4, #268]	; 0x10c
   15880:	e1500003 	cmp	r0, r3
   15884:	93a00000 	movls	r0, #0
   15888:	83a00001 	movhi	r0, #1
   1588c:	e28dd058 	add	sp, sp, #88	; 0x58
   15890:	e8bd8010 	pop	{r4, pc}

00015894 <file_get_path>:
   15894:	e12fff1e 	bx	lr

00015898 <file_is_open>:
   15898:	e5900100 	ldr	r0, [r0, #256]	; 0x100
   1589c:	e2900000 	adds	r0, r0, #0
   158a0:	13a00001 	movne	r0, #1
   158a4:	e12fff1e 	bx	lr

000158a8 <file_is_existing>:
   158a8:	e52de004 	push	{lr}		; (str lr, [sp, #-4]!)
   158ac:	e24dd05c 	sub	sp, sp, #92	; 0x5c
   158b0:	e1a0100d 	mov	r1, sp
   158b4:	eb00030a 	bl	164e4 <__stat>
   158b8:	e1e00000 	mvn	r0, r0
   158bc:	e1a00fa0 	lsr	r0, r0, #31
   158c0:	e28dd05c 	add	sp, sp, #92	; 0x5c
   158c4:	e49df004 	pop	{pc}		; (ldr pc, [sp], #4)

000158c8 <file_is_readable>:
   158c8:	e3a00001 	mov	r0, #1
   158cc:	e12fff1e 	bx	lr

000158d0 <file_get_size>:
   158d0:	e52de004 	push	{lr}		; (str lr, [sp, #-4]!)
   158d4:	e24dd05c 	sub	sp, sp, #92	; 0x5c
   158d8:	e1a0100d 	mov	r1, sp
   158dc:	eb000300 	bl	164e4 <__stat>
   158e0:	e3500000 	cmp	r0, #0
   158e4:	b3a00000 	movlt	r0, #0
   158e8:	a59d002c 	ldrge	r0, [sp, #44]	; 0x2c
   158ec:	e28dd05c 	add	sp, sp, #92	; 0x5c
   158f0:	e49df004 	pop	{pc}		; (ldr pc, [sp], #4)

000158f4 <file_delete>:
   158f4:	e92d4010 	push	{r4, lr}
   158f8:	ebffec52 	bl	10a48 <remove@plt>
   158fc:	e6ef0070 	uxtb	r0, r0
   15900:	e8bd8010 	pop	{r4, pc}

00015904 <file_rename>:
   15904:	e92d4010 	push	{r4, lr}
   15908:	ebffec2a 	bl	109b8 <rename@plt>
   1590c:	e6ef0070 	uxtb	r0, r0
   15910:	e8bd8010 	pop	{r4, pc}

00015914 <file_close>:
   15914:	e5903100 	ldr	r3, [r0, #256]	; 0x100
   15918:	e3530000 	cmp	r3, #0
   1591c:	012fff1e 	bxeq	lr
   15920:	e92d4010 	push	{r4, lr}
   15924:	e1a04000 	mov	r4, r0
   15928:	e1a00003 	mov	r0, r3
   1592c:	ebffec42 	bl	10a3c <fclose@plt>
   15930:	e3a03000 	mov	r3, #0
   15934:	e5843100 	str	r3, [r4, #256]	; 0x100
   15938:	e8bd8010 	pop	{r4, pc}

0001593c <file_create>:
   1593c:	e92d4010 	push	{r4, lr}
   15940:	e1a04000 	mov	r4, r0
   15944:	e59f101c 	ldr	r1, [pc, #28]	; 15968 <file_create+0x2c>
   15948:	ebffebf3 	bl	1091c <fopen@plt>
   1594c:	e3500000 	cmp	r0, #0
   15950:	e5840100 	str	r0, [r4, #256]	; 0x100
   15954:	08bd8010 	popeq	{r4, pc}
   15958:	e1a00004 	mov	r0, r4
   1595c:	ebffffec 	bl	15914 <file_close>
   15960:	e3a00001 	mov	r0, #1
   15964:	e8bd8010 	pop	{r4, pc}
   15968:	000167b1 	.word	0x000167b1

0001596c <file_open>:
   1596c:	e92d4010 	push	{r4, lr}
   15970:	e1a04000 	mov	r4, r0
   15974:	ebffffe6 	bl	15914 <file_close>
   15978:	e59f1014 	ldr	r1, [pc, #20]	; 15994 <file_open+0x28>
   1597c:	e1a00004 	mov	r0, r4
   15980:	ebffebe5 	bl	1091c <fopen@plt>
   15984:	e5840100 	str	r0, [r4, #256]	; 0x100
   15988:	e2900000 	adds	r0, r0, #0
   1598c:	13a00001 	movne	r0, #1
   15990:	e8bd8010 	pop	{r4, pc}
   15994:	000165d8 	.word	0x000165d8

00015998 <file_read_line>:
   15998:	e92d41f0 	push	{r4, r5, r6, r7, r8, lr}
   1599c:	e2524000 	subs	r4, r2, #0
   159a0:	0a00001a 	beq	15a10 <file_read_line+0x78>
   159a4:	e1a08000 	mov	r8, r0
   159a8:	e1a06001 	mov	r6, r1
   159ac:	ebffec07 	bl	109d0 <feof@plt>
   159b0:	e2505000 	subs	r5, r0, #0
   159b4:	02444001 	subeq	r4, r4, #1
   159b8:	0a000007 	beq	159dc <file_read_line+0x44>
   159bc:	e3e00000 	mvn	r0, #0
   159c0:	e8bd81f0 	pop	{r4, r5, r6, r7, r8, pc}
   159c4:	e2402020 	sub	r2, r0, #32
   159c8:	e6ef2072 	uxtb	r2, r2
   159cc:	e35200de 	cmp	r2, #222	; 0xde
   159d0:	8a000002 	bhi	159e0 <file_read_line+0x48>
   159d4:	e2855001 	add	r5, r5, #1
   159d8:	e7c60007 	strb	r0, [r6, r7]
   159dc:	e6ff7075 	uxth	r7, r5
   159e0:	e1a00008 	mov	r0, r8
   159e4:	ebffec23 	bl	10a78 <getc@plt>
   159e8:	e6ef0070 	uxtb	r0, r0
   159ec:	e35000ff 	cmp	r0, #255	; 0xff
   159f0:	0a000002 	beq	15a00 <file_read_line+0x68>
   159f4:	e350000a 	cmp	r0, #10
   159f8:	11570004 	cmpne	r7, r4
   159fc:	1afffff0 	bne	159c4 <file_read_line+0x2c>
   15a00:	e3a03000 	mov	r3, #0
   15a04:	e7c63007 	strb	r3, [r6, r7]
   15a08:	e6bf0075 	sxth	r0, r5
   15a0c:	e8bd81f0 	pop	{r4, r5, r6, r7, r8, pc}
   15a10:	e1a00004 	mov	r0, r4
   15a14:	e8bd81f0 	pop	{r4, r5, r6, r7, r8, pc}

00015a18 <file_read_next_line>:
   15a18:	e5900100 	ldr	r0, [r0, #256]	; 0x100
   15a1c:	e3500000 	cmp	r0, #0
   15a20:	012fff1e 	bxeq	lr
   15a24:	eaffffdb 	b	15998 <file_read_line>

00015a28 <file_read_specific_line>:
   15a28:	e92d41f0 	push	{r4, r5, r6, r7, r8, lr}
   15a2c:	e2514000 	subs	r4, r1, #0
   15a30:	0a00000f 	beq	15a74 <file_read_specific_line+0x4c>
   15a34:	e1a06002 	mov	r6, r2
   15a38:	e5902100 	ldr	r2, [r0, #256]	; 0x100
   15a3c:	e1a05000 	mov	r5, r0
   15a40:	e3520000 	cmp	r2, #0
   15a44:	e1a07003 	mov	r7, r3
   15a48:	01a04002 	moveq	r4, r2
   15a4c:	0a000008 	beq	15a74 <file_read_specific_line+0x4c>
   15a50:	e2444001 	sub	r4, r4, #1
   15a54:	e1a02007 	mov	r2, r7
   15a58:	e1a01006 	mov	r1, r6
   15a5c:	e5950100 	ldr	r0, [r5, #256]	; 0x100
   15a60:	e6ff4074 	uxth	r4, r4
   15a64:	ebffffcb 	bl	15998 <file_read_line>
   15a68:	e3540000 	cmp	r4, #0
   15a6c:	1afffff7 	bne	15a50 <file_read_specific_line+0x28>
   15a70:	e6ff4070 	uxth	r4, r0
   15a74:	e1a00004 	mov	r0, r4
   15a78:	e8bd81f0 	pop	{r4, r5, r6, r7, r8, pc}

00015a7c <file_append_line>:
   15a7c:	e92d4070 	push	{r4, r5, r6, lr}
   15a80:	e1a05000 	mov	r5, r0
   15a84:	e1a04001 	mov	r4, r1
   15a88:	ebffffa1 	bl	15914 <file_close>
   15a8c:	e59f1040 	ldr	r1, [pc, #64]	; 15ad4 <file_append_line+0x58>
   15a90:	e1a00005 	mov	r0, r5
   15a94:	ebffeba0 	bl	1091c <fopen@plt>
   15a98:	e3500000 	cmp	r0, #0
   15a9c:	e5850100 	str	r0, [r5, #256]	; 0x100
   15aa0:	08bd8070 	popeq	{r4, r5, r6, pc}
   15aa4:	e1a02004 	mov	r2, r4
   15aa8:	e59f1028 	ldr	r1, [pc, #40]	; 15ad8 <file_append_line+0x5c>
   15aac:	ebffebcd 	bl	109e8 <fprintf@plt>
   15ab0:	e1a04000 	mov	r4, r0
   15ab4:	e5950100 	ldr	r0, [r5, #256]	; 0x100
   15ab8:	ebffebdf 	bl	10a3c <fclose@plt>
   15abc:	e3a03000 	mov	r3, #0
   15ac0:	e1540003 	cmp	r4, r3
   15ac4:	e5853100 	str	r3, [r5, #256]	; 0x100
   15ac8:	b3a00000 	movlt	r0, #0
   15acc:	a3a00001 	movge	r0, #1
   15ad0:	e8bd8070 	pop	{r4, r5, r6, pc}
   15ad4:	000167b3 	.word	0x000167b3
   15ad8:	000167b5 	.word	0x000167b5

00015adc <CLI_INVALID_ARGUMENT_SIGNAL_init>:
   15adc:	e59f0000 	ldr	r0, [pc]	; 15ae4 <CLI_INVALID_ARGUMENT_SIGNAL_init+0x8>
   15ae0:	eafff613 	b	13334 <signal_slot_init>
   15ae4:	00027870 	.word	0x00027870

00015ae8 <CLI_INVALID_ARGUMENT_SIGNAL_send>:
   15ae8:	e1a01000 	mov	r1, r0
   15aec:	e59f0000 	ldr	r0, [pc]	; 15af4 <CLI_INVALID_ARGUMENT_SIGNAL_send+0xc>
   15af0:	eafff612 	b	13340 <signal_slot_send>
   15af4:	00027870 	.word	0x00027870

00015af8 <CLI_INVALID_ARGUMENT_SIGNAL_set_timeout>:
   15af8:	e59f3004 	ldr	r3, [pc, #4]	; 15b04 <CLI_INVALID_ARGUMENT_SIGNAL_set_timeout+0xc>
   15afc:	e1c300b2 	strh	r0, [r3, #2]
   15b00:	e12fff1e 	bx	lr
   15b04:	00027870 	.word	0x00027870

00015b08 <CLI_INVALID_ARGUMENT_SIGNAL_connect>:
   15b08:	e1a01000 	mov	r1, r0
   15b0c:	e59f0000 	ldr	r0, [pc]	; 15b14 <CLI_INVALID_ARGUMENT_SIGNAL_connect+0xc>
   15b10:	eafff62a 	b	133c0 <signal_slot_connect>
   15b14:	00027870 	.word	0x00027870

00015b18 <CLI_INVALID_PARAMETER_SIGNAL_init>:
   15b18:	e59f0000 	ldr	r0, [pc]	; 15b20 <CLI_INVALID_PARAMETER_SIGNAL_init+0x8>
   15b1c:	eafff604 	b	13334 <signal_slot_init>
   15b20:	00027878 	.word	0x00027878

00015b24 <CLI_INVALID_PARAMETER_SIGNAL_send>:
   15b24:	e1a01000 	mov	r1, r0
   15b28:	e59f0000 	ldr	r0, [pc]	; 15b30 <CLI_INVALID_PARAMETER_SIGNAL_send+0xc>
   15b2c:	eafff603 	b	13340 <signal_slot_send>
   15b30:	00027878 	.word	0x00027878

00015b34 <CLI_INVALID_PARAMETER_SIGNAL_set_timeout>:
   15b34:	e59f3004 	ldr	r3, [pc, #4]	; 15b40 <CLI_INVALID_PARAMETER_SIGNAL_set_timeout+0xc>
   15b38:	e1c300ba 	strh	r0, [r3, #10]
   15b3c:	e12fff1e 	bx	lr
   15b40:	00027870 	.word	0x00027870

00015b44 <CLI_INVALID_PARAMETER_SIGNAL_connect>:
   15b44:	e1a01000 	mov	r1, r0
   15b48:	e59f0000 	ldr	r0, [pc]	; 15b50 <CLI_INVALID_PARAMETER_SIGNAL_connect+0xc>
   15b4c:	eafff61b 	b	133c0 <signal_slot_connect>
   15b50:	00027878 	.word	0x00027878

00015b54 <CLI_HELP_REQUESTED_SIGNAL_init>:
   15b54:	e59f0000 	ldr	r0, [pc]	; 15b5c <CLI_HELP_REQUESTED_SIGNAL_init+0x8>
   15b58:	eafff5f5 	b	13334 <signal_slot_init>
   15b5c:	00027880 	.word	0x00027880

00015b60 <CLI_HELP_REQUESTED_SIGNAL_send>:
   15b60:	e1a01000 	mov	r1, r0
   15b64:	e59f0000 	ldr	r0, [pc]	; 15b6c <CLI_HELP_REQUESTED_SIGNAL_send+0xc>
   15b68:	eafff5f4 	b	13340 <signal_slot_send>
   15b6c:	00027880 	.word	0x00027880

00015b70 <CLI_HELP_REQUESTED_SIGNAL_set_timeout>:
   15b70:	e59f3004 	ldr	r3, [pc, #4]	; 15b7c <CLI_HELP_REQUESTED_SIGNAL_set_timeout+0xc>
   15b74:	e1c301b2 	strh	r0, [r3, #18]
   15b78:	e12fff1e 	bx	lr
   15b7c:	00027870 	.word	0x00027870

00015b80 <CLI_HELP_REQUESTED_SIGNAL_connect>:
   15b80:	e1a01000 	mov	r1, r0
   15b84:	e59f0000 	ldr	r0, [pc]	; 15b8c <CLI_HELP_REQUESTED_SIGNAL_connect+0xc>
   15b88:	eafff60c 	b	133c0 <signal_slot_connect>
   15b8c:	00027880 	.word	0x00027880

00015b90 <CLI_LCD_ACTIVATED_SIGNAL_init>:
   15b90:	e59f0000 	ldr	r0, [pc]	; 15b98 <CLI_LCD_ACTIVATED_SIGNAL_init+0x8>
   15b94:	eafff5e6 	b	13334 <signal_slot_init>
   15b98:	00027888 	.word	0x00027888

00015b9c <CLI_LCD_ACTIVATED_SIGNAL_send>:
   15b9c:	e1a01000 	mov	r1, r0
   15ba0:	e59f0000 	ldr	r0, [pc]	; 15ba8 <CLI_LCD_ACTIVATED_SIGNAL_send+0xc>
   15ba4:	eafff5e5 	b	13340 <signal_slot_send>
   15ba8:	00027888 	.word	0x00027888

00015bac <CLI_LCD_ACTIVATED_SIGNAL_set_timeout>:
   15bac:	e59f3004 	ldr	r3, [pc, #4]	; 15bb8 <CLI_LCD_ACTIVATED_SIGNAL_set_timeout+0xc>
   15bb0:	e1c301ba 	strh	r0, [r3, #26]
   15bb4:	e12fff1e 	bx	lr
   15bb8:	00027870 	.word	0x00027870

00015bbc <CLI_LCD_ACTIVATED_SIGNAL_connect>:
   15bbc:	e1a01000 	mov	r1, r0
   15bc0:	e59f0000 	ldr	r0, [pc]	; 15bc8 <CLI_LCD_ACTIVATED_SIGNAL_connect+0xc>
   15bc4:	eafff5fd 	b	133c0 <signal_slot_connect>
   15bc8:	00027888 	.word	0x00027888

00015bcc <CLI_CONSOLE_ACTIVATED_SIGNAL_init>:
   15bcc:	e59f0000 	ldr	r0, [pc]	; 15bd4 <CLI_CONSOLE_ACTIVATED_SIGNAL_init+0x8>
   15bd0:	eafff5d7 	b	13334 <signal_slot_init>
   15bd4:	00027890 	.word	0x00027890

00015bd8 <CLI_CONSOLE_ACTIVATED_SIGNAL_send>:
   15bd8:	e1a01000 	mov	r1, r0
   15bdc:	e59f0000 	ldr	r0, [pc]	; 15be4 <CLI_CONSOLE_ACTIVATED_SIGNAL_send+0xc>
   15be0:	eafff5d6 	b	13340 <signal_slot_send>
   15be4:	00027890 	.word	0x00027890

00015be8 <CLI_CONSOLE_ACTIVATED_SIGNAL_set_timeout>:
   15be8:	e59f3004 	ldr	r3, [pc, #4]	; 15bf4 <CLI_CONSOLE_ACTIVATED_SIGNAL_set_timeout+0xc>
   15bec:	e1c302b2 	strh	r0, [r3, #34]	; 0x22
   15bf0:	e12fff1e 	bx	lr
   15bf4:	00027870 	.word	0x00027870

00015bf8 <CLI_CONSOLE_ACTIVATED_SIGNAL_connect>:
   15bf8:	e1a01000 	mov	r1, r0
   15bfc:	e59f0000 	ldr	r0, [pc]	; 15c04 <CLI_CONSOLE_ACTIVATED_SIGNAL_connect+0xc>
   15c00:	eafff5ee 	b	133c0 <signal_slot_connect>
   15c04:	00027890 	.word	0x00027890

00015c08 <CLI_CONFIGURATION_SIGNAL_init>:
   15c08:	e59f0000 	ldr	r0, [pc]	; 15c10 <CLI_CONFIGURATION_SIGNAL_init+0x8>
   15c0c:	eafff5c8 	b	13334 <signal_slot_init>
   15c10:	00027898 	.word	0x00027898

00015c14 <CLI_CONFIGURATION_SIGNAL_send>:
   15c14:	e1a01000 	mov	r1, r0
   15c18:	e59f0000 	ldr	r0, [pc]	; 15c20 <CLI_CONFIGURATION_SIGNAL_send+0xc>
   15c1c:	eafff5c7 	b	13340 <signal_slot_send>
   15c20:	00027898 	.word	0x00027898

00015c24 <CLI_CONFIGURATION_SIGNAL_set_timeout>:
   15c24:	e59f3004 	ldr	r3, [pc, #4]	; 15c30 <CLI_CONFIGURATION_SIGNAL_set_timeout+0xc>
   15c28:	e1c302ba 	strh	r0, [r3, #42]	; 0x2a
   15c2c:	e12fff1e 	bx	lr
   15c30:	00027870 	.word	0x00027870

00015c34 <CLI_CONFIGURATION_SIGNAL_connect>:
   15c34:	e1a01000 	mov	r1, r0
   15c38:	e59f0000 	ldr	r0, [pc]	; 15c40 <CLI_CONFIGURATION_SIGNAL_connect+0xc>
   15c3c:	eafff5df 	b	133c0 <signal_slot_connect>
   15c40:	00027898 	.word	0x00027898

00015c44 <CLI_MESSAGE_SIGNAL_init>:
   15c44:	e59f0000 	ldr	r0, [pc]	; 15c4c <CLI_MESSAGE_SIGNAL_init+0x8>
   15c48:	eafff5b9 	b	13334 <signal_slot_init>
   15c4c:	000278a0 	.word	0x000278a0

00015c50 <CLI_MESSAGE_SIGNAL_send>:
   15c50:	e1a01000 	mov	r1, r0
   15c54:	e59f0000 	ldr	r0, [pc]	; 15c5c <CLI_MESSAGE_SIGNAL_send+0xc>
   15c58:	eafff5b8 	b	13340 <signal_slot_send>
   15c5c:	000278a0 	.word	0x000278a0

00015c60 <CLI_MESSAGE_SIGNAL_set_timeout>:
   15c60:	e59f3004 	ldr	r3, [pc, #4]	; 15c6c <CLI_MESSAGE_SIGNAL_set_timeout+0xc>
   15c64:	e1c303b2 	strh	r0, [r3, #50]	; 0x32
   15c68:	e12fff1e 	bx	lr
   15c6c:	00027870 	.word	0x00027870

00015c70 <CLI_MESSAGE_SIGNAL_connect>:
   15c70:	e1a01000 	mov	r1, r0
   15c74:	e59f0000 	ldr	r0, [pc]	; 15c7c <CLI_MESSAGE_SIGNAL_connect+0xc>
   15c78:	eafff5d0 	b	133c0 <signal_slot_connect>
   15c7c:	000278a0 	.word	0x000278a0

00015c80 <command_line_interface_init>:
   15c80:	e92d4010 	push	{r4, lr}
   15c84:	ebffff94 	bl	15adc <CLI_INVALID_ARGUMENT_SIGNAL_init>
   15c88:	ebffffb1 	bl	15b54 <CLI_HELP_REQUESTED_SIGNAL_init>
   15c8c:	ebffffbf 	bl	15b90 <CLI_LCD_ACTIVATED_SIGNAL_init>
   15c90:	ebffffcd 	bl	15bcc <CLI_CONSOLE_ACTIVATED_SIGNAL_init>
   15c94:	ebffffdb 	bl	15c08 <CLI_CONFIGURATION_SIGNAL_init>
   15c98:	e8bd4010 	pop	{r4, lr}
   15c9c:	eaffffe8 	b	15c44 <CLI_MESSAGE_SIGNAL_init>

00015ca0 <command_line_interface>:
   15ca0:	e92d4ff0 	push	{r4, r5, r6, r7, r8, r9, sl, fp, lr}
   15ca4:	e1a08000 	mov	r8, r0
   15ca8:	e24dd014 	sub	sp, sp, #20
   15cac:	e1a09001 	mov	r9, r1
   15cb0:	e3a07000 	mov	r7, #0
   15cb4:	e2403001 	sub	r3, r0, #1
   15cb8:	e58d3000 	str	r3, [sp]
   15cbc:	e6ef6077 	uxtb	r6, r7
   15cc0:	e1560008 	cmp	r6, r8
   15cc4:	ba000001 	blt	15cd0 <command_line_interface+0x30>
   15cc8:	e28dd014 	add	sp, sp, #20
   15ccc:	e8bd8ff0 	pop	{r4, r5, r6, r7, r8, r9, sl, fp, pc}
   15cd0:	e1a05106 	lsl	r5, r6, #2
   15cd4:	e59f4084 	ldr	r4, [pc, #132]	; 15d60 <command_line_interface+0xc0>
   15cd8:	e089b005 	add	fp, r9, r5
   15cdc:	e2855004 	add	r5, r5, #4
   15ce0:	e0895005 	add	r5, r9, r5
   15ce4:	e284a060 	add	sl, r4, #96	; 0x60
   15ce8:	e59b3000 	ldr	r3, [fp]
   15cec:	e1a00003 	mov	r0, r3
   15cf0:	e58d300c 	str	r3, [sp, #12]
   15cf4:	ebffeb38 	bl	109dc <strlen@plt>
   15cf8:	e5941000 	ldr	r1, [r4]
   15cfc:	e58d1004 	str	r1, [sp, #4]
   15d00:	e58d0008 	str	r0, [sp, #8]
   15d04:	e1a00001 	mov	r0, r1
   15d08:	ebffeb33 	bl	109dc <strlen@plt>
   15d0c:	e59d2008 	ldr	r2, [sp, #8]
   15d10:	e6ef2072 	uxtb	r2, r2
   15d14:	e6ef0070 	uxtb	r0, r0
   15d18:	e1520000 	cmp	r2, r0
   15d1c:	1a00000a 	bne	15d4c <command_line_interface+0xac>
   15d20:	e59d300c 	ldr	r3, [sp, #12]
   15d24:	e59d1004 	ldr	r1, [sp, #4]
   15d28:	e1a00003 	mov	r0, r3
   15d2c:	ebffeb09 	bl	10958 <memcmp@plt>
   15d30:	e3500000 	cmp	r0, #0
   15d34:	1a000004 	bne	15d4c <command_line_interface+0xac>
   15d38:	e59d2000 	ldr	r2, [sp]
   15d3c:	e5943004 	ldr	r3, [r4, #4]
   15d40:	e1520006 	cmp	r2, r6
   15d44:	15950000 	ldrne	r0, [r5]
   15d48:	e12fff33 	blx	r3
   15d4c:	e2844008 	add	r4, r4, #8
   15d50:	e15a0004 	cmp	sl, r4
   15d54:	1affffe3 	bne	15ce8 <command_line_interface+0x48>
   15d58:	e2877001 	add	r7, r7, #1
   15d5c:	eaffffd6 	b	15cbc <command_line_interface+0x1c>
   15d60:	000167bc 	.word	0x000167bc

00015d64 <command_line_handler_device>:
   15d64:	e12fff1e 	bx	lr

00015d68 <command_line_handler_cfg_file>:
   15d68:	eaffffa9 	b	15c14 <CLI_CONFIGURATION_SIGNAL_send>

00015d6c <command_line_handler_lcd>:
   15d6c:	e3a00000 	mov	r0, #0
   15d70:	eaffff89 	b	15b9c <CLI_LCD_ACTIVATED_SIGNAL_send>

00015d74 <command_line_handler_console>:
   15d74:	e3a00000 	mov	r0, #0
   15d78:	eaffff96 	b	15bd8 <CLI_CONSOLE_ACTIVATED_SIGNAL_send>

00015d7c <command_line_handler_command>:
   15d7c:	e92d4010 	push	{r4, lr}
   15d80:	e2504000 	subs	r4, r0, #0
   15d84:	e24dd088 	sub	sp, sp, #136	; 0x88
   15d88:	1a000003 	bne	15d9c <command_line_handler_command+0x20>
   15d8c:	e59f0044 	ldr	r0, [pc, #68]	; 15dd8 <command_line_handler_command+0x5c>
   15d90:	ebffff63 	bl	15b24 <CLI_INVALID_PARAMETER_SIGNAL_send>
   15d94:	e28dd088 	add	sp, sp, #136	; 0x88
   15d98:	e8bd8010 	pop	{r4, pc}
   15d9c:	ebffeb0e 	bl	109dc <strlen@plt>
   15da0:	e3100001 	tst	r0, #1
   15da4:	1afffff8 	bne	15d8c <command_line_handler_command+0x10>
   15da8:	e59f302c 	ldr	r3, [pc, #44]	; 15ddc <command_line_handler_command+0x60>
   15dac:	e1500003 	cmp	r0, r3
   15db0:	8afffff5 	bhi	15d8c <command_line_handler_command+0x10>
   15db4:	e6ff1070 	uxth	r1, r0
   15db8:	e3a03080 	mov	r3, #128	; 0x80
   15dbc:	e28d2006 	add	r2, sp, #6
   15dc0:	e1a00004 	mov	r0, r4
   15dc4:	ebfff6ab 	bl	13878 <common_tools_hex_string_to_byte_array>
   15dc8:	e1cd00b4 	strh	r0, [sp, #4]
   15dcc:	e28d0004 	add	r0, sp, #4
   15dd0:	ebfff8a3 	bl	14064 <RPI_HOST_COMMAND_RECEIVED_SIGNAL_send>
   15dd4:	eaffffee 	b	15d94 <command_line_handler_command+0x18>
   15dd8:	00016834 	.word	0x00016834
   15ddc:	00000101 	.word	0x00000101

00015de0 <command_line_handler_controller>:
   15de0:	e12fff1e 	bx	lr

00015de4 <command_line_handler_help>:
   15de4:	e3a00000 	mov	r0, #0
   15de8:	eaffff5c 	b	15b60 <CLI_HELP_REQUESTED_SIGNAL_send>

00015dec <command_line_handler_topic>:
   15dec:	e92d4030 	push	{r4, r5, lr}
   15df0:	e24ddf81 	sub	sp, sp, #516	; 0x204
   15df4:	e1a05000 	mov	r5, r0
   15df8:	e59f2088 	ldr	r2, [pc, #136]	; 15e88 <command_line_handler_topic+0x9c>
   15dfc:	e3a01000 	mov	r1, #0
   15e00:	e1a0000d 	mov	r0, sp
   15e04:	ebffeafd 	bl	10a00 <memset@plt>
   15e08:	e59f307c 	ldr	r3, [pc, #124]	; 15e8c <command_line_handler_topic+0xa0>
   15e0c:	e1a0c00d 	mov	ip, sp
   15e10:	e283e010 	add	lr, r3, #16
   15e14:	e5930000 	ldr	r0, [r3]
   15e18:	e5931004 	ldr	r1, [r3, #4]
   15e1c:	e1a0200c 	mov	r2, ip
   15e20:	e2833008 	add	r3, r3, #8
   15e24:	e153000e 	cmp	r3, lr
   15e28:	e8a20003 	stmia	r2!, {r0, r1}
   15e2c:	e1a0c002 	mov	ip, r2
   15e30:	1afffff7 	bne	15e14 <command_line_handler_topic+0x28>
   15e34:	e28d40ff 	add	r4, sp, #255	; 0xff
   15e38:	e3a020ef 	mov	r2, #239	; 0xef
   15e3c:	e3a01000 	mov	r1, #0
   15e40:	e28d0010 	add	r0, sp, #16
   15e44:	ebffeaed 	bl	10a00 <memset@plt>
   15e48:	e3a020ff 	mov	r2, #255	; 0xff
   15e4c:	e3a01000 	mov	r1, #0
   15e50:	e1a00004 	mov	r0, r4
   15e54:	ebffeae9 	bl	10a00 <memset@plt>
   15e58:	e1a00005 	mov	r0, r5
   15e5c:	ebffeade 	bl	109dc <strlen@plt>
   15e60:	e1a01005 	mov	r1, r5
   15e64:	e6ff2070 	uxth	r2, r0
   15e68:	e35200fe 	cmp	r2, #254	; 0xfe
   15e6c:	23a020fe 	movcs	r2, #254	; 0xfe
   15e70:	e1a00004 	mov	r0, r4
   15e74:	ebffeab1 	bl	10940 <memcpy@plt>
   15e78:	e1a0000d 	mov	r0, sp
   15e7c:	ebfffdba 	bl	1556c <CFG_PARSER_NEW_CFG_OBJECT_SIGNAL_send>
   15e80:	e28ddf81 	add	sp, sp, #516	; 0x204
   15e84:	e8bd8030 	pop	{r4, r5, pc}
   15e88:	000001fe 	.word	0x000001fe
   15e8c:	00016865 	.word	0x00016865

00015e90 <command_line_handler_host>:
   15e90:	e92d4030 	push	{r4, r5, lr}
   15e94:	e24ddf81 	sub	sp, sp, #516	; 0x204
   15e98:	e59f2094 	ldr	r2, [pc, #148]	; 15f34 <command_line_handler_host+0xa4>
   15e9c:	e1a05000 	mov	r5, r0
   15ea0:	e3a01000 	mov	r1, #0
   15ea4:	e1a0000d 	mov	r0, sp
   15ea8:	ebffead4 	bl	10a00 <memset@plt>
   15eac:	e59f3084 	ldr	r3, [pc, #132]	; 15f38 <command_line_handler_host+0xa8>
   15eb0:	e1a0200d 	mov	r2, sp
   15eb4:	e283e010 	add	lr, r3, #16
   15eb8:	e5930000 	ldr	r0, [r3]
   15ebc:	e5931004 	ldr	r1, [r3, #4]
   15ec0:	e1a0c002 	mov	ip, r2
   15ec4:	e2833008 	add	r3, r3, #8
   15ec8:	e153000e 	cmp	r3, lr
   15ecc:	e8ac0003 	stmia	ip!, {r0, r1}
   15ed0:	e1a0200c 	mov	r2, ip
   15ed4:	1afffff7 	bne	15eb8 <command_line_handler_host+0x28>
   15ed8:	e1d330b0 	ldrh	r3, [r3]
   15edc:	e28d40ff 	add	r4, sp, #255	; 0xff
   15ee0:	e3a020ed 	mov	r2, #237	; 0xed
   15ee4:	e1cc30b0 	strh	r3, [ip]
   15ee8:	e3a01000 	mov	r1, #0
   15eec:	e28d0012 	add	r0, sp, #18
   15ef0:	ebffeac2 	bl	10a00 <memset@plt>
   15ef4:	e3a020ff 	mov	r2, #255	; 0xff
   15ef8:	e3a01000 	mov	r1, #0
   15efc:	e1a00004 	mov	r0, r4
   15f00:	ebffeabe 	bl	10a00 <memset@plt>
   15f04:	e1a00005 	mov	r0, r5
   15f08:	ebffeab3 	bl	109dc <strlen@plt>
   15f0c:	e1a01005 	mov	r1, r5
   15f10:	e6ff2070 	uxth	r2, r0
   15f14:	e35200fe 	cmp	r2, #254	; 0xfe
   15f18:	23a020fe 	movcs	r2, #254	; 0xfe
   15f1c:	e1a00004 	mov	r0, r4
   15f20:	ebffea86 	bl	10940 <memcpy@plt>
   15f24:	e1a0000d 	mov	r0, sp
   15f28:	ebfffd8f 	bl	1556c <CFG_PARSER_NEW_CFG_OBJECT_SIGNAL_send>
   15f2c:	e28ddf81 	add	sp, sp, #516	; 0x204
   15f30:	e8bd8030 	pop	{r4, r5, pc}
   15f34:	000001fe 	.word	0x000001fe
   15f38:	00016964 	.word	0x00016964

00015f3c <command_line_handler_client>:
   15f3c:	e92d4030 	push	{r4, r5, lr}
   15f40:	e24ddf81 	sub	sp, sp, #516	; 0x204
   15f44:	e59f20a4 	ldr	r2, [pc, #164]	; 15ff0 <command_line_handler_client+0xb4>
   15f48:	e1a05000 	mov	r5, r0
   15f4c:	e3a01000 	mov	r1, #0
   15f50:	e1a0000d 	mov	r0, sp
   15f54:	ebffeaa9 	bl	10a00 <memset@plt>
   15f58:	e59f3094 	ldr	r3, [pc, #148]	; 15ff4 <command_line_handler_client+0xb8>
   15f5c:	e1a0200d 	mov	r2, sp
   15f60:	e283e008 	add	lr, r3, #8
   15f64:	e5930000 	ldr	r0, [r3]
   15f68:	e5931004 	ldr	r1, [r3, #4]
   15f6c:	e1a0c002 	mov	ip, r2
   15f70:	e2833008 	add	r3, r3, #8
   15f74:	e153000e 	cmp	r3, lr
   15f78:	e8ac0003 	stmia	ip!, {r0, r1}
   15f7c:	e1a0200c 	mov	r2, ip
   15f80:	1afffff7 	bne	15f64 <command_line_handler_client+0x28>
   15f84:	e5930000 	ldr	r0, [r3]
   15f88:	e1d310b4 	ldrh	r1, [r3, #4]
   15f8c:	e5d33006 	ldrb	r3, [r3, #6]
   15f90:	e58c0000 	str	r0, [ip]
   15f94:	e1cc10b4 	strh	r1, [ip, #4]
   15f98:	e5cc3006 	strb	r3, [ip, #6]
   15f9c:	e28d40ff 	add	r4, sp, #255	; 0xff
   15fa0:	e3a020f0 	mov	r2, #240	; 0xf0
   15fa4:	e3a01000 	mov	r1, #0
   15fa8:	e28d000f 	add	r0, sp, #15
   15fac:	ebffea93 	bl	10a00 <memset@plt>
   15fb0:	e3a020ff 	mov	r2, #255	; 0xff
   15fb4:	e3a01000 	mov	r1, #0
   15fb8:	e1a00004 	mov	r0, r4
   15fbc:	ebffea8f 	bl	10a00 <memset@plt>
   15fc0:	e1a00005 	mov	r0, r5
   15fc4:	ebffea84 	bl	109dc <strlen@plt>
   15fc8:	e1a01005 	mov	r1, r5
   15fcc:	e6ff2070 	uxth	r2, r0
   15fd0:	e35200fe 	cmp	r2, #254	; 0xfe
   15fd4:	23a020fe 	movcs	r2, #254	; 0xfe
   15fd8:	e1a00004 	mov	r0, r4
   15fdc:	ebffea57 	bl	10940 <memcpy@plt>
   15fe0:	e1a0000d 	mov	r0, sp
   15fe4:	ebfffd60 	bl	1556c <CFG_PARSER_NEW_CFG_OBJECT_SIGNAL_send>
   15fe8:	e28ddf81 	add	sp, sp, #516	; 0x204
   15fec:	e8bd8030 	pop	{r4, r5, pc}
   15ff0:	000001fe 	.word	0x000001fe
   15ff4:	00016a63 	.word	0x00016a63

00015ff8 <command_line_handler_message>:
   15ff8:	eaffff14 	b	15c50 <CLI_MESSAGE_SIGNAL_send>

00015ffc <sensor_initialization>:
   15ffc:	e12fff1e 	bx	lr

00016000 <button_initialization>:
   16000:	e12fff1e 	bx	lr

00016004 <output_initialization>:
   16004:	e12fff1e 	bx	lr

00016008 <protocol_initialization>:
   16008:	e59f3004 	ldr	r3, [pc, #4]	; 16014 <protocol_initialization+0xc>
   1600c:	e5930044 	ldr	r0, [r3, #68]	; 0x44
   16010:	eafff982 	b	14620 <rpi_protocol_init>
   16014:	00016728 	.word	0x00016728

00016018 <command_initialization>:
   16018:	e12fff1e 	bx	lr

0001601c <task_initialization>:
   1601c:	eafff733 	b	13cf0 <mcu_task_controller_init>

00016020 <system_initialization>:
   16020:	e92d4010 	push	{r4, lr}
   16024:	ebfffa64 	bl	149bc <gpio_driver_init>
   16028:	ebfff9ee 	bl	147e8 <clock_driver_init>
   1602c:	ebfff993 	bl	14680 <rtc_driver_init>
   16030:	e59f300c 	ldr	r3, [pc, #12]	; 16044 <system_initialization+0x24>
   16034:	e8bd4010 	pop	{r4, lr}
   16038:	e5933044 	ldr	r3, [r3, #68]	; 0x44
   1603c:	e5933004 	ldr	r3, [r3, #4]
   16040:	e12fff13 	bx	r3
   16044:	00016728 	.word	0x00016728

00016048 <power_initialization>:
   16048:	e12fff1e 	bx	lr

0001604c <initialization>:
   1604c:	e92d4010 	push	{r4, lr}
   16050:	ebfffff2 	bl	16020 <system_initialization>
   16054:	ebfffffb 	bl	16048 <power_initialization>
   16058:	ebffffe7 	bl	15ffc <sensor_initialization>
   1605c:	ebffffe7 	bl	16000 <button_initialization>
   16060:	ebffffe7 	bl	16004 <output_initialization>
   16064:	ebffffec 	bl	1601c <task_initialization>
   16068:	ebffffe6 	bl	16008 <protocol_initialization>
   1606c:	ebffffe9 	bl	16018 <command_initialization>
   16070:	ebffff02 	bl	15c80 <command_line_interface_init>
   16074:	e8bd4010 	pop	{r4, lr}
   16078:	eafffdd8 	b	157e0 <cfg_file_parser_init>

0001607c <__aeabi_drsub>:
   1607c:	e2211102 	eor	r1, r1, #-2147483648	; 0x80000000
   16080:	ea000000 	b	16088 <__adddf3>

00016084 <__aeabi_dsub>:
   16084:	e2233102 	eor	r3, r3, #-2147483648	; 0x80000000

00016088 <__adddf3>:
   16088:	e92d4030 	push	{r4, r5, lr}
   1608c:	e1a04081 	lsl	r4, r1, #1
   16090:	e1a05083 	lsl	r5, r3, #1
   16094:	e1340005 	teq	r4, r5
   16098:	01300002 	teqeq	r0, r2
   1609c:	1194c000 	orrsne	ip, r4, r0
   160a0:	1195c002 	orrsne	ip, r5, r2
   160a4:	11f0cac4 	mvnsne	ip, r4, asr #21
   160a8:	11f0cac5 	mvnsne	ip, r5, asr #21
   160ac:	0a000079 	beq	16298 <__adddf3+0x210>
   160b0:	e1a04aa4 	lsr	r4, r4, #21
   160b4:	e0745aa5 	rsbs	r5, r4, r5, lsr #21
   160b8:	b2655000 	rsblt	r5, r5, #0
   160bc:	da000006 	ble	160dc <__adddf3+0x54>
   160c0:	e0844005 	add	r4, r4, r5
   160c4:	e0202002 	eor	r2, r0, r2
   160c8:	e0213003 	eor	r3, r1, r3
   160cc:	e0220000 	eor	r0, r2, r0
   160d0:	e0231001 	eor	r1, r3, r1
   160d4:	e0202002 	eor	r2, r0, r2
   160d8:	e0213003 	eor	r3, r1, r3
   160dc:	e3550036 	cmp	r5, #54	; 0x36
   160e0:	88bd8030 	pophi	{r4, r5, pc}
   160e4:	e3110102 	tst	r1, #-2147483648	; 0x80000000
   160e8:	e1a01601 	lsl	r1, r1, #12
   160ec:	e3a0c601 	mov	ip, #1048576	; 0x100000
   160f0:	e18c1621 	orr	r1, ip, r1, lsr #12
   160f4:	0a000001 	beq	16100 <__adddf3+0x78>
   160f8:	e2700000 	rsbs	r0, r0, #0
   160fc:	e2e11000 	rsc	r1, r1, #0
   16100:	e3130102 	tst	r3, #-2147483648	; 0x80000000
   16104:	e1a03603 	lsl	r3, r3, #12
   16108:	e18c3623 	orr	r3, ip, r3, lsr #12
   1610c:	0a000001 	beq	16118 <__adddf3+0x90>
   16110:	e2722000 	rsbs	r2, r2, #0
   16114:	e2e33000 	rsc	r3, r3, #0
   16118:	e1340005 	teq	r4, r5
   1611c:	0a000057 	beq	16280 <__adddf3+0x1f8>
   16120:	e2444001 	sub	r4, r4, #1
   16124:	e275e020 	rsbs	lr, r5, #32
   16128:	ba000005 	blt	16144 <__adddf3+0xbc>
   1612c:	e1a0ce12 	lsl	ip, r2, lr
   16130:	e0900532 	adds	r0, r0, r2, lsr r5
   16134:	e2a11000 	adc	r1, r1, #0
   16138:	e0900e13 	adds	r0, r0, r3, lsl lr
   1613c:	e0b11553 	adcs	r1, r1, r3, asr r5
   16140:	ea000006 	b	16160 <__adddf3+0xd8>
   16144:	e2455020 	sub	r5, r5, #32
   16148:	e28ee020 	add	lr, lr, #32
   1614c:	e3520001 	cmp	r2, #1
   16150:	e1a0ce13 	lsl	ip, r3, lr
   16154:	238cc002 	orrcs	ip, ip, #2
   16158:	e0900553 	adds	r0, r0, r3, asr r5
   1615c:	e0b11fc3 	adcs	r1, r1, r3, asr #31
   16160:	e2015102 	and	r5, r1, #-2147483648	; 0x80000000
   16164:	5a000002 	bpl	16174 <__adddf3+0xec>
   16168:	e27cc000 	rsbs	ip, ip, #0
   1616c:	e2f00000 	rscs	r0, r0, #0
   16170:	e2e11000 	rsc	r1, r1, #0
   16174:	e3510601 	cmp	r1, #1048576	; 0x100000
   16178:	3a00000e 	bcc	161b8 <__adddf3+0x130>
   1617c:	e3510602 	cmp	r1, #2097152	; 0x200000
   16180:	3a000006 	bcc	161a0 <__adddf3+0x118>
   16184:	e1b010a1 	lsrs	r1, r1, #1
   16188:	e1b00060 	rrxs	r0, r0
   1618c:	e1a0c06c 	rrx	ip, ip
   16190:	e2844001 	add	r4, r4, #1
   16194:	e1a02a84 	lsl	r2, r4, #21
   16198:	e3720501 	cmn	r2, #4194304	; 0x400000
   1619c:	2a000055 	bcs	162f8 <__adddf3+0x270>
   161a0:	e35c0102 	cmp	ip, #-2147483648	; 0x80000000
   161a4:	01b0c0a0 	lsrseq	ip, r0, #1
   161a8:	e2b00000 	adcs	r0, r0, #0
   161ac:	e0a11a04 	adc	r1, r1, r4, lsl #20
   161b0:	e1811005 	orr	r1, r1, r5
   161b4:	e8bd8030 	pop	{r4, r5, pc}
   161b8:	e1b0c08c 	lsls	ip, ip, #1
   161bc:	e0b00000 	adcs	r0, r0, r0
   161c0:	e0a11001 	adc	r1, r1, r1
   161c4:	e3110601 	tst	r1, #1048576	; 0x100000
   161c8:	e2444001 	sub	r4, r4, #1
   161cc:	1afffff3 	bne	161a0 <__adddf3+0x118>
   161d0:	e3310000 	teq	r1, #0
   161d4:	01a01000 	moveq	r1, r0
   161d8:	03a00000 	moveq	r0, #0
   161dc:	e16f3f11 	clz	r3, r1
   161e0:	02833020 	addeq	r3, r3, #32
   161e4:	e243300b 	sub	r3, r3, #11
   161e8:	e2532020 	subs	r2, r3, #32
   161ec:	aa000007 	bge	16210 <__adddf3+0x188>
   161f0:	e292200c 	adds	r2, r2, #12
   161f4:	da000004 	ble	1620c <__adddf3+0x184>
   161f8:	e282c014 	add	ip, r2, #20
   161fc:	e262200c 	rsb	r2, r2, #12
   16200:	e1a00c11 	lsl	r0, r1, ip
   16204:	e1a01231 	lsr	r1, r1, r2
   16208:	ea000004 	b	16220 <__adddf3+0x198>
   1620c:	e2822014 	add	r2, r2, #20
   16210:	d262c020 	rsble	ip, r2, #32
   16214:	e1a01211 	lsl	r1, r1, r2
   16218:	d1811c30 	orrle	r1, r1, r0, lsr ip
   1621c:	d1a00210 	lslle	r0, r0, r2
   16220:	e0544003 	subs	r4, r4, r3
   16224:	a0811a04 	addge	r1, r1, r4, lsl #20
   16228:	a1811005 	orrge	r1, r1, r5
   1622c:	a8bd8030 	popge	{r4, r5, pc}
   16230:	e1e04004 	mvn	r4, r4
   16234:	e254401f 	subs	r4, r4, #31
   16238:	aa00000d 	bge	16274 <__adddf3+0x1ec>
   1623c:	e294400c 	adds	r4, r4, #12
   16240:	ca000005 	bgt	1625c <__adddf3+0x1d4>
   16244:	e2844014 	add	r4, r4, #20
   16248:	e2642020 	rsb	r2, r4, #32
   1624c:	e1a00430 	lsr	r0, r0, r4
   16250:	e1800211 	orr	r0, r0, r1, lsl r2
   16254:	e1851431 	orr	r1, r5, r1, lsr r4
   16258:	e8bd8030 	pop	{r4, r5, pc}
   1625c:	e264400c 	rsb	r4, r4, #12
   16260:	e2642020 	rsb	r2, r4, #32
   16264:	e1a00230 	lsr	r0, r0, r2
   16268:	e1800411 	orr	r0, r0, r1, lsl r4
   1626c:	e1a01005 	mov	r1, r5
   16270:	e8bd8030 	pop	{r4, r5, pc}
   16274:	e1a00431 	lsr	r0, r1, r4
   16278:	e1a01005 	mov	r1, r5
   1627c:	e8bd8030 	pop	{r4, r5, pc}
   16280:	e3340000 	teq	r4, #0
   16284:	e2233601 	eor	r3, r3, #1048576	; 0x100000
   16288:	02211601 	eoreq	r1, r1, #1048576	; 0x100000
   1628c:	02844001 	addeq	r4, r4, #1
   16290:	12455001 	subne	r5, r5, #1
   16294:	eaffffa1 	b	16120 <__adddf3+0x98>
   16298:	e1f0cac4 	mvns	ip, r4, asr #21
   1629c:	11f0cac5 	mvnsne	ip, r5, asr #21
   162a0:	0a000018 	beq	16308 <__adddf3+0x280>
   162a4:	e1340005 	teq	r4, r5
   162a8:	01300002 	teqeq	r0, r2
   162ac:	0a000003 	beq	162c0 <__adddf3+0x238>
   162b0:	e194c000 	orrs	ip, r4, r0
   162b4:	01a01003 	moveq	r1, r3
   162b8:	01a00002 	moveq	r0, r2
   162bc:	e8bd8030 	pop	{r4, r5, pc}
   162c0:	e1310003 	teq	r1, r3
   162c4:	13a01000 	movne	r1, #0
   162c8:	13a00000 	movne	r0, #0
   162cc:	18bd8030 	popne	{r4, r5, pc}
   162d0:	e1b0caa4 	lsrs	ip, r4, #21
   162d4:	1a000003 	bne	162e8 <__adddf3+0x260>
   162d8:	e1b00080 	lsls	r0, r0, #1
   162dc:	e0b11001 	adcs	r1, r1, r1
   162e0:	23811102 	orrcs	r1, r1, #-2147483648	; 0x80000000
   162e4:	e8bd8030 	pop	{r4, r5, pc}
   162e8:	e2944501 	adds	r4, r4, #4194304	; 0x400000
   162ec:	32811601 	addcc	r1, r1, #1048576	; 0x100000
   162f0:	38bd8030 	popcc	{r4, r5, pc}
   162f4:	e2015102 	and	r5, r1, #-2147483648	; 0x80000000
   162f8:	e385147f 	orr	r1, r5, #2130706432	; 0x7f000000
   162fc:	e381160f 	orr	r1, r1, #15728640	; 0xf00000
   16300:	e3a00000 	mov	r0, #0
   16304:	e8bd8030 	pop	{r4, r5, pc}
   16308:	e1f0cac4 	mvns	ip, r4, asr #21
   1630c:	11a01003 	movne	r1, r3
   16310:	11a00002 	movne	r0, r2
   16314:	01f0cac5 	mvnseq	ip, r5, asr #21
   16318:	11a03001 	movne	r3, r1
   1631c:	11a02000 	movne	r2, r0
   16320:	e1904601 	orrs	r4, r0, r1, lsl #12
   16324:	01925603 	orrseq	r5, r2, r3, lsl #12
   16328:	01310003 	teqeq	r1, r3
   1632c:	13811702 	orrne	r1, r1, #524288	; 0x80000
   16330:	e8bd8030 	pop	{r4, r5, pc}

00016334 <__aeabi_ui2d>:
   16334:	e3300000 	teq	r0, #0
   16338:	03a01000 	moveq	r1, #0
   1633c:	012fff1e 	bxeq	lr
   16340:	e92d4030 	push	{r4, r5, lr}
   16344:	e3a04b01 	mov	r4, #1024	; 0x400
   16348:	e2844032 	add	r4, r4, #50	; 0x32
   1634c:	e3a05000 	mov	r5, #0
   16350:	e3a01000 	mov	r1, #0
   16354:	eaffff9d 	b	161d0 <__adddf3+0x148>

00016358 <__aeabi_i2d>:
   16358:	e3300000 	teq	r0, #0
   1635c:	03a01000 	moveq	r1, #0
   16360:	012fff1e 	bxeq	lr
   16364:	e92d4030 	push	{r4, r5, lr}
   16368:	e3a04b01 	mov	r4, #1024	; 0x400
   1636c:	e2844032 	add	r4, r4, #50	; 0x32
   16370:	e2105102 	ands	r5, r0, #-2147483648	; 0x80000000
   16374:	42600000 	rsbmi	r0, r0, #0
   16378:	e3a01000 	mov	r1, #0
   1637c:	eaffff93 	b	161d0 <__adddf3+0x148>

00016380 <__aeabi_f2d>:
   16380:	e1b02080 	lsls	r2, r0, #1
   16384:	e1a011c2 	asr	r1, r2, #3
   16388:	e1a01061 	rrx	r1, r1
   1638c:	e1a00e02 	lsl	r0, r2, #28
   16390:	121234ff 	andsne	r3, r2, #-16777216	; 0xff000000
   16394:	133304ff 	teqne	r3, #-16777216	; 0xff000000
   16398:	1221130e 	eorne	r1, r1, #939524096	; 0x38000000
   1639c:	112fff1e 	bxne	lr
   163a0:	e3d224ff 	bics	r2, r2, #-16777216	; 0xff000000
   163a4:	012fff1e 	bxeq	lr
   163a8:	e33304ff 	teq	r3, #-16777216	; 0xff000000
   163ac:	03811702 	orreq	r1, r1, #524288	; 0x80000
   163b0:	012fff1e 	bxeq	lr
   163b4:	e92d4030 	push	{r4, r5, lr}
   163b8:	e3a04d0e 	mov	r4, #896	; 0x380
   163bc:	e2015102 	and	r5, r1, #-2147483648	; 0x80000000
   163c0:	e3c11102 	bic	r1, r1, #-2147483648	; 0x80000000
   163c4:	eaffff81 	b	161d0 <__adddf3+0x148>

000163c8 <__aeabi_ul2d>:
   163c8:	e1902001 	orrs	r2, r0, r1
   163cc:	012fff1e 	bxeq	lr
   163d0:	e92d4030 	push	{r4, r5, lr}
   163d4:	e3a05000 	mov	r5, #0
   163d8:	ea000006 	b	163f8 <__aeabi_l2d+0x1c>

000163dc <__aeabi_l2d>:
   163dc:	e1902001 	orrs	r2, r0, r1
   163e0:	012fff1e 	bxeq	lr
   163e4:	e92d4030 	push	{r4, r5, lr}
   163e8:	e2115102 	ands	r5, r1, #-2147483648	; 0x80000000
   163ec:	5a000001 	bpl	163f8 <__aeabi_l2d+0x1c>
   163f0:	e2700000 	rsbs	r0, r0, #0
   163f4:	e2e11000 	rsc	r1, r1, #0
   163f8:	e3a04b01 	mov	r4, #1024	; 0x400
   163fc:	e2844032 	add	r4, r4, #50	; 0x32
   16400:	e1b0cb21 	lsrs	ip, r1, #22
   16404:	0affff5a 	beq	16174 <__adddf3+0xec>
   16408:	e3a02003 	mov	r2, #3
   1640c:	e1b0c1ac 	lsrs	ip, ip, #3
   16410:	12822003 	addne	r2, r2, #3
   16414:	e1b0c1ac 	lsrs	ip, ip, #3
   16418:	12822003 	addne	r2, r2, #3
   1641c:	e08221ac 	add	r2, r2, ip, lsr #3
   16420:	e2623020 	rsb	r3, r2, #32
   16424:	e1a0c310 	lsl	ip, r0, r3
   16428:	e1a00230 	lsr	r0, r0, r2
   1642c:	e1800311 	orr	r0, r0, r1, lsl r3
   16430:	e1a01231 	lsr	r1, r1, r2
   16434:	e0844002 	add	r4, r4, r2
   16438:	eaffff4d 	b	16174 <__adddf3+0xec>
   1643c:	00000000 	andeq	r0, r0, r0

00016440 <__aeabi_d2ulz>:
   16440:	ec410b16 	vmov	d6, r0, r1
   16444:	ed9f7b09 	vldr	d7, [pc, #36]	; 16470 <__aeabi_d2ulz+0x30>
   16448:	ed9f5b0a 	vldr	d5, [pc, #40]	; 16478 <__aeabi_d2ulz+0x38>
   1644c:	ee267b07 	vmul.f64	d7, d6, d7
   16450:	eebc7bc7 	vcvt.u32.f64	s14, d7
   16454:	eeb84b47 	vcvt.f64.u32	d4, s14
   16458:	ee171a10 	vmov	r1, s14
   1645c:	ee046b45 	vmls.f64	d6, d4, d5
   16460:	eefc7bc6 	vcvt.u32.f64	s15, d6
   16464:	ee170a90 	vmov	r0, s15
   16468:	e12fff1e 	bx	lr
   1646c:	e1a00000 	nop			; (mov r0, r0)
   16470:	00000000 	.word	0x00000000
   16474:	3df00000 	.word	0x3df00000
   16478:	00000000 	.word	0x00000000
   1647c:	41f00000 	.word	0x41f00000

00016480 <__libc_csu_init>:
   16480:	e92d47f0 	push	{r4, r5, r6, r7, r8, r9, sl, lr}
   16484:	e1a07000 	mov	r7, r0
   16488:	e59f6048 	ldr	r6, [pc, #72]	; 164d8 <__libc_csu_init+0x58>
   1648c:	e59f5048 	ldr	r5, [pc, #72]	; 164dc <__libc_csu_init+0x5c>
   16490:	e08f6006 	add	r6, pc, r6
   16494:	e08f5005 	add	r5, pc, r5
   16498:	e0466005 	sub	r6, r6, r5
   1649c:	e1a08001 	mov	r8, r1
   164a0:	e1a09002 	mov	r9, r2
   164a4:	ebffe911 	bl	108f0 <_init>
   164a8:	e1b06146 	asrs	r6, r6, #2
   164ac:	08bd87f0 	popeq	{r4, r5, r6, r7, r8, r9, sl, pc}
   164b0:	e3a04000 	mov	r4, #0
   164b4:	e2844001 	add	r4, r4, #1
   164b8:	e4953004 	ldr	r3, [r5], #4
   164bc:	e1a02009 	mov	r2, r9
   164c0:	e1a01008 	mov	r1, r8
   164c4:	e1a00007 	mov	r0, r7
   164c8:	e12fff33 	blx	r3
   164cc:	e1560004 	cmp	r6, r4
   164d0:	1afffff7 	bne	164b4 <__libc_csu_init+0x34>
   164d4:	e8bd87f0 	pop	{r4, r5, r6, r7, r8, r9, sl, pc}
   164d8:	00010a6c 	.word	0x00010a6c
   164dc:	00010a64 	.word	0x00010a64

000164e0 <__libc_csu_fini>:
   164e0:	e12fff1e 	bx	lr

000164e4 <__stat>:
   164e4:	e1a02001 	mov	r2, r1
   164e8:	e1a01000 	mov	r1, r0
   164ec:	e3a00003 	mov	r0, #3
   164f0:	eaffe91b 	b	10964 <__xstat@plt>

Disassembly of section .fini:

000164f4 <_fini>:
   164f4:	e92d4008 	push	{r3, lr}
   164f8:	e8bd8008 	pop	{r3, pc}
